Ac:_glClearStencil
M2f:_UInt16_System_IConvertible_ToChar_m2096055221_AdjustorThunk
MNf:_Array_TrueForAll_TisRuntimeObject_m1084992726_gshared
Pwj:__ZN6il2cpp2vm5Array13GetByteLengthEP11Il2CppArray
gIi:_KeyBuilder_get_Rng_m3373220441
ySa:__Z30GetIntermediateRendererManagerv
bya:__Z21SourceMipLevelForBlitiiii
_Wa:__ZN31CanvasBatchIntermediateRenderer15AddAsRenderNodeER15RenderNodeQueueRK20DeprecatedSourceData
$$f:_TimeSpan_get_Hours_m550761902
BRd:_UnmanagedMemoryStream_Write_m930787521
vJi:_AnalyticsEventTracker_SendEvent_m1365958832
Er:__ZN11UnityEngine9Animation28GenericAnimationBindingCacheD2Ev
Pyi:_X509Store_LoadCrl_m1881903843
Vpi:_Array_Sort_TisUICharInfo_t75501106_TisUICharInfo_t75501106_m722747892_gshared
dYb:__Z18RestoreRenderStateR20CameraRenderOldStateR17ShaderPassContext
zyb:__Z18Transfer_BlittableI18StreamedBinaryReadILb1EELb1E5RectTIfEEvRK29SerializationCommandArgumentsR31RuntimeSerializationCommandInfo
rub:__Z18Transfer_BlittableI24GenerateTypeTreeTransferLb0E11ColorRGBA32EvRK29SerializationCommandArgumentsR31RuntimeSerializationCommandInfo
kDb:__Z25scripting_class_from_name17ScriptingImagePtrPKcS1_
KQf:_Array_InternalArray__IndexOf_TisKeyValuePair_2_t3699644050_m1021241249_gshared
thj:__ZN14dense_hash_mapI10KeyWrapperINSt3__24pairIPK12PropertyInfoP11Il2CppClassEEEj17ReflectionMapHashIS8_ENS9_14EqualsComparerINS1_8equal_toIS8_EEEENS1_9allocatorINS2_IKS9_jEEEEE15set_deleted_keyERSH_
LEb:__Z29scripting_class_enum_basetype17ScriptingClassPtr
eHe:_InternalEnumerator_1_get_Current_m1477715453_gshared
Olb:__ZNK20LocalFileSystemPosix6ParentERK13FileEntryDataRN4core12basic_stringIcNS3_20StringStorageDefaultIcEEEE
Byg:_RectTransform_GetWorldCorners_m3553547973
N5g:_Collection_1_System_Collections_IList_Remove_m1476284619_gshared
CTd:_MonoType_IsPrimitiveImpl_m2401722705
Znf:_SHA1CryptoServiceProvider__ctor_m4195188793
eog:_CSSMeasureFunc_BeginInvoke_m3802154595
Jbd:_Dropdown_Hide_m504034854
NLa:__ZN17PersistentManager22CheckInstanceIDsLoadedEPii
V3a:__ZN9Texture2D25CreateScaledAndPaddedDataEPP17SharedTextureDataS2_
vCg:_Vector2_get_up_m2647420593
Hva:__ZN7ApiGLES17CopyBufferSubDataEjjlll
LTf:_Array_InternalArray__ICollection_CopyTo_TisUInt64_t4134040092_m691431926_gshared
Mef:_IPAddress_ToString_m1181734207
HXf:_StringBuilder_Append_m1965104174
apc:__ZN5Unity9rapidjson15GenericDocumentINS0_4UTF8IcEE13JSONAllocatorS4_E11ParseStreamILj1ES3_NS0_25GenericInsituStringStreamIS3_EEEERS5_RT1_
Tcg:_EqualityComparer_1__cctor_m3766928733_gshared
kQb:__ZN25CameraStackRenderingState20GetOrCreateBuiltinRTE24BuiltinRenderTextureTypeii17DepthBufferFormat19RenderTextureFormatj22RenderTextureReadWrite14VRTextureUsagei
ioh:_UnityAction_1_Invoke_m610765085_gshared
zO:__ZN11AudioModule26SetDefaultMicrophoneDriverEPv
k9d:_Kernel_modInverse_m652700340
q8a:__ZNK14Texture2DArray26CanReuploadDataToGfxDeviceEv
zUb:__ZN17PrePassRenderLoop14RenderBasePassEP13RenderTextureRK14LightingLayersR13dynamic_arrayI16RenderObjectDataLj4EERbR10MinMaxAABB
Rmc:__ZN5IMGUI18RepaintModalWindowER8GUIState
q4:__ZNK15dense_hashtableINSt3__24pairIKN9ShaderLab7Program23ShaderKeywordSetAndHashEPKNS2_10SubProgramEEES4_NS3_24ShaderKeywordHashFunctorEN14dense_hash_mapIS4_S8_SA_NS0_8equal_toIS4_EE13stl_allocatorIS9_L18MemLabelIdentifier67ELi16EEE9SelectKeyESD_SG_E23find_position_with_hashERS5_j
mIf:_CompareInfo_Finalize_m404687489
$6a:__Z23SetSpriteMeshIndexCountP14SharedMeshDataj
DZf:_UTF8Decoder_GetChars_m1236346907
NAg:_TouchScreenKeyboard_Open_m231964201
b$a:__ZN7Texture13SetFilterModeEi
pyj:__ZN6il2cpp8metadata13GenericMethod9GetMethodEPK19Il2CppGenericMethod
sq:__ZNSt3__26vectorIN4core12basic_stringIcNS1_20StringStorageDefaultIcEEEENS_9allocatorIS5_EEE7reserveEj
hXd:_Default_SelectProperty_m1220817815
Oke:_RemotingConfiguration_IsRemotelyActivatedClientType_m4117048589
Dyg:_Transform_TransformPoint_m226827784
Apa:__ZN13GfxDeviceGLES11SetViewportERK5RectTIiE
Hjc:__Z24Time_Get_Custom_PropTimev
Rd:_emscripten_glDepthRange
Vje:_SslStreamBase_BeginNegotiateHandshake_m4180435790
s_b:__ZNSt3__26vectorINS_4pairIN4core12basic_stringIcNS2_20StringStorageDefaultIcEEEES6_EE13stl_allocatorIS7_L18MemLabelIdentifier38ELi16EEE12__move_rangeEPS7_SC_SC_
Kia:__Z14resize_trimmedINSt3__26vectorIN9ShaderLab20SerializedSubProgram12UAVParameterENS0_9allocatorIS4_EEEEEvRT_j
upc:__ZN5Unity9rapidjson13GenericReaderINS0_4UTF8IcEES3_13JSONAllocatorE11ParseObjectILj1ENS0_25GenericInsituStringStreamIS3_EENS0_15GenericDocumentIS3_S4_S4_EEEEvRT0_RT1_
b6c:_StandaloneInputModule_GetRawMoveVector_m2737091079
zji:__ZL62Selectable_t3250028441_CustomAttributesCacheGenerator_m_ColorsP21CustomAttributesCache
mke:_SslStreamBase_EndWrite_m4073224031
P1:__ZNSt3__218__insertion_sort_3IRNS_6__lessI14ObjectLoadDataS2_EEPS2_EEvT0_S6_T_
xxa:__ZN4crndL20crnd_default_reallocEPvjPjbS0_
hMj:__ZNSt3__212basic_stringIcNS_11char_traitsIcEENS_9allocatorIcEEEC2ERKS5_
R7a:__ZN18SpriteAtlasManager19AddRequestingSpriteE4PPtrI6SpriteE
sjc:__Z33Texture_CUSTOM_Internal_GetHeightP12Il2CppObject
aSe:_ValueCollection_System_Collections_ICollection_get_SyncRoot_m3381653267_gshared
iXb:__ZN23ScriptableRenderContextC2Ev
xed:_GridLayoutGroup_get_spacing_m2409263614
dsh:_List_1_CheckIndex_m581273900_gshared
LHc:_UNITY_FT_Stream_GetChar
_yb:__Z18Transfer_BlittableI18StreamedBinaryReadILb1EELb1EdEvRK29SerializationCommandArgumentsR31RuntimeSerializationCommandInfo
TEb:__Z26BuildSerializationCacheFor17ScriptingClassPtrRb
HDa:__ZN7ApiGLES15BlitFramebufferEN2gl6HandleILNS0_10ObjectTypeE9EEENS0_15FramebufferReadES3_S3_iiiiiiiiNS0_15FramebufferTypeE
jQg:__Z112RuntimeInvoker_RuntimeObject_RuntimeObject_RuntimeObject_RuntimeObject_RuntimeObject_RuntimeObject_RuntimeObjectPFvvEPK10MethodInfoPvPS4_
tGe:_InternalEnumerator_1_System_Collections_IEnumerator_get_Current_m3553395619_AdjustorThunk
Cqd:_Array_SetValue_m3998268557
Mvc:__ZN8JSONRead8TransferI8Vector4fEEvRT_PKc17TransferMetaFlagsb
T8c:_ColorBlock_set_highlightedColor_m2089444414_AdjustorThunk
myg:_RectTransform_INTERNAL_set_anchoredPosition_m939517950
Gge:_Context_EndSwitchingSecurityParameters_m4148956166
PCc:_otv_PairPos_validate
gw:__ZN7mecanim9animation14CopyHumanPosesEPKNS0_18AnimationNodeStateEPS1_RKNS_6bitsetILj83EEE
n7i:__ZN6il2cpp6icalls8mscorlib6SystemL8IsStaticEPK12PropertyInfo
iGb:__Z9InitInputv
KEc:_UNITY_tt_face_build_cmaps
Qcj:__ZN6il2cpp2gc19AppendOnlyGCHashMapINSt3__24pairIPK10MethodInfoP11Il2CppClassEEP22Il2CppReflectionMethod17ReflectionMapHashIS9_ENS2_8equal_toIS9_EEE3AddERKS9_SB_
Tmb:__ZN16MemoryFileSystem6DeleteER13FileEntryDatab
VKg:__Z81RuntimeInvoker_Void_t1185182177_RuntimeObject_Int64_t3736567304_Int32_t2950945753PFvvEPK10MethodInfoPvPS4_
nth:_List_1_set_Item_m1979164443_gshared
tya:__ZL21BlitScaleStbImageImplRK14ImageReferenceRS_NS_10ColorSpaceE
ftd:_Boolean_System_IConvertible_ToUInt16_m3465173538_AdjustorThunk
hUe:_InputField_get_keyboardType_m1248105267
iqb:__Z29Transfer_Blittable_ArrayFieldI14SafeBinaryReadyEvRT_R9ArrayInfoRK23StaticTransferFieldInfo
oM:__ZN20SoundChannelInstance15setChannelGroupEPN4FMOD12ChannelGroupE
lzi:_Match__ctor_m2425511580
oc:invoke_vifffii
goj:__ZN6il2cpp2vm9Exception27RaiseNullReferenceExceptionEv
COa:__ZNK25MultiBlocksMemoryFileData5CloneEv
XDj:_GC_add_ext_descriptor
fbj:__ZNK15dense_hashtableINSt3__24pairIK10KeyWrapperINS1_IPK14Il2CppAssemblyP11Il2CppClassEEEjEES9_17ReflectionMapHashIS8_EN14dense_hash_mapIS9_jSD_NS9_14EqualsComparerINS0_8equal_toIS8_EEEENS0_9allocatorISB_EEE9SelectKeyESI_SK_E23find_position_with_hashERSA_j
$ri:_LayoutGroup_SetProperty_TisSingle_t1397266774_m793506911_gshared
Jid:_CryptoConfig_CreateFromName_m1538277313
iOj:dynCall_iiiiiiiiiiii
sUe:_InputField_set_caretPositionInternal_m3823580651
V1e:_Selectable_set_interactable_m3105888815
kXa:__ZL26KeywordSetToStringDontSortRKNSt3__26vectorIN4core12basic_stringIcNS1_20StringStorageDefaultIcEEEENS_9allocatorIS5_EEEERS5_
jVc:__Z54Register_UnityEngine_Analytics_CustomEventData_AddCharv
lAa:__ZN6prcoreL17RemapGenericFloatI16TexFormatRGFloat17TexFormatRGBAHalfEEvPKNS_9InnerInfoE
xG:__ZN12AudioManager22CreateFMODSoundFromWWWEP10IWWWStream15FMOD_SOUND_TYPE17FMOD_SOUND_FORMATjjbbP10SampleClip
X5b:__ZNK32RendererMaterialAnimationBinding15GenerateBindingERKN4core12basic_stringIcNS0_20StringStorageDefaultIcEEEEbRN11UnityEngine9Animation14GenericBindingE
i6d:_TargetException__ctor_m4172127019
Mwh:_List_1_CheckCollection_m274117203_gshared
aei:__ZL70EventSystem_t1003666588_CustomAttributesCacheGenerator_m_FirstSelectedP21CustomAttributesCache
j_:__ZN8Remapper23GetOrGenerateInstanceIDERK26SerializedObjectIdentifier
F9c:_ColorTween_get_startColor_m3792586410_AdjustorThunk
Ya:invoke_iiiiiifffiiifii
SHg:__Z85RuntimeInvoker_Void_t1185182177_Int32_t2950945753_Int32_t2950945753_Int32_t2950945753PFvvEPK10MethodInfoPvPS4_
YUd:_CustomInfo__ctor_m426096741
w2c:_EventSystem_ToString_m3779610692
k7a:__ZN6Sprite8TransferI24GenerateTypeTreeTransferEEvRT_
wkc:__Z48Register_UnityEngine_Transform_SetAsFirstSiblingv
w1a:__ZNK18DelayedCallManager22GetTypeVirtualInternalEv
n7a:__ZN7SubMesh8TransferI24GenerateTypeTreeTransferEEvRT_
F8g:_Collection_1_System_Collections_IList_Contains_m296643274_gshared
DLd:_DirectoryInfo__ctor_m126519516
J2d:_MethodBase_GetMethodFromIntPtr_m3014201362
zcc:__ZN9Transform23SetSiblingIndexInternalEib
VBd:_Enumerator_MoveNext_m635366482
snd:_X509Extension_Equals_m1222951829
Au:__ZN7mecanim5human12HumanPoseSubERNS0_9HumanPoseERKS1_S4_
msj:__ZN6il2cpp8metadata15GenericMetadata15GetGenericClassEiPK17Il2CppGenericInst
Job:__Z18Transfer_BlittableI14SafeBinaryReadLb0E10Matrix4x4fEvRK29SerializationCommandArgumentsR31RuntimeSerializationCommandInfo
iEb:__Z24GetFixedBehaviourManagerv
j6i:__ZN6il2cpp2vm10ThreadPool4WaitEP17Il2CppAsyncResultPPv
a4e:_Text_UpdateGeometry_m3634850647
zyi:_X509Crl_VerifySignature_m1377612461
wJj:_vfprintf
onc:__ZN10GUIManager12AddGUIScriptER8ListNodeI13MonoBehaviourE
iCd:_Stack_Clear_m2010200235
tzc:_cf2_getVStore
m4c:_PointerEventData_set_pointerPressRaycast_m1363193059
gOb:__ZN20DynamicPropertySheetD0Ev
y8d:_SafeHandle_Dispose_m4229010569
w_b:__ZN14SafeBinaryRead17RegisterConverterEPKcS1_PFbPvRS_E
l6h:__ZL77RuntimePlatform_t4159857903_CustomAttributesCacheGenerator_OSXDashboardPlayerP21CustomAttributesCache
u8:__ZN35RegisterRuntimeInitializeAndCleanup8RegisterEPFvPvES2_iS0_
dwi:_SubjectAltNameExtension_get_IPAddresses_m1641002124
P_d:_FieldBuilder_SetValue_m828035213
LUf:_Array_InternalArray__Insert_TisSingle_t1397266774_m3161726127_gshared
Akc:__Z21Object_CUSTOM_DestroyP12Il2CppObjectf
noa:__ZN8Material26ResetAllCachedMaterialDataEP6Shader
NOg:__Z63RuntimeInvoker_Void_t1185182177_RuntimeObject_Int16_t2552820387PFvvEPK10MethodInfoPvPS4_
XHc:_UNITY_TT_Get_MM_Var
Xue:_ObjectManager_AddFixup_m2154325362
CIe:_Comparer_1__cctor_m3761458313_gshared
LAf:_DateTimeOffset_CompareTo_m1350732322_AdjustorThunk
aa:invoke_diddi
WPc:__ZNK2UI6Canvas13GetRenderModeEv
Ypg:_PersistentCall__ctor_m1217622171
OPf:_Array_compare_TisCustomAttributeTypedArgument_t2723150157_m1384644047_gshared
ybf:_StrongName_get_TokenAlgorithm_m1794722022
Unb:__Z18Transfer_BlittableI14SafeBinaryReadLb0EiEvRK29SerializationCommandArgumentsR31RuntimeSerializationCommandInfo
X4i:__ZN6il2cpp2vm13MetadataCache30GetPropertyDefinitionFromIndexEi
oIi:_SymmetricTransform_Transform_m1683494363
IYc:__ZN22BaseUnityConnectClient17InitializeSessionERKN4core12basic_stringIcNS0_20StringStorageDefaultIcEEEES6_N19CloudServiceHandler13InitModeFlagsE
cMh:__ZL56KeyCollection_t4251528776_CustomAttributesCacheGeneratorP21CustomAttributesCache
FUg:__Z74RuntimeInvoker_RuntimeObject_Int32_t2950945753_RuntimeObject_RuntimeObjectPFvvEPK10MethodInfoPvPS4_
ACh:_List_1_get_Item_m200663048_gshared
jUj:_emscripten_glDeleteBuffers__wrapper
bec:__ZN13MonoBehaviour34StopCoroutineFromEnumeratorManagedE18ScriptingObjectPtr
ACg:_Vector3__ctor_m1719387948_AdjustorThunk
Pwc:__ZN11UnityEngine9Analytics18SceneLoadTimeEvent12SetSceneLoadERKN4core12basic_stringIcNS2_20StringStorageDefaultIcEEEEiyyyy
jgb:__ZN30RuntimeInitializeOnLoadManager8TransferI18StreamedBinaryReadILb0EEEEvRT_
Xzf:_DateTimeOffset__ctor_m2084804982
kEc:_UNITY_tt_face_load_pclt
xdc:__ZL34GetComponentsImplementationRecurseILb1ELi0ELi2EEbR10GameObjectbRK17CompareParametersRK39GetComponentsImplementation_ReturnValue
psg:_Material_GetTexture_m3545614349
EFg:__Z64RuntimeInvoker_RuntimeObject_Int32_t2950945753_Int16_t2552820387PFvvEPK10MethodInfoPvPS4_
Pdg:_EqualityComparer_1__cctor_m4244842342_gshared
DNb:__ZNK6Camera18WorldToScreenPointERK8Vector3fPb
yzg:_SendMouseEvents_DoSendMouseEvents_m2140870850
MTc:__ZN14UnityAnalyticsD0Ev
lAi:_PatternCompiler_EmitJump_m3915926156
QCa:__Z18IsCompressedFormat14GraphicsFormat
Vu:__ZN7mecanim9animation19AdjustPoseForMotionERKNS0_14AvatarConstantERKNS0_14SkeletonTQSMapERKN4math4trsXERNS_10ValueArrayERNS_8skeleton13SkeletonPoseTIS8_EESG_
o0f:__Z33il2cpp_codegen_check_add_overflowxx
lZ:__ZNSt3__227__insertion_sort_incompleteIRPFbRKN18AwakeFromLoadQueue4ItemES4_EPS2_EEbT0_S9_T_
t6h:__ZL73RuntimePlatform_t4159857903_CustomAttributesCacheGenerator_MetroPlayerARMP21CustomAttributesCache
WKd:_InvalidOperationException__ctor_m1685032583
X2i:__ZN14dense_hash_mapI10KeyWrapperIN6il2cpp5utils13dynamic_arrayIPK10Il2CppTypeLj4EEEEPFvvENS1_8metadata19Il2CppSignatureHashENS8_14EqualsComparerINSB_22Il2CppSignatureCompareEEENSt3__29allocatorINSG_4pairIKS8_SA_EEEEE15set_deleted_keyERSJ_
W0f:_TimeSpan_op_Subtraction_m3592306516
Nfg:_EqualityComparer_1_System_Collections_IEqualityComparer_GetHashCode_m1517903420_gshared
M4a:__ZN26EnlightenSystemInformation8TransferI14SafeBinaryReadEEvRT_
ofb:__ZN24GenerateTypeTreeTransfer8TransferINSt3__26vectorIN15ResourceManager10DependencyE13stl_allocatorIS4_L18MemLabelIdentifier52ELi16EEEEEEvRT_PKc17TransferMetaFlags
lWi:_CanvasRenderer_SplitUIVertexStreams_m2753637362
iWg:__Z119RuntimeInvoker_Void_t1185182177_RuntimeObject_Single_t1397266774_Single_t1397266774_SByte_t1669577662_Int32_t2950945753PFvvEPK10MethodInfoPvPS4_
_Zc:__ZN11UnityEngine15PlatformWrapper20SetPlayerPrefsUInt64ERKN4core12basic_stringIcNS1_20StringStorageDefaultIcEEEEy
Bbb:__ZN12MeshRendererD0Ev
MP:__ZN12AudioManager35GetCurrentSpatializerDefinitionNameEv
HYi:_CustomEventData_InternalDestroy_m2184675245
Ch:_utime
FCi:_BalancingGroup_Compile_m2575117193
MB:__Z28SetExposedSkeletonTransformsRKN7mecanim9animation14AvatarConstantERKN11UnityEngine9Animation30AnimatorGenericBindingConstantERKNS_8skeleton13SkeletonPoseTIN4math4trsXEEERKNSA_INSB_7affineXEEERNS5_21AvatarBindingConstantEy
maj:__ZNSt3__26vectorIN6il2cpp2vm17TypeNameParseInfoENS_9allocatorIS3_EEE8allocateEj
gzi:_Mark_get_Index_m3048692661_AdjustorThunk
tn:FUNCTION_TABLE_viiiiif
cIe:_DefaultComparer_Compare_m3931992727_gshared
yn:FUNCTION_TABLE_viiiiii
XGe:_InternalEnumerator_1_System_Collections_IEnumerator_get_Current_m1847780851_AdjustorThunk
eHi:_GUILayoutUtility_get_spaceStyle_m3392862907
KId:_Int32_System_IConvertible_ToType_m3009233912_AdjustorThunk
Yzf:_DateTimeOffset__ctor_m74032857
mD:__ZN7mecanim9animation22DestroyAvatarWorkspaceEPNS0_15AvatarWorkspaceERNS_6memory9AllocatorE
P1f:_Type_type_is_assignable_from_m76737532
DUb:__ZN15LightmapSTCacheC2ER13BatchRendererR15RenderLoopStats
p1a:__ZN14PlayableOutput17SetSourcePlayableEP8Playable
CC:__ZN7mecanim9animation29MotionOutputGetDeltaTransformEPKNS0_12MotionOutputE
Sih:_ReadOnlyCollection_1_System_Collections_Generic_ICollectionU3CTU3E_Add_m2369252587_gshared
Owc:__ZN27PerformanceReportingManager21OnSceneTimingCallbackERK15SceneLoadTimingRKN4core12basic_stringIcNS3_20StringStorageDefaultIcEEEE
Vjc:__Z43Transform_CUSTOM_INTERNAL_get_localRotationP12Il2CppObjectP11Quaternionf
TIf:_CultureInfo_get_Parent_m672689885
pEj:__ZN6il2cpp6icalls8mscorlib6System10Reflection4Emit13ModuleBuilder13RegisterTokenEP29Il2CppReflectionModuleBuilderP12Il2CppObjecti
oSj:_glGetShaderInfoLog__wrapper
Gue:_ObjectReader_ReadObjectGraph_m340866276
fi:_emscripten_glGetTexParameteriv
XVc:__ZN11UnityEngine7Connect15DeviceInfoEvent7GFXInfoD2Ev
MTj:_glGenTextures__wrapper
fja:__ZN9ShaderLab20SerializedSubProgram14ConstantBufferaSERKS1_
F2b:__Z13RegisterClassI4MeshEvv
C9h:__ZL74SharedBetweenAnimatorsAttribute_t2857104338_CustomAttributesCacheGeneratorP21CustomAttributesCache
O_a:__ZN8PlayableD0Ev
zg:emscriptenWebGLGetBufferBinding
aI:__ZN12AudioManager8TransferI19StreamedBinaryWriteILb0EEEEvRT_
w2e:_Slider_UpdateCachedReferences_m3259451627
ake:_SslStreamBase_get_KeyExchangeStrength_m217695965
hNg:__Z50RuntimeInvoker_Double_t594665363_Double_t594665363PFvvEPK10MethodInfoPvPS4_
Qzb:__ZN18StreamedBinaryReadILb1EE21TransferSTLStyleArrayI13dynamic_arrayI11ColorRGBA32Lj4EEEEvRT_17TransferMetaFlags
_kj:__ZN15dense_hashtableINSt3__24pairIK10KeyWrapperINS1_IP11Il2CppClassjEEES4_EES6_N6il2cpp8metadata14ArrayClassHashEN14dense_hash_mapIS6_S4_SB_NS6_14EqualsComparerINSA_17ArrayClassCompareEEENS0_9allocatorIS8_EEE9SelectKeyESF_SH_E6insertERKS8_
ecd:_U3CShowU3Ec__AnonStorey1_U3CU3Em__0_m2340880019
xwf:_ASCIIEncoding_GetString_m58523364
svi:_TlsStream_Flush_m3793197834
wlb:__ZN22LocalFileSystemHandler9MakeLocalER13FileEntryDatab
Nzj:__ZN6il2cpp2vm8Profiler10AllocationEP12Il2CppObjectP11Il2CppClass
shi:__ZL61Graphic_t1660335611_CustomAttributesCacheGenerator_m_MaterialP21CustomAttributesCache
sMc:__ZNSt3__23mapIN20TextRenderingPrivate7FontRefENS1_6OSFontENS_4lessIS2_EENS_9allocatorINS_4pairIKS2_S3_EEEEEixERS8_
uga:__Z13FormatOrderedPKcz
K7i:__ZN6il2cpp2vm8basepathEPKc
jif:_X509Chain_GetAuthorityKeyIdentifier_m614536199
SJc:__ZN14SafeBinaryRead21TransferSTLStyleArrayI10vector_mapINSt3__24pairIttEEfN20TextRenderingPrivate8FontImpl14KerningCompareENS2_9allocatorINS3_IS4_fEEEEEEEvRT_17TransferMetaFlags
tfe:_TlsServerFinished__ctor_m1445633918
fHd:_NumberFormatter_FastIntegerToString_m390846811
u6h:__ZL68RuntimePlatform_t4159857903_CustomAttributesCacheGenerator_WP8PlayerP21CustomAttributesCache
oUb:__ZN25DeferredRenderLoopScratchD0Ev
Yw:__ZN27AnimationLayerMixerPlayable14SetInputWeightEif
R3c:_PhysicsRaycaster_Raycast_m776323695
VBg:_UnityException__ctor_m1456865679
wu:__ZN7mecanim9animation17EvaluateHumanPoseERKNS0_18ClipMuscleConstantERKNS0_15ClipMuscleInputEPKfRKNS0_12MotionOutputERNS_5human9HumanPoseE
pia:__ZN15dense_hashtableINSt3__24pairIKiN4core17string_with_labelILi1EEEEEi18SInt32HashFunctionN14dense_hash_mapIiS5_S7_NS0_8equal_toIiEE13stl_allocatorIS6_L18MemLabelIdentifier1ELi16EEE9SelectKeyESA_SD_E9copy_fromERKSG_j
HXd:_CustomAttributeNamedArgument_GetHashCode_m2317130892
Leb:__ZN15ResourceManagerD0Ev
ite:_WellKnownClientTypeEntry_ToString_m1119458503
D4:__ZN22CreateGpuProgramOutputD2Ev
EBh:_List_1_get_Item_m1378751541_gshared
$nf:_SHA1CryptoServiceProvider_Finalize_m1793183797
uhg:_HashSet_1_System_Collections_Generic_ICollectionU3CTU3E_CopyTo_m408073502_gshared
uP:__ZN14AudioBehaviourC2E10MemLabelId18ObjectCreationMode
Hkb:__ZN12HandlerChain4OpenER13FileEntryData14FilePermission16FileAutoBehavior
k0g:__Z72RuntimeInvoker_Void_t1185182177_Int32_t2950945753_RaycastHit_t1056001966PFvvEPK10MethodInfoPvPS4_
Ucj:__ZN15dense_hashtableINSt3__24pairIK10KeyWrapperINS1_IPK10MethodInfoP11Il2CppClassEEEjEES9_17ReflectionMapHashIS8_EN14dense_hash_mapIS9_jSD_NS9_14EqualsComparerINS0_8equal_toIS8_EEEENS0_9allocatorISB_EEE9SelectKeyESI_SK_E6insertERKSB_
_wc:__ZN27PerformanceReportingManager29OnSceneLoadedAfterAwakeStaticEPS_iR18AwakeFromLoadQueueN19RuntimeSceneManager11LoadingModeE
qZf:_UTF8Encoding_GetCharCount_m2272165989
Aqd:_Array_SetValue_m394135409
h1:__ZN14FileCacherReadD2Ev
Jhb:__ZN13RendererScene23UpdatePreviousFrameDataEii
ovf:_String_Remove_m562998446
Tfc:__Z50Register_UnityEngine_CullingGroup_FinalizerFailurev
Oqf:_SecurityPermission_IsSubsetOf_m545000671
rib:__ZN27UnloadUnusedAssetsOperationD0Ev
KPb:__ZN28LightProbeProxyVolumeContextC2E10MemLabelId
gMj:__ZNKSt3__221__basic_string_commonILb1EE20__throw_out_of_rangeEv
vog:_Cursor_get_lockState_m2828192107
X8i:_UpdatedEventHandler_Invoke_m1320302085
PF:__ZN9AudioClip23VirtualRedirectTransferER18StreamedBinaryReadILb0EE
$Bh:_List_1_AddEnumerable_m2724989594_gshared
dVg:__Z82RuntimeInvoker_Vector2_t2156229523_Vector2_t2156229523_RuntimeObject_RuntimeObjectPFvvEPK10MethodInfoPvPS4_
xHa:__ZN18GlslGpuProgramGLESC2ERK13dynamic_arrayIhLj1EER22CreateGpuProgramOutput
Blc:__Z70Register_UnityEngine_Playables_PlayableHandle_GetPlayableType_Injectedv
RK:__ZN5audio5mixer22UpdateAudioMixerMemoryERKNS0_18AudioMixerConstantERNS0_16AudioMixerMemoryEfPN4FMOD6SystemEf
Hj:_glCopyTexSubImage2D
_Bg:_UnitySynchronizationContext_ExecuteTasks_m1310741010
Hmf:_RIPEMD160Managed_CompressFinal_m497690796
MZb:__ZN18ScreenManagerWebGL13SetShowCursorEb
JJb:__ZN13DrawImmediateC2ER9GfxDevice
HJj:_frexp
Fob:__Z18Transfer_BlittableI14SafeBinaryReadLb0E5RectTIfEEvRK29SerializationCommandArgumentsR31RuntimeSerializationCommandInfo
fKd:_NumberFormatter_NumberToString_m2562899600
XCc:_otv_u_C_x_Ox
nua:__ZN14GfxContextGLES14GetFramebufferEv
AUj:_emscripten_glGenVertexArrays__wrapper
a6f:_Version_Clone_m1749041863
Yya:__ZN6prcoreL21CreateRemapAnyBlitterE13TextureFormatS0_
yce:_RSAManaged_ExportParameters_m1754454264
Dbc:__ZN17AnimationCurveTplIfE16StripInvalidKeysEv
ttd:_Boolean_Equals_m535526264_AdjustorThunk
bQc:__ZNK2UI6Canvas17GetSortingLayerIDEv
jjj:_il2cpp_method_has_attribute
x2b:__Z13RegisterClassI17GlobalGameManagerEvv
v6:__ZN8Renderer24SetupNewRendererForSceneEv
K1f:_Type_internal_from_name_m1721940673
TGf:_Environment_get_TickCount_m2088073110
dqe:_RemotingServices_GetMethodBaseFromName_m3194612939
Wtc:__Z35Transfer_Blittable_FixedBufferFieldI8JSONReadtEvRK29SerializationCommandArgumentsR31RuntimeSerializationCommandInfo
M8b:__ZN14PlayableOutput6HandleEv
J6a:__ZNK6Sprite22GetTypeVirtualInternalEv
o0c:__ZN13RuntimeStaticINSt3__26vectorI23UnityVRDeviceDefinition13stl_allocatorIS2_L18MemLabelIdentifier90ELi16EEEELb0EE13StaticDestroyEPv
sn:FUNCTION_TABLE_iiiiiiiiiiiiii
ODc:_UNITY_tt_get_cmap_info
rvb:__Z29Transfer_Blittable_ArrayFieldI24GenerateTypeTreeTransfer5RectTIiEEvRT_R9ArrayInfoRK23StaticTransferFieldInfo
RXa:__ZN16ReflectionProbes8ScheduleEN18ReflectionProbeJob7JobTypeEP15ReflectionProbei
xfe:_ClientSessionInfo_KeepAlive_m1020179566
lQc:__ZN13dynamic_arrayIN2UI13UIInstructionELj4EE12emplace_backEv
rMa:__Z18IsDirectoryCreatedRKN4core12basic_stringIcNS_20StringStorageDefaultIcEEEE
Bqf:_String_FormatHelper_m3913915042
aPc:__ZN2UI13CanvasManagerD2Ev
mXd:_ConstructorInfo__cctor_m1016079270
g0i:__ZN15dense_hashtableINSt3__24pairIK10KeyWrapperIPKcEP11Il2CppClassEES5_N6il2cpp5utils11StringUtils12StringHasherIS4_EEN14dense_hash_mapIS5_S8_SE_NS5_14EqualsComparerINSB_13VmStringUtils21CaseSensitiveComparerEEENS0_9allocatorIS9_EEE9SelectKeyESJ_SL_E15set_deleted_keyERKS9_
yod:_AttrListImpl_get_Names_m977594476
VLc:_UNITY_FT_GlyphLoader_Done
a6d:_Pointer_Box_m389276611
HEf:_StackTrace_get_FrameCount_m344690939
oRd:_UnexceptionalStreamWriter_Write_m363195622
qMc:__ZN20TextRenderingPrivate25ReadFontFileAndAddToCacheERKN4core12basic_stringIcNS0_20StringStorageDefaultIcEEEE
PEc:_tt_cmap14_char_var_index
fVe:_Selectable_OnPointerDown_m1086067264
_Ic:_psh_globals_new
ybd:_Dropdown_SetupTemplate_m628218778
JZf:_Thread_GetCompressedStack_m2923422412
jyd:_SynchronizedArrayListWrapper_CopyTo_m4207791406
ygf:_X509BasicConstraintsExtension_ToString_m1809935297
Moa:__ZN9GfxDevice20SetMaxBufferedFramesEi
FSi:_TweenRunner_1_StartTween_m1055628540_gshared
feh:_ReadOnlyCollection_1_System_Collections_IList_Remove_m4129318771_gshared
Nri:_GameObject_GetComponents_TisRuntimeObject_m1246177135_gshared
yOj:dynCall_vdd
_Rd:_MethodAccessException__ctor_m3542088436
R$b:__Z23ConvertIntegerToTypePtrIsEbPvR14SafeBinaryRead
cdg:_EqualityComparer_1_System_Collections_IEqualityComparer_GetHashCode_m2230215241_gshared
Gki:__ZL60ContentSizeFitter_t3850442145_CustomAttributesCacheGeneratorP21CustomAttributesCache
rAd:_Hashtable_Contains_m2145146412
Y0h:__ZL64UnmarshalledAttribute_t1517743549_CustomAttributesCacheGeneratorP21CustomAttributesCache
Jac:__ZN4Mesh24UpdateSubMeshVertexRangeEi
WGd:_Int32_FindCurrency_m3541026887
nmf:_Interval_CompareTo_m3282557545
vWj:_pthread_cond_wait__wrapper
BTb:__ZNK14RenderSettings19GetFlatAmbientColorEv
yya:__ZN6prcoreL10inner_flipILj4EEEvPhS1_j
tdb:__ZN18StreamedBinaryReadILb0EE21TransferSTLStyleArrayI10vector_mapIPKN5Unity4TypeE7Hash128NSt3__24lessIS6_EENS8_9allocatorINS8_4pairIS6_S7_EEEEEEEvRT_17TransferMetaFlags
Vy:__ZNK27StateMachineBehaviourPlayer15IsSenderEnabledEv
Yld:_RijndaelManagedTransform_TransformBlock_m1610137419
rkc:__Z40Register_UnityEngine_Transform_SetParentv
y8a:__ZN14Texture2DArray17UploadToGfxDeviceEv
JJ:__Z14FMODMemoryFreePvjPKc
Rpg:_NetFxCoreExtensions_GetMethodInfo_m444570327
GRb:__Z14SetSHConstantsR13BatchRendererR17ShaderPassContextRK20SphericalHarmonicsL2b
Uud:_Char_System_IConvertible_ToDecimal_m3534906463
_zc:_cf2_glyphpath_moveTo
fAg:_StackTraceUtility_SetProjectFolder_m830524047
wv:__ZN7mecanim23TransformValueArrayLoopEiiiRKN4math4trsXES3_RNS_10ValueArrayEf
Mfe:_ClientSessionInfo_Finalize_m2165787049
jnc:__ZN5IMGUI14GUIWindowStateD2Ev
Jee:_ClientContext_Clear_m1774063253
Vac:__ZN4Mesh17SetIndicesComplexEPKvjj16GfxPrimitiveTypeij
nzf:_DateTime_AddSeconds_m332574389_AdjustorThunk
OBg:_RequestAtlasCallback_Invoke_m378128467
aud:_Byte_System_IConvertible_ToSByte_m1869482168
iLg:__Z99RuntimeInvoker_RuntimeObject_RuntimeObject_RuntimeObject_StreamingContext_t3711869237_RuntimeObjectPFvvEPK10MethodInfoPvPS4_
EJi:_AnalyticsEventTracker_Awake_m2780522130
OB:__ZN7mecanim5human10RetargetToEPKNS0_5HumanEPKNS0_9HumanPoseES6_RKN4math4trsXEPS4_PNS_8skeleton13SkeletonPoseTIS8_EESF_
ov:__ZN7mecanim9animation8SeekClipERKNS0_12StreamedClipERNS0_18StreamedClipMemoryEf
$qg:_GameObject_Internal_AddComponentWithType_m3797731663
nm:_emscripten_glIsTexture
Uk:_emscripten_glHint
IIi:_Check_SourceAndPredicate_m2332465641
xUg:__Z67RuntimeInvoker_Boolean_t97287965_TextGenerationSettings_t1351628751PFvvEPK10MethodInfoPvPS4_
JHc:_ft_var_readpackeddeltas
Srf:_String_op_Inequality_m215368492
vyb:__Z35Transfer_Blittable_FixedBufferFieldI18StreamedBinaryReadILb1EEtEvRK29SerializationCommandArgumentsR31RuntimeSerializationCommandInfo
U3f:_UInt32_System_IConvertible_ToInt64_m2261037378
qm:_SDL_UpperBlit
NXa:__Z35GetTextureDecodeValuesWithIntensity16TextureUsageMode17TextureColorSpace10ColorSpacef
LMf:_Array_InternalArray__ICollection_Remove_TisChar_t3634460470_m4143749387_gshared
XJb:__ZN15dense_hashtableINSt3__24pairIK9TextureIDiEES2_14GfxGenericHashIS2_EN14GfxDoubleCacheIS2_iS6_NS0_8equal_toIS2_EEN31GfxDoubleCacheConcurrencyPolicy11LocklessGetE42GfxDoubleCacheDefaultEmptyDeletedGeneratorIS2_EE9SelectKeyES9_13stl_allocatorIS4_L18MemLabelIdentifier24ELi16EEE14squash_deletedEv
mhj:__ZN15dense_hashtableINSt3__24pairIK10KeyWrapperINS1_IPK9EventInfoP11Il2CppClassEEEjEES9_17ReflectionMapHashIS8_EN14dense_hash_mapIS9_jSD_NS9_14EqualsComparerINS0_8equal_toIS8_EEEENS0_9allocatorISB_EEE9SelectKeyESI_SK_E15set_deleted_keyERKSB_
mWf:_Encoding_GetBytes_m3823106599
Hyf:_GregorianCalendar__ctor_m979779718
$ie:_SslClientStream__ctor_m2402546929
qEb:__ZN14SafeBinaryRead20OverrideRootTypeNameEPKc
Mcf:_DictionaryNodeEnumerator_get_Entry_m2309234501
l1:__ZN14FileCacherRead16UnlockCacheBlockEj
z9:__ZN10InstancingL21OnGraphicsCapsChangedEv
J$f:_WaitHandle_get_Handle_m3260446580
Qkg:_Enumerator_VerifyState_m1745883925_AdjustorThunk
Mc:_emscripten_glUniform1f
oBd:_SortedList__ctor_m1261191695
yMc:__Z20ParseImageParametersR11UTF16StringRiRN20TextRenderingPrivate16TextFormatChangeE
vki:__ZL55CanvasScaler_t2767979955_CustomAttributesCacheGeneratorP21CustomAttributesCache
Rc:_emscripten_glUniform1i
Ptb:__Z18Transfer_BlittableI24GenerateTypeTreeTransferLb1EN4math12int3_storageEEvRK29SerializationCommandArgumentsR31RuntimeSerializationCommandInfo
j9:__Z33UnregisterDeviceEventCallbackImplPFv23UnityGfxDeviceEventTypeE
Z_e:__Z14bankers_roundff
jka:__ZN9ShaderLab16SerializedTagMapaSERKS0_
lS:__ZN11UnityEngine15CloudWebService16SessionContainer20RestoreSessionHeaderERKN4core12basic_stringIcNS2_20StringStorageDefaultIcEEEES8_RNS0_13SessionHeaderE
fGj:__ZN6il2cpp2os12Cryptography23GetCryptographyProviderEv
aD:__ZN11UnityEngine9Animation27CreateAvatarBindingConstantER9TransformPKN7mecanim9animation14AvatarConstantERNS3_6memory9AllocatorE
CQc:__ZN2UI14CanvasRenderer13SyncTransformENS0_8SyncFlagEb
yKg:__Z151RuntimeInvoker_RuntimeObject_Int32_t2950945753_RuntimeObject_ObjectU5BU5DU26_t712384779_RuntimeObject_RuntimeObject_RuntimeObject_ObjectU26_t2146539884PFvvEPK10MethodInfoPvPS4_
pec:__ZN9BlobWriteC2ER13dynamic_arrayIhLj16EE24TransferInstructionFlags19BuildTargetPlatform
i8c:_CanvasUpdateRegistry__ctor_m2005397069
z$:__ZN14MessageHandler3GetEv
y3d:_MonoMethodInfo_GetCallingConvention_m3156036493
AXe:_LayoutGroup_SetLayoutInputForAxis_m2458344630
dd:_emscripten_glAttachShader
Loa:__ZN9GfxDevice13SetActiveTierE12GraphicsTier
_fd:_Image__cctor_m1927508576
Bka:__ZNSt3__26vectorIN4core12basic_stringIcNS1_20StringStorageDefaultIcEEEENS_9allocatorIS5_EEE6assignIPS5_EENS_9enable_ifIXaasr21__is_forward_iteratorIT_EE5valuesr16is_constructibleIS5_NS_15iterator_traitsISC_E9referenceEEE5valueEvE4typeESC_SC_
cGj:__ZN6il2cpp6icalls8mscorlib6System21CurrentSystemTimeZone15GetTimeZoneDataEiPP11Il2CppArrayS6_
mob:__Z18Transfer_BlittableI14SafeBinaryReadLb0E11QuaternionfEvRK29SerializationCommandArgumentsR31RuntimeSerializationCommandInfo
BBb:__Z18Transfer_BlittableI18StreamedBinaryReadILb0EELb1E12PropertyNameEvRK29SerializationCommandArgumentsR31RuntimeSerializationCommandInfo
QW:_tlsf_walk_heap
nKg:__Z49RuntimeInvoker_Void_t1185182177_OpCode_t123070264PFvvEPK10MethodInfoPvPS4_
vFd:_Convert_ToUInt32_m3592050311
kb:invoke_vif
Cri:_Component_GetComponents_TisRuntimeObject_m2416546752_gshared
lb:invoke_vid
yMj:__ZNSt3__212basic_stringIcNS_11char_traitsIcEENS_9allocatorIcEEE6insertEjPKc
nb:invoke_vii
cNb:__ZNK12ImageFilters8DoRenderER17ShaderPassContextP13RenderTextureS3_RKNSt3__26vectorI11ImageFilterNS4_9allocatorIS6_EEEE
Iif:_X509Certificate2Enumerator__ctor_m1083666285
NLg:__Z82RuntimeInvoker_Boolean_t97287965_SByte_t1669577662_RuntimeObject_SByte_t1669577662PFvvEPK10MethodInfoPvPS4_
kpa:__ZN9GfxDevice32UpdateStereoViewProjectionMatrixE21MonoOrStereoscopicEye
bSc:__Z41CanvasRenderer_CUSTOM_DisableRectClippingP12Il2CppObject
jTd:_MonoType_GetConstructorImpl_m441167626
Gad:_DefaultControls_CreateRawImage_m4219873755
rHh:_Collection_1_IsFixedSize_m3709118201_gshared
nPa:__ZN25SingleBlockMemoryFileDataD0Ev
lLa:__ZNSt3__26vectorI14ConstantStringNS_9allocatorIS1_EEE6assignINS_11__wrap_iterIPS1_EEEENS_9enable_ifIXaasr21__is_forward_iteratorIT_EE5valuesr16is_constructibleIS1_NS_15iterator_traitsISA_E9referenceEEE5valueEvE4typeESA_SA_
gS:__ZN11UnityEngine15CloudWebService16SessionContainer21ConvertFromFolderTimeERKN4core12basic_stringIcNS2_20StringStorageDefaultIcEEEEPjPt
pid:_CodeAccessPermission_Equals_m1555575992
Zpb:__ZNSt3__26vectorI8GUIStyle13stl_allocatorIS1_L18MemLabelIdentifier1ELi16EEE7reserveEj
dnj:__ZN6il2cpp6icalls8mscorlib6System9Threading6Thread27GetSerializedCurrentCultureEP12Il2CppThread
hge:_Context_set_ReadSequenceNumber_m2154909392
Tld:_RijndaelTransform_SubByte_m3037693507
h1b:__Z31CalculateHierarchyTransformType23TransformAccessReadOnly
T2b:__Z13RegisterClassI11TimeManagerEvv
AJ:__ZN4FMOD8ChannelI11setPositionEjj
Frg:_Input_INTERNAL_CALL_GetTouch_m3481893561
_Bj:_GC_set_fl_marks
Qfb:__ZNSt3__26vectorIN30RuntimeInitializeOnLoadManager15ClassMethodInfoE13stl_allocatorIS2_L18MemLabelIdentifier13ELi16EEE7reserveEj
npa:__ZN9GfxDevice17SetStereoViewportE15StereoscopicEyeRK5RectTIiE
Rfa:__ZN17BaseObjectManager13StaticDestroyEPv
dLa:__ZNK12TLSAllocatorI14StackAllocatorE24GetBookKeepingMemorySizeEv
YVi:_CanvasRenderer_INTERNAL_CALL_GetColor_m597074473
OIe:_Comparer_1__cctor_m3891417387_gshared
bZf:_UTF7Decoder_GetChars_m3413809261
e_d:_EnumBuilder_GetEvent_m4074915332
Bh:_sysconf
mBg:_Vector3_get_forward_m3100859705
xFf:_Double_Equals_m2309369974_AdjustorThunk
sI:__ZN4FMOD6Reverb13setPropertiesEPK22FMOD_REVERB_PROPERTIES
POb:__ZN9DepthPass13PrepareSubsetEjRK10RenderNodeifRK17ShaderReplaceData
Auf:_String_IndexOf_m3406607758
oja:__ZN9ShaderLab20SerializedSubProgram16TextureParameter8TransferI14SafeBinaryReadEEvRT_
abc:__Z35SetMeshComponentFromArrayFromScriptR4Mesh30InternalScriptingShaderChannel34InternalScriptingVertexChannelTypei17ScriptingArrayPtri
oSf:_Array_InternalArray__ICollection_Add_TisCustomAttributeNamedArgument_t287865710_m4157175270_gshared
lq:__ZN4core20StringStorageDefaultIcE6assignEPKcj
Z4f:_UInt64_System_IConvertible_ToUInt64_m2135047981_AdjustorThunk
D9d:_BigInteger_ModPow_m3776562770
ytj:__ZN15dense_hashtableINSt3__24pairIK10KeyWrapperIP12Il2CppObjectEN6il2cpp2gc9CachedCCWEEES5_NS7_5utils11PointerHashIS3_EEN14dense_hash_mapIS5_S9_SD_NS5_14EqualsComparerINS0_8equal_toIS4_EEEENS0_9allocatorISA_EEE9SelectKeyESI_SK_E3endEv
gie:_RecordProtocol_ProcessChangeCipherSpec_m15839975
wwd:_ArrayList_IndexOf_m305368842
QXb:__ZN6Camera6SetFarEf
Ate:_FormatterConverter_ToBoolean_m1680758923
Oza:__ZN6prcoreL12RemapGenericI17TexFormatABGR888817TexFormatARGB8888EEvPKNS_9InnerInfoE
hQa:__ZN11GameManager17MainThreadCleanupEv
cch:_ReadOnlyCollection_1__ctor_m1345363288_gshared
ITc:__Z50Register_UnityEngine_UISystemProfilerApi_EndSamplev
Jb:invoke_vffff
zue:_SerializationCallbacks_GetSerializationCallbacks_m2939476649
Zzd:_Hashtable__cctor_m4112166779
sGc:_UNITY_tt_slot_init
YKb:__ZZ23InitPlayerLoopCallbacksvEN41PostLateUpdateUpdateResolutionRegistrator7ForwardEv
mDb:__Z25scripting_array_class_get17ScriptingClassPtrj
Yrc:__ZL22Transfer_ManagedObjectI9JSONWriteLb1EEvRK29SerializationCommandArgumentsR31RuntimeSerializationCommandInfo
xF:__ZNK10SampleClip22GetTypeVirtualInternalEv
wqa:__ZN9GfxDevice20DestroyRenderSurfaceER12ObjectHandleI17RenderSurface_TagP17RenderSurfaceBaseE
cCd:_Stack__ctor_m2602729586
CJa:__ZN9GfxDevice22UpdateComputeResourcesEjPK9TextureIDPK16TextureDimensionPKijPKjjPK15ComputeBufferIDS7_PK20ComputeBufferCounterjSC_S2_S5_S9_SF_
a2:__ZN12_GLOBAL__N_15qAsinEff
hze:_InternalEnumerator_1_System_Collections_IEnumerator_get_Current_m2629988057_AdjustorThunk
fLa:__ZN12TLSAllocatorI14StackAllocatorE13ThreadCleanupEv
Hzj:__ZThn4_N6il2cpp2vm13ComObjectBase16MarshalInterfaceEP13Il2CppIStreamRK10Il2CppGuidPvjS7_j
RDd:_Convert_ToDouble_m996590115
_Fb:__Z27FindActiveTransformWithPathPKc
rgh:_ReadOnlyCollection_1_System_Collections_IList_Remove_m4169110229_gshared
y3f:_UInt16_ToString_m3020002356
YXe:_LayoutRebuilder_LayoutComplete_m68578143
SGi:_GUIStyle_get_fixedWidth_m2576616348
EBd:_SortedList_Find_m3363512987
vY:__ZNK6Camera7GetNearEv
W_d:_GenericTypeParameterBuilder_GetConstructorImpl_m863833310
iNe:_Enumerator_get_Current_m3687673883_AdjustorThunk
JCa:__ZN7ApiGLES11UnmapBufferEjN2gl12BufferTargetE
Vzj:__ZN6il2cpp5utilsL24Utf32CharToSurrogatePairEjRA2_Ds
r3a:__Z25GetNextAllowedTextureSizeib13TextureFormat
SFb:__ZN20LocalFileSystemWebGL4CopyER13FileEntryDataS1_
PU:__ZN19CloudServiceHandler6RetainEv
Vch:_ReadOnlyCollection_1_System_Collections_IList_IndexOf_m198887188_gshared
Unc:__Z36Event_CUSTOM_Internal_SetNativeEventPv
tYf:_UTF32Encoding_GetBytes_m3180303867
K3:__ZN12BaseRenderer20FlattenToRenderQueueER15RenderNodeQueueRK20DeprecatedSourceData
Feh:_ReadOnlyCollection_1_System_Collections_IList_Clear_m2007013334_gshared
Gib:__Z34scripting_liveness_calculation_endPv
svj:__ZN6il2cpp2os6ThreadC2Ev
_Af:_DateTimeOffset_get_UtcDateTime_m1021718282_AdjustorThunk
Lu:__ZN21AnimationClipPlayable22ProcessAnimationNoClipEPK35AnimationPlayableEvaluationConstantPK32AnimationPlayableEvaluationInputP33AnimationPlayableEvaluationOutput
icf:_HybridDictionary_get_Count_m1166314536
nvi:_TlsStream_Write_m1412844442
ytc:__Z18Transfer_BlittableI8JSONReadLb0E8Vector3fEvRK29SerializationCommandArgumentsR31RuntimeSerializationCommandInfo
vlj:__ZN6il2cpp2vm6Thread6DetachEP12Il2CppThread
Qvi:_GeneralNames_get_DNSNames_m3788548987
nJc:_Render_Single_Pass
Cxc:__GLOBAL__sub_I_runtime_dynamics_2_cpp
MUi:_Hacker_OnUserInput_m1095014035
gD:__ZN7mecanim8skeleton30SkeletonBuildReverseIndexArrayEPiPKiPKNS0_8SkeletonES6_
Zlc:__Z19GetGUIBlendMaterialv
QRd:_Math_Round_m3018379666
hwj:__ZN6il2cpp2os10ThreadImpl5SleepEjb
Ebh:_ReadOnlyCollection_1_System_Collections_Generic_IListU3CTU3E_set_Item_m519295790_gshared
Xch:_ReadOnlyCollection_1_System_Collections_IList_Remove_m1965826685_gshared
RUc:__ZN11UnityEngine9Analytics15UserCustomEvent3AddEPKcb
aEf:_Delegate_CreateDelegate_m1051651521
SNf:_PlayableHandle_IsPlayableOfType_TisRuntimeObject_m503495943_AdjustorThunk
aUj:_glBindSampler__wrapper
$Pa:__ZNSt3__26vectorIN20ArchiveStorageHeader12StorageBlockE13stl_allocatorIS2_L18MemLabelIdentifier55ELi16EEE8__appendEj
Kf:_emscripten_set_mouseup_callback
Qsg:_Mathf_Clamp_m3350697880
_Lg:__Z165RuntimeInvoker_Void_t1185182177_UInt32U26_t3735378166_Int32_t2950945753_UInt32U26_t3735378166_Int32_t2950945753_Int32_t2950945753_Int32_t2950945753_Int32_t2950945753PFvvEPK10MethodInfoPvPS4_
Dsh:_List_1_System_Collections_IList_Remove_m3140917266_gshared
XAi:_CompositeExpression__ctor_m2434860303
Ajf:_X509ChainElementCollection_System_Collections_IEnumerable_GetEnumerator_m3829089536
QZb:__ZNK18ScreenManagerWebGL8GetWidthEv
uF:__ZN10SampleClipD2Ev
fmh:_Predicate_1_Invoke_m2389850270_gshared
$hb:__Z13GetGISettingsv
zU:__ZN11UnityEngine15CloudWebService20WebRequestRestClientC2Ev
LBc:_cff_cmap_unicode_init
YLf:_Array_InternalArray__ICollection_Contains_TisRuntimeObject_m4067783231_gshared
WFh:_Collection_1_IsValidItem_m3080586124_gshared
K8c:_ClipperRegistry_Register_m2407166513
_Kj:_readlink
Pej:__ZN15dense_hashtableINSt3__24pairIK10KeyWrapperINS1_IPK9EventInfoP11Il2CppClassEEEjEES9_17ReflectionMapHashIS8_EN14dense_hash_mapIS9_jSD_NS9_14EqualsComparerINS0_8equal_toIS8_EEEENS0_9allocatorISB_EEE9SelectKeyESI_SK_E12resize_deltaEjj
t3d:_MonoCMethod_Invoke_m2700167622
VAd:_KeyMarker__cctor_m2590194914
HKe:_Enumerator_Reset_m627751027_AdjustorThunk
acb:__ZNK6Sprite9GetBoundsE8Vector2fbb
xTa:__ZNK19RenderEventsContext21CleanupCommandBuffersEv
lUi:_TextGenerator_PopulateWithErrors_m1222498386
Bfh:_ReadOnlyCollection_1_System_Collections_Generic_ICollectionU3CTU3E_Clear_m2102011098_gshared
qua:__ZN11ContextGLES6CreateEi
_vh:_List_1_set_Capacity_m3382070520_gshared
wWe:_U3CMouseDragOutsideRectU3Ec__Iterator1_Dispose_m267465418
_Cf:_Decimal_CompareTo_m3502307243_AdjustorThunk
pCb:__Z19TransferField_ArrayI18StreamedBinaryReadILb0EE27Converter_SimpleNativeClassI17AnimationCurveTplIfEEEvRK23StaticTransferFieldInfoR31RuntimeSerializationCommandInfoRT0_
IKa:__ZN14StackAllocator16FrameMaintenanceEb
TMa:__Z18ReadStringFromFilePN4core17string_with_labelILi1EEERKNS_12basic_stringIcNS_20StringStorageDefaultIcEEEE
Y_e:_Scrollbar_get_value_m760470106
AY:__ZNK10GameObject20QueryComponentByTypeEPKN5Unity4TypeE
nCf:_Decimal_System_IConvertible_ToInt32_m1488426794_AdjustorThunk
qSd:_MonoCustomAttrs_IsUserCattrProvider_m2878058089
_hi:__ZL71InputField_t3762917431_CustomAttributesCacheGenerator_m_HideMobileInputP21CustomAttributesCache
D2a:__ZN11TextureData5ResetEv
Agc:__Z53Register_UnityEngine_GameObject_get_activeInHierarchyv
Npf:_ToBase64Transform_InternalTransformFinalBlock_m360524956
Fod:_ActivationContext_Dispose_m2038725770
R_:__ZL30InitializeCoreScriptingClassesv
Hg:_glBlitFramebuffer
Mrb:__Z35Transfer_Blittable_SingleValueFieldI14SafeBinaryReadhEvRT_R17GeneralMonoObjectRK23StaticTransferFieldInfo
M9b:__ZN12CachedWriter15CompleteWritingEv
I1a:__ZNK12CubemapArray22GetTypeVirtualInternalEv
Qn:FUNCTION_TABLE_vif
Rn:FUNCTION_TABLE_vid
Tn:FUNCTION_TABLE_vii
Rib:__Z40scripting_liveness_calculation_from_root18ScriptingObjectPtrPv
F_a:__ZN7Texture23VirtualRedirectTransferER24GenerateTypeTreeTransfer
oLc:_UNITY_FT_Set_Transform
Bsj:__ZN6il2cpp8metadata15GenericMetadata20RegisterGenericClassEP18Il2CppGenericClass
FTj:_glDeleteFramebuffers__wrapper
vIg:__Z220RuntimeInvoker_Boolean_t97287965_RuntimeObject_Int32U26_t1369213839_Int32_t2950945753_Int32_t2950945753_Int32_t2950945753_RuntimeObject_SByte_t1669577662_Int32_t2950945753_ContractionU26_t961830454_ContextU26_t3937453398PFvvEPK10MethodInfoPvPS4_
Tzc:_cff_blend_build_vector
Cff:_WebHeaderCollection_ToString_m1263025316
t6b:__ZZN12MeshRenderer15InitializeClassEvEN29FunctorImpl_134kDidDeleteMesh4CallEPviR11MessageData
B5d:_GetterAdapter_Invoke_m3767885970
$wh:_List_1__ctor_m747758800_gshared
Zvf:_String_CreateString_m2818852475
O4a:__ZN28EnlightenRendererInformation8TransferI14SafeBinaryReadEEvRT_
uWi:_CanvasRenderer_get_hasMoved_m2236392341
xug:_MessageEvent__ctor_m1231650089
Dha:__ZNK15Lz4Decompressor16DecompressMemoryEPKvPjPvS2_
$Sa:__Z11IsCoroutine18ScriptingMethodPtrRK22CommonScriptingClasses
V1b:__ZN4core8hash_mapINS_12basic_stringIcNS_20StringStorageDefaultIcEEEE10vector_setI4PPtrI11SpriteAtlasENSt3__24lessIS8_EE13stl_allocatorIS8_L18MemLabelIdentifier81ELi16EEENS_4hashIS4_EENS9_8equal_toIS4_EEEixERKS4_
xh:_glGetAttribLocation
F0a:__Z35UnityPropertySheet_MakeSortedColorsRKNSt3__23mapIN9ShaderLab16FastPropertyNameE10ColorRGBAfNS_4lessIS2_EENS_9allocatorINS_4pairIKS2_S3_EEEEEER10vector_mapIS2_S3_S5_NS6_INS7_IS2_S3_EEEEE
eEc:_UNITY_tt_face_load_os2
erb:__Z29Transfer_Blittable_ArrayFieldI14SafeBinaryRead8Vector4fEvRT_R9ArrayInfoRK23StaticTransferFieldInfo
$Wd:_Default_check_arguments_m3882727959
vZf:_UTF8Encoding_GetMaxCharCount_m3762459613
kYd:_ModuleBuilder_RegisterToken_m4166846047
PKb:__ZZ23InitPlayerLoopCallbacksvEN51PostLateUpdateUpdateCustomRenderTexturesRegistrator7ForwardEv
f_e:_RawImage_OnPopulateMesh_m1115858855
e5i:__ZN6il2cpp2vm13MetadataCache25GetStringLiteralFromIndexEi
fpd:_Hashtable_ToPrime_m33531354
hv:__ZN7mecanim9animation12EvaluateClipEPKNS0_4ClipEPKNS0_9ClipInputEPNS0_10ClipMemoryEPNS0_10ClipOutputE
j9g:_Collection_1_IsSynchronized_m1117613618_gshared
bOe:_KeyCollection_System_Collections_Generic_ICollectionU3CTKeyU3E_Remove_m2555909644_gshared
D2f:_TypeInitializationException__ctor_m3546444694
Fcc:__ZNK9Transform16GetLocalRotationEv
ZT:__ZN11UnityEngine15CloudWebService23WebRequestUploadHandler17ConsumeUploadDataEj
DWg:__Z68RuntimeInvoker_Void_t1185182177_Single_t1397266774_SByte_t1669577662PFvvEPK10MethodInfoPvPS4_
nOd:_MemoryStream_set_Position_m3169779190
IWb:__ZN13RenderManager29SetCurrentCameraAndStackStateEP6CameraP25CameraStackRenderingState
v3c:_ExecuteEvents_get_scrollHandler_m2659345019
WRa:__ZNSt3__26__treeINS_12__value_typeIjN4core12basic_stringIcNS2_20StringStorageDefaultIcEEEEEENS_19__map_value_compareIjS7_NS_4lessIjEELb1EEE13stl_allocatorIS7_L18MemLabelIdentifier7ELi16EEE7destroyEPNS_11__tree_nodeIS7_PvEE
glj:__ZN15dense_hashtableINSt3__24pairIK10KeyWrapperINS1_IP11Il2CppClassjEEES4_EES6_N6il2cpp8metadata14ArrayClassHashEN14dense_hash_mapIS6_S4_SB_NS6_14EqualsComparerINSA_17ArrayClassCompareEEENS0_9allocatorIS8_EEE9SelectKeyESF_SH_E12resize_deltaEjj
Wh:_JS_WebRequest_Release
GS:__ZN11UnityEngine15CloudWebService14DataErrorEventD0Ev
Xoj:__ZN6il2cpp6icalls8mscorlib6System4Type20internal_from_handleEi
gne:_Context__ctor_m254302079
xsj:__ZN6il2cpp8metadata15GenericMetadata7InflateEPK19Il2CppGenericMethodPK20Il2CppGenericContext
d4a:__ZN19ShaderPropertySheet16SetArrayPropertyEN9ShaderLab16FastPropertyNameENS_12PropertyTypeEPKvj
G$e:_Selectable_FindSelectable_m2348614027
gcd:_DropdownItem_OnPointerEnter_m1492957598
QOc:__ZN2UI11CanvasGroup23VirtualRedirectTransferER19StreamedBinaryWriteILb0EE
rnc:__ZN8GUIState8EndOnGUIEv
zGc:_UNITY_TT_Get_VMetrics
Mxd:_SimpleEnumerator__cctor_m2844299657
DRd:_LocalDataStoreSlot__ctor_m4104083971
Kgh:_ReadOnlyCollection_1_System_Collections_Generic_IListU3CTU3E_RemoveAt_m3849058645_gshared
JMi:_AudioSource_ReadExtensionName_m725112169
Qxi:_X509CertificateEnumerator_System_Collections_IEnumerator_Reset_m2039524926
hPg:__Z128RuntimeInvoker_Void_t1185182177_RuntimeObject_BooleanU26_t4125257963_SByte_t1669577662_Int32U26_t1369213839_Int32U26_t1369213839PFvvEPK10MethodInfoPvPS4_
hxa:__ZN7Texture21GetMasterTextureLimitEv
xYb:__Z12CanAddScriptR10GameObject17ScriptingClassPtrPS1_S2_
Phj:__ZN6il2cpp2vm10Reflection12HasAttributeEP12Il2CppObjectP11Il2CppClass
Hjh:_Comparison_1_BeginInvoke_m3263247262_gshared
V9:__ZN9ShaderLabL25StaticInitializeShaderLabEPv
U:Math_max
pij:_il2cpp_class_get_methods
Hzg:_HitInfo_SendMessage_m1343099429_AdjustorThunk
Stb:__Z18Transfer_BlittableI24GenerateTypeTreeTransferLb0EN4math12int2_storageEEvRK29SerializationCommandArgumentsR31RuntimeSerializationCommandInfo
GEf:_StackTrace_get_trace_m1194606084
ztf:_Single_CompareTo_m2785801815_AdjustorThunk
Avj:__ZN6il2cpp2os6Thread16GetCurrentThreadEv
aVf:_Array_InternalArray__Insert_TisUILineInfo_t4195266810_m3191124053_gshared
S7b:__ZN10GameObject13ComponentPair15SetComponentPtrEPN5Unity9ComponentE
ZRj:_glBlitFramebuffer__wrapper
G2b:__Z13RegisterClassI10MeshFilterEvv
aSa:__ZN10TagManager8TransferI19StreamedBinaryWriteILb0EEEEvRT_
kib:__ZN11PreloadData23VirtualRedirectTransferER18StreamedBinaryReadILb0EE
Pvg:_PropertyNameUtils_PropertyNameFromString_Injected_m1259736140
Sud:_Char_System_IConvertible_ToDateTime_m3564102661
H6a:__ZN6Sprite17MainThreadCleanupEv
fSj:_glBlendFuncSeparate__wrapper
fL:__ZN10AudioMixer14UpdateMuteSoloEv
nRa:__ZN9Transform35SetLocalPositionWithoutNotificationERKN4math7_float3Ey
QOg:__Z69RuntimeInvoker_UInt64_t4134040092_Int32_t2950945753_SByte_t1669577662PFvvEPK10MethodInfoPvPS4_
Xi:_JS_Eval_ClearTimeout
H_e:_Raycast2DCallback_Invoke_m1500574149
TBa:__ZN7ApiGLES16SetPatchVerticesEi
$Ci:_CharacterClass_Compile_m3296067317
rxj:__ZN6il2cpp2gc16GarbageCollector16InvokeFinalizersEv
$td:_Byte_System_IConvertible_ToInt64_m285584218_AdjustorThunk
ixg:_Rect_get_size_m477575021_AdjustorThunk
DZi:__ZN6il2cpp2vm5Class20FromGenericParameterEPK22Il2CppGenericParameter
mV:__ZN19CloudServiceHandler11FlushEventsEv
hfa:__ZN15GlobalCallbacksC2Ev
qSf:_Array_InternalArray__ICollection_Add_TisLabelData_t360167391_m1648183135_gshared
JJe:_Comparer_1_System_Collections_IComparer_Compare_m2016223770_gshared
fOg:__Z74RuntimeInvoker_DateTime_t3738529785_DateTime_t3738529785_Int32_t2950945753PFvvEPK10MethodInfoPvPS4_
DMc:_UNITY_FT_New_Memory_Face
L5g:_Collection_1_System_Collections_IList_IndexOf_m3271188411_gshared
HKc:__ZN20TextRenderingPrivate21TextMeshGeneratorImpl5FlushEv
$Nd:_MonoIO_GetFileStat_m678141354
vCc:_UNITY_FT_Load_Sfnt_Table
Mad:__Z15CastclassSealedP12Il2CppObjectP11Il2CppClass
PCf:_Decimal_IsZero_m4250358244_AdjustorThunk
pRd:_UnmanagedMemoryStream_get_CanRead_m3770815400
pXb:__ZN16ReflectionProbes40UpdateRealtimeReflectionProbesTimeslicedEv
FCf:_Decimal_u64_m3374804932
W2f:_UInt16_System_IConvertible_ToInt32_m1950778303_AdjustorThunk
zfb:__ZNK30RuntimeInitializeOnLoadManager22GetTypeVirtualInternalEv
p2i:__ZN15dense_hashtableINSt3__24pairIK10KeyWrapperIN6il2cpp5utils13dynamic_arrayIPK10Il2CppTypeLj4EEEEPFvvEEESA_NS3_8metadata19Il2CppSignatureHashEN14dense_hash_mapISA_SD_SG_NSA_14EqualsComparerINSF_22Il2CppSignatureCompareEEENS0_9allocatorISE_EEE9SelectKeyESK_SM_E12resize_deltaEjj
B5b:__ZN16ReflectionProbes15InitializeClassEv
Ceh:_ReadOnlyCollection_1_System_Collections_ICollection_CopyTo_m2527663815_gshared
bri:_Dictionary_2_Do_ICollectionCopyTo_TisKeyValuePair_2_t3699644050_m4159638770_gshared
wqj:__ZN6il2cpp2vm5Image9GetCorlibEv
SCg:_Vector3_get_left_m2428419009
kA:__ZN8Animator13BatchedFKPassERK13dynamic_arrayIP14PlayableOutputLj4EE
PCj:_GC_reclaim_uninit
i3c:_ExecuteEvents_Execute_m113814934
Eba:__ZN13RuntimeStaticINSt3__23mapIN4core12basic_stringIcNS2_20StringStorageDefaultIcEEEES6_NS0_4lessIS6_EE13stl_allocatorINS0_4pairIKS6_S6_EEL18MemLabelIdentifier13ELi16EEEELb0EE13StaticDestroyEPv
yoi:_Array_qsort_TisColor32_t2600501292_m1362211604_gshared
QJe:_Enumerator_System_Collections_IEnumerator_get_Current_m2979767597_AdjustorThunk
old:_MD5CryptoServiceProvider_ProcessFinalBlock_m2241588515
Q0e:_ScrollRect_GetBounds_m449872505
Wj:_glIsVertexArray
Qnd:_SmallXmlParser_Read_m3485223434
LGd:_Int16_Parse_m2276856944
ea:invoke_fff
PKj:_mbsinit
MQj:b14
$Nc:__ZN2UI6Canvas17MainThreadCleanupEv
wza:__ZN6prcoreL12RemapGenericI17TexFormatARGB155517TexFormatRGBA8888EEvPKNS_9InnerInfoE
B$i:__ZN13Il2CppHashMapIPK19Il2CppGenericMethodPK26Il2CppGenericMethodIndicesN6il2cpp8metadata23Il2CppGenericMethodHashENS7_26Il2CppGenericMethodCompareENSt3__29allocatorINSA_4pairIK10KeyWrapperIS2_ES5_EEEEEC2EjRKS8_RKS9_
Q1d:_TypeBuilder_HasElementTypeImpl_m1871001960
Esf:_SecurityFrame__ctor_m2140076703_AdjustorThunk
Acg:_DefaultComparer_Equals_m2458578172_gshared
vDa:__ZN7ApiGLES13CreateProgramEv
PKe:_Enumerator_VerifyState_m4003066746_gshared
wxa:__ZN4crnd12crn_unpackerD2Ev
hk:_emscripten_glTexImage2D
DIe:_Comparer_1_System_Collections_IComparer_Compare_m2537217645_gshared
F_:__ZN18ScriptingArguments9AddStringEPKc
hDj:_setup_header
Rvd:_Char_ToString_m3588025615
V8e:_CryptoConvert_ToCapiKeyBlob_m3371450375
Eya:__ZL23stbir__resize_arbitraryPvPKviiiS_iiiffffPfiij14stbir_datatype12stbir_filterS4_10stbir_edgeS5_16stbir_colorspace
kub:__Z18Transfer_BlittableI24GenerateTypeTreeTransferLb1E8Vector4fEvRK29SerializationCommandArgumentsR31RuntimeSerializationCommandInfo
QQj:b18
sk:_pthread_detach
v5i:__ZN6il2cpp2vm19SocketPollingThread7RunLoopEv
Ocd:_FontUpdateTracker_UntrackText_m1981515690
hmi:__ZL64AnalyticsEventTracker_t2285229262_CustomAttributesCacheGeneratorP21CustomAttributesCache
u8b:__ZN15DirectorManager20ScheduleGraphDestroyERK14HPlayableGraph
cDb:__ZNSt3__213__stable_sortIRN10vector_mapI17ScriptingClassPtrPKN5Unity4TypeENS_4lessIS2_EENS_9allocatorINS_4pairIS2_S6_EEEEE13value_compareENS_11__wrap_iterIPSB_EEEEvT0_SJ_T_NS_15iterator_traitsISJ_E15difference_typeEPNSM_10value_typeEi
E5e:_SimpleCollator_FillSurrogateSortKeyRaw_m725998232
lzh:_List_1_AddEnumerable_m1284696147_gshared
Pef:_IPAddress_Equals_m1823478787
Zne:_Context_CreateNewContext_m3053563976
cla:__ZN9ShaderLab25SerializedTextureProperty8TransferI24GenerateTypeTreeTransferEEvRT_
Hfj:__ZN6il2cpp2gc19AppendOnlyGCHashMapINSt3__24pairIPK14Il2CppAssemblyP11Il2CppClassEEP24Il2CppReflectionAssembly17ReflectionMapHashIS9_ENS2_8equal_toIS9_EEEC2Ev
Xwb:__Z18Transfer_BlittableI19StreamedBinaryWriteILb0EELb0EdEvRK29SerializationCommandArgumentsR31RuntimeSerializationCommandInfo
fla:__ZN11NamedObject8TransferI18StreamedBinaryReadILb0EEEEvRT_
Npg:_InvokableCall_remove_Delegate_m1376110510
qAd:_Hashtable_Clear_m3112193608
dZf:_UTF8Encoding_InternalGetByteCount_m771565606
a9e:_DSAManaged_GenerateKeyPair_m2236915969
uuh:_List_1_System_Collections_IList_Remove_m3654336679_gshared
n3h:__ZL51GUILayer_t2783472903_CustomAttributesCacheGeneratorP21CustomAttributesCache
Pk:_emscripten_glMatrixMode
sZe:_MaskableGraphic_UnityEngine_UI_IClippable_get_gameObject_m1739855597
Vs:__ZN8Animator23VirtualRedirectTransferER18StreamedBinaryReadILb0EE
PKf:_Guid__ctor_m3562600567_AdjustorThunk
byf:_DateTime_System_IConvertible_ToInt16_m3239820399
aS:__ZN11UnityEngine15CloudWebService14DataDispatcher16PrepareDataBlockERNS0_16SessionContainerE
cIa:__ZN18GfxFramebufferGLES5ClearE13GfxClearFlagsRK10ColorRGBAffib
RRf:_MonoProperty_StaticGetterAdapterFrame_TisRuntimeObject_m4131530968_gshared
GBb:__ZL26Transfer_SimpleNativeClassI18StreamedBinaryReadILb0EE10RectOffsetLb0EEvRK29SerializationCommandArgumentsR31RuntimeSerializationCommandInfo
WBe:_InternalEnumerator_1_get_Current_m2316281569_gshared
yOb:__ZL12DepthPassJobPN21GfxDeviceAsyncCommand10ArgScratchEPKNS_3ArgE
qja:__ZNSt3__26vectorIN9ShaderLab20SerializedSubProgram16TextureParameterENS_9allocatorIS3_EEE6assignINS_11__wrap_iterIPS3_EEEENS_9enable_ifIXaasr21__is_forward_iteratorIT_EE5valuesr16is_constructibleIS3_NS_15iterator_traitsISC_E9referenceEEE5valueEvE4typeESC_SC_
Rpc:__ZN5Unity9rapidjson6WriterI16TempBufferWriterNS0_4UTF8IcEES4_13JSONAllocatorE11WriteDoubleEd
L_f:_Thread_SetCachedCurrentUICulture_m1729523031
ZRc:__Z55Register_UnityEngine_CanvasGroup_get_ignoreParentGroupsv
e3b:__Z13RegisterClassI19LowerResBlitTextureEvv
Iee:_ClientContext_set_ClientHelloProtocol_m4189379912
Qm:FUNCTION_TABLE_iiiiiiiiiiii
Qyh:_List_1_get_Item_m1686506901_gshared
mUa:__ZN16GraphicsSettingsD0Ev
n:cttz_i8
Hzc:_UNITY_FT_GlyphLoader_Add
dNi:_AudioListener_INTERNAL_CALL_ReadExtensionPropertyName_m330480156
fFd:_Convert_ToUInt16_m867476252
Ml:_emscripten_glViewport
uzj:__ZN6il2cpp6icalls8mscorlib6System15MonoCustomAttrs17IsDefinedInternalEP12Il2CppObjectP20Il2CppReflectionType
CXi:_SkeletonBone_t4134054672_marshal_pinvoke_back
dBc:_cff_parse_font_bbox
N4e:_MSCompatUnicodeTable_Category_m1834196420
Qdb:__ZN14PlayerSettings23VirtualRedirectTransferER18StreamedBinaryReadILb0EE
vFf:_Double_CompareTo_m3151899116
oIj:__ZN6il2cpp2os5Event5ResetEv
LTb:__Z26CombineDepthNormalsTextureRK17RenderLoopContextR13dynamic_arrayI16RenderObjectDataLj4EE
xEc:_tt_name_ascii_from_other
GLi:_ToggleGroup__ctor_m3308114662
isj:__ZN6il2cpp8metadata15GenericMetadata17InflateParametersEPK13ParameterInfohPK20Il2CppGenericContextb
nSa:__ZN6Camera13AwakeFromLoadE17AwakeFromLoadMode
Zpi:_Array_Sort_TisUILineInfo_t4195266810_m3737783007_gshared
ivg:_PlayableAsset_Internal_CreatePlayable_m2550417712
bw:__ZNK17AnimationPlayable27GetNextCompatibleDescendantEi
wvi:_TlsStream_Write_m188217214
FGb:__Z25SetNeedToPerformRenderingb
M4f:_UInt64_System_IConvertible_ToInt32_m949522652_AdjustorThunk
AQa:__ZN10GameObjectD2Ev
NOb:__ZN14qsort_internal30FindAndMovePivotToLastPositionIP15RODataDepthPassi17ROSorterDepthPassEEvT_S4_T0_T1_
yWb:__ZN12CullingGroup10SendEventsEPK17CullingGroupEventj
K4c:_PointerInputModule__ctor_m3728889932
MX:__ZThn32_NK8Renderer8GetLayerEv
mkg:_Enumerator_System_Collections_IEnumerator_Reset_m2915500989_gshared
iBc:_cff_parse_vsindex
XGd:_Int32_ValidDigit_m1059003769
nXj:_emscripten_glTexParameterfv__wrapper
gXe:_LayoutGroup_get_rectTransform_m442863741
tob:__Z18Transfer_BlittableI14SafeBinaryReadLb1E9BoundsIntEvRK29SerializationCommandArgumentsR31RuntimeSerializationCommandInfo
gjj:_il2cpp_method_get_param_count
jcc:__ZN10systeminfo19ISOToSystemLanguageERN4core12basic_stringIcNS0_20StringStorageDefaultIcEEEE
zej:__ZNK15dense_hashtableINSt3__24pairIK10KeyWrapperINS1_IPK12PropertyInfoP11Il2CppClassEEEjEES9_17ReflectionMapHashIS8_EN14dense_hash_mapIS9_jSD_NS9_14EqualsComparerINS0_8equal_toIS8_EEEENS0_9allocatorISB_EEE9SelectKeyESI_SK_E3endEv
z5f:_UnauthorizedAccessException__ctor_m40101894
AIc:_ps_dimension_done
PNc:__Z46Register_UnityEngine_TextGenerator_Dispose_cppv
AFf:_Double_Parse_m4153729520
Iph:_IndexedSet_1_AddUnique_m861843892_gshared
t4a:__ZN16LightmapSettings8TransferI14SafeBinaryReadEEvRT_
Doa:__ZN17BufferManagerGLES13ReleaseBufferEP14DataBufferGLES
Hde:_CipherSuite_Write_m1172814058
AQd:_SynchronizedWriter_Write_m301917713
N8:__ZN9profiling6MarkerC2EPKc13ProfilerGroupNS0_5FlagsE
tuc:__Z18Transfer_BlittableI8JSONReadLb1EjEvRK29SerializationCommandArgumentsR31RuntimeSerializationCommandInfo
oYd:_ConstructorBuilder_get_IsCompilerContext_m3364441562
Nog:_Debug_LogWarning_m3752629331
Wih:_ReadOnlyCollection_1_System_Collections_Generic_IListU3CTU3E_RemoveAt_m4037795630_gshared
qMg:__Z117RuntimeInvoker_Void_t1185182177_RuntimeObject_Int32_t2950945753_Int32_t2950945753_Int32_t2950945753_Int32_t2950945753PFvvEPK10MethodInfoPvPS4_
E7c:_U3COnFinishSubmitU3Ec__Iterator0_Reset_m3632769946
fp:stackSave
wU:__ZN5Unity9rapidjson15GenericDocumentINS0_4UTF8IcEE13JSONAllocatorNS0_12CrtAllocatorEE6StringEPKcjb
H9c:_ColorTween_get_targetColor_m1724075482_AdjustorThunk
VIc:_ps_dimension_end
nlc:__Z41Register_UnityEngine_Mesh_Internal_Createv
gsj:__ZNK15dense_hashtableI10KeyWrapperIP18Il2CppGenericClassES3_N6il2cpp8metadata22Il2CppGenericClassHashEN14dense_hash_setIS3_S6_NS3_14EqualsComparerINS5_25Il2CppGenericClassCompareEEENSt3__29allocatorIS3_EEE8IdentityESA_SD_E12test_deletedERK30dense_hashtable_const_iteratorIS3_S3_S6_SF_SA_SD_E
zCd:_Console_Open_m3077673205
Xxi:_X509StoreManager_get_CurrentUser_m4040993045
XXb:__ZN6Camera9SetAspectEf
RQf:_Array_InternalArray__IndexOf_TisDateTime_t3738529785_m2463359116_gshared
va:invoke_viiffiii
rUi:_Display_Start_m3623905221
tyj:__ZN15dense_hashtableINSt3__24pairIK10KeyWrapperIPK19Il2CppGenericMethodEP10MethodInfoEES6_N6il2cpp8metadata23Il2CppGenericMethodHashEN14dense_hash_mapIS6_S9_SD_NS6_14EqualsComparerINSC_26Il2CppGenericMethodCompareEEENS0_9allocatorISA_EEE9SelectKeyESH_SJ_E12resize_deltaEjj
yVj:_emscripten_glBindVertexArray__wrapper
_uj:__ZN6il2cpp6icalls8mscorlib6System4Enum19get_underlying_typeEP20Il2CppReflectionType
JDi:_Parser_IsECMAScript_m674158805
vRa:__ZN9Transform37InitializeTransformHierarchyRecursiveER18TransformHierarchyRii
SHa:__ZN26SinglePassStereoSupportExt23SetupStereoMatrixParamsE21MonoOrStereoscopicEye24BuiltinShaderMatrixParamRK10Matrix4x4f
KKj:_fscanf
x$c:__ZNK25UnityWebRequestJavaScript16GetUploadedBytesEv
$P:__Z46AudioListener_CUSTOM_GetNumExtensionPropertiesP12Il2CppObject
G6i:__ZN6il2cpp6icalls8mscorlib6SystemL16CheckMemberMatchI9FieldInfoNS_5utils10functional6FilterINSt3__212basic_stringIcNS8_11char_traitsIcEENS8_9allocatorIcEEEENS5_13VmStringUtils23CaseInsensitiveComparerEEEEEbPKT_PK11Il2CppClassSN_iRKT0_
cRf:_Array_InternalArray__IndexOf_TisMonoResource_t4103430009_m1351751258_gshared
vtj:__ZN6il2cpp2gc16GarbageCollector12RunFinalizerEPvS2_
uHf:_FieldAccessException__ctor_m3583219052
jkc:__Z57Register_UnityEngine_Transform_INTERNAL_set_localPositionv
Hsa:__ZN13GfxDeviceGLES26SetRandomWriteTargetBufferEi15ComputeBufferID
gDj:_GC_split_block
dpi:_Array_Resize_TisUICharInfo_t75501106_m3903846016_gshared
DKb:__ZZ23InitPlayerLoopCallbacksvEN49EarlyUpdateResetFrameStatsAfterPresentRegistrator7ForwardEv
hLj:_poll
Jfh:_ReadOnlyCollection_1_System_Collections_IEnumerable_GetEnumerator_m1671097018_gshared
k5f:_UInt64_ToString_m1529093114_AdjustorThunk
Nji:__ZL85Selectable_t3250028441_CustomAttributesCacheGenerator_Selectable_IsPressed_m907486548P21CustomAttributesCache
B8d:_TypeLibImportClassAttribute__ctor_m2302178978
m6e:_Escape_t3294788190_marshal_pinvoke
CVe:_InputField_OnUpdateSelected_m1118869681
Aqj:__ZN6il2cpp2vmL36AddNestedTypesToNametoClassHashTableEP40Il2CppNameToTypeDefinitionIndexHashTablePKcRKNSt3__212basic_stringIcNS5_11char_traitsIcEENS5_9allocatorIcEEEEP11Il2CppClass
Gxa:__ZN4crnd12crn_unpacker11unpack_dxt1EPPhjjj
Tbc:__ZNK11ICallString6ToUTF8Ev
JZi:__ZN15dense_hashtableINSt3__24pairIK10KeyWrapperIPK22Il2CppGenericParameterEP11Il2CppClassEES6_N6il2cpp5utils11PointerHashIS4_EEN14dense_hash_mapIS6_S9_SE_NS6_14EqualsComparerINS0_8equal_toIS5_EEEENS0_9allocatorISA_EEE9SelectKeyESJ_SL_E15insert_noresizeERKSA_
VPe:_Transform_1_Invoke_m2468053724_gshared
OOb:__ZNSt3__211__sift_downIR17ROSorterDepthPassP15RODataDepthPassEEvT0_S5_T_NS_15iterator_traitsIS5_E15difference_typeES5_
c0a:__ZN18UnityPropertySheet11UnityTexEnvC2Ev
zpd:_ArgumentException__ctor_m3200406061
EA:__ZN8Animator17ApplyOnAnimatorIKEiRNS_11AnimatorJobE
w1:__ZN12FileAccessor4ReadEyyPvPy
GAh:_List_1_set_Capacity_m2777925136_gshared
ixc:__ZN11UnityEngine9Analytics18RenderingInfoEvent13SetFrameStatsERK13dynamic_arrayIjLj4EEjjj
yXb:__ZN13RenderTexture9SetHeightEi
su:__ZN7mecanim9animation17ClearMotionOutputEPNS0_18AnimationNodeStateE
tee:_CipherSuiteCollection_get_IsFixedSize_m3127823890
dHe:_InternalEnumerator_1_System_Collections_IEnumerator_get_Current_m3537550566_gshared
X_e:_Scrollbar_UpdateVisuals_m2492252165
Nwi:_PKCS12_get_Keys_m2165478388
qnj:__ZN6il2cpp6icalls8mscorlib6System2IO6MonoIO17GetFileAttributesEP12Il2CppStringPi
Fkd:_HMACMD5__ctor_m3008609295
Rzf:_DateTime__ParseAmPm_m3478436123
vAf:_DateTime_ToString_m2992030064_AdjustorThunk
qFc:_tt_cmap8_char_index
e$:__Z24scripting_class_get_name17ScriptingClassPtr
jPd:_Stream_WriteByte_m1519852120
dMi:_VerticalLayoutGroup_CalculateLayoutInputHorizontal_m1404590745
mca:__ZN13RuntimeStaticI15GUIEventManagerLb0EE13StaticDestroyEPv
cTd:_ShortComparer_Compare_m1881262465
kqb:__Z29Transfer_Blittable_ArrayFieldI14SafeBinaryReadjEvRT_R9ArrayInfoRK23StaticTransferFieldInfo
he:_emscripten_set_keydown_callback
MVf:_EncoderReplacementFallback__ctor_m1483565116
Blf:_Interpreter_IsWordChar_m2858055765
nAd:_Hashtable_CopyTo_m2905447224
E1:__ZN12FileAccessorC2Ev
cuf:_String_System_IConvertible_ToDouble_m3740733360
wy:__ZThn152_NK26AnimatorControllerPlayable25GetStateMachineBehavioursEv
Dph:_EventFunction_1_Invoke_m2429482587_gshared
hgf:_AsnEncodedData_SubjectAltName_m4049949414
V7i:__ZN6il2cpp2vm7Runtime12GetConfigDirEv
Mjg:_Enumerator_MoveNext_m1177880931_AdjustorThunk
x2e:_Slider_UpdateVisuals_m3662961057
jUi:_TextGenerator_Populate_m194003733
rZd:_DerivedType_get_FullName_m1025358827
Lid:_CryptoConfig_MapNameToOID_m2044758263
cii:__ZL70InputField_t3762917431_CustomAttributesCacheGenerator_m_OnValueChangedP21CustomAttributesCache
xHb:__ZN13RenderManager22OnWindowSizeHasChangedEv
VEb:__Z39WriteQueueForTransferSignatureIntoCacheRK31TransferFunctionScriptingTraitsRK24TransferRequestSignature17ScriptingClassPtrR23CachedSerializationDataRb
ehb:__ZN13RenderManager18UpdateAllRenderersEv
YWf:_Encoding_get_UTF8UnmarkedUnsafe_m320312322
U_f:_Thread_Thread_free_internal_m333849022
hrc:__Z35Transfer_Blittable_FixedBufferFieldI9JSONWritexEvRK29SerializationCommandArgumentsR31RuntimeSerializationCommandInfo
Vyi:_CostDelegate_BeginInvoke_m2828452701
LVc:__ZN22BaseUnityConnectClient30OnEnteringStatePausedOrStoppedEv
L7g:_Collection_1_ConvertItem_m1556170494_gshared
Gu:__ZN7mecanim5human12HumanPoseAddERNS0_9HumanPoseERKS1_S4_
pyf:_DateTime_ToUniversalTime_m1945318289
Lwd:_ArrayList_ToArray_m3827492363
P2e:_Slider_get_stepSize_m1423227661
f5f:_UInt64_Parse_m819899889
rpf:_SymmetricAlgorithm_set_IV_m3196220308
J$d:_GenericTypeParameterBuilder_GetHashCode_m852224381
rFd:_Convert_ToUInt32_m1453583008
pIf:_CompareInfo_Compare_m894311506
dRa:__Z24MergeTransformComponentsR9TransformS0_b
I1i:__ZNK15dense_hashtableI10KeyWrapperIPK19Il2CppGenericMethodES4_N6il2cpp8metadata23Il2CppGenericMethodHashEN14dense_hash_setIS4_S7_NS4_14EqualsComparerINS6_26Il2CppGenericMethodCompareEEENSt3__29allocatorIS4_EEE8IdentityESB_SE_E10test_emptyEj
t1c:_EventSystem_UpdateModules_m3643806022
hXi:_AnimationOffsetPlayable__cctor_m1029460816
wzj:__ZN6il2cpp2vm13ComObjectBase19GetRuntimeClassNameEPP15Il2CppHString__
Uj:_emscripten_glVertexAttribPointer
VVa:__ZNK20IntermediateRenderer12GetSceneMaskEv
IHb:__ZN14PreloadManager26UpdatePreloadingSingleStepENS_21UpdatePreloadingFlagsEi
D1e:_ScrollRect_SetLayoutHorizontal_m3078869633
b5e:_SimpleCollator__ctor_m1587210019
vic:__Z57Register_UnityEngine_RectTransform_INTERNAL_set_anchorMinv
nFd:_Convert_ToUInt16_m1480956416
dza:__ZN6prcoreL25inner_stretch_i8_bilinearEPKNS_9InnerInfoE
yib:__ZL30RegisterFilteredObjectCallbackPP12Il2CppObjectiPv
sih:_ReadOnlyCollection_1_System_Collections_Generic_IListU3CTU3E_RemoveAt_m3317217538_gshared
bai:__ZL54AudioSource_t3935305588_CustomAttributesCacheGeneratorP21CustomAttributesCache
_Hb:__Z19InitializeGfxDevicev
wS:__ZN11UnityEngine15CloudWebService16SessionContainer24GetSessionHeaderJsonDataERKN4core12basic_stringIcNS2_20StringStorageDefaultIcEEEERNS2_13StringBuilderE
WYd:_DerivedType_GetEvent_m4157575360
_ba:__ZN13RuntimeStaticI21AssetReferenceStorageLb0EE13StaticDestroyEPv
Ohd:_SByte_System_IConvertible_ToType_m4075253447_AdjustorThunk
rVf:_Array_InternalArray__set_Item_TisKeyValuePair_2_t2530217319_m258011711_gshared
LWg:__Z72RuntimeInvoker_Bounds_t2266837910_RuntimeObject_Matrix4x4U26_t3606180965PFvvEPK10MethodInfoPvPS4_
jvj:__ZN6il2cpp6icalls8mscorlib6System9AppDomain22InternalGetProcessGuidEP12Il2CppString
ozc:_cf2_builder_moveTo
eGg:__Z48RuntimeInvoker_RuntimeObject_Decimal_t2948259380PFvvEPK10MethodInfoPvPS4_
BNa:__ZNK17FileSystemHandler10IsReadOnlyERK13FileEntryData
Hub:__Z18Transfer_BlittableI24GenerateTypeTreeTransferLb1EjEvRK29SerializationCommandArgumentsR31RuntimeSerializationCommandInfo
HZi:__ZN6il2cpp2os12FastAutoLockD2Ev
f7:__ZN11ColorRGBA328TransferI14SafeBinaryReadEEvRT_
xBc:_cff_vstore_done
sRg:__Z68RuntimeInvoker_Void_t1185182177_UInt16_t2177724958_SByte_t1669577662PFvvEPK10MethodInfoPvPS4_
pfb:__ZN15ResourceManager10Dependency8TransferI24GenerateTypeTreeTransferEEvRT_
cld:_MACTripleDES_HashFinal_m3613553534
B4f:_UInt64_System_IConvertible_ToChar_m2074245892
hZf:_UTF8Encoding_InternalGetBytes_m1965760031
Mf:_emscripten_glClearDepth
Z6b:__ZNK8GUILayer22GetTypeVirtualInternalEv
z5a:__ZN14SafeBinaryRead21TransferSTLStyleArrayINSt3__26vectorIN15QualitySettings14QualitySettingENS1_9allocatorIS4_EEEEEEvRT_17TransferMetaFlags
LNe:_KeyCollection__ctor_m2388548663_gshared
odb:__ZNSt3__26vectorINS_4pairIPKN5Unity4TypeE7Hash128EENS_9allocatorIS7_EEE8__appendEj
ABc:_cff_font_load
Pvj:__GLOBAL__sub_I_LibraryLoader_cpp
Ncc:__Z13IsPathCreatedRKN4core12basic_stringIcNS_20StringStorageDefaultIcEEEE
Pog:_Debug_LogWarningFormat_m2535776735
Kya:__ZL22stbir__encode_scanlineP11stbir__infoiPvPfiii
N7d:_ExternalException__ctor_m2877839282
syc:__ZN20QuadTreeNodeRenderer13StaticDestroyEPv
sT:__ZN11UnityEngine15CloudWebService20WebRequestRestClient5AbortEv
VBi:_Regex_Matches_m2080913806
c4b:__ZN9Transform12CleanupClassEv
Pzg:_Sprite_get_rect_m2575211689
Asg:_Mathf_Sin_m3411839043
GMc:_UNITY_FT_Set_Pixel_Sizes
tVd:_OperatingSystem_Clone_m1122165140
tti:_GameObject_AddComponent_TisRuntimeObject_m3469369570_gshared
lka:__ZNSt3__26vectorIN9ShaderLab19SerializedSubShaderENS_9allocatorIS2_EEE26__swap_out_circular_bufferERNS_14__split_bufferIS2_RS4_EE
jA:__ZN11UnityEngine9Animation33SetGenericTransformPropertyValuesERKNS0_30AnimatorGenericBindingConstantERKN7mecanim10ValueArrayEP9Transformy
ulj:__ZN6il2cpp2vmL24thread_cleanup_on_cancelEPv
Owh:_List_1_RemoveAll_m3165362277_gshared
C1f:_Type_type_is_subtype_of_m1406623598
IZf:_Thread_get_CurrentThread_m4142136012
lWa:__Z30ProcessDynamicBatchGeometryJobP25DynamicVBOGeometryJobDataj
iPb:__ZNSt3__27__sort4IRNS_6__lessI11CulledLightS2_EEPS2_EEjT0_S6_S6_S6_T_
E9i:__ZN6il2cpp2vm14TypeNameParser26ParseArrayModifierOptionalEv
$Z:__Z26scripting_object_get_class18ScriptingObjectPtr
tmj:__ZN6il2cpp6icalls8mscorlib6System10Reflection8Assembly13get_code_baseEP24Il2CppReflectionAssemblyb
$fb:__ZNSt3__26vectorIN4core12basic_stringIcNS1_20StringStorageDefaultIcEEEE13stl_allocatorIS5_L18MemLabelIdentifier13ELi16EEE7reserveEj
Tjd:_DSASignatureDeformatter__ctor_m2889130126
H3b:__ZNK28MonoBehaviourPropertyBinding15GenerateBindingERKN4core12basic_stringIcNS0_20StringStorageDefaultIcEEEEbRN11UnityEngine9Animation14GenericBindingE
uyg:_RectTransform_INTERNAL_set_pivot_m1160676233
FBh:_List_1_set_Item_m35836043_gshared
gjf:_X509ChainElementCollection__ctor_m3424079155
bzi:_LinkStack_Push_m3081279930
_Le:_Enumerator_MoveNext_m1107569389_gshared
xxj:__ZN6il2cpp6icalls8mscorlib6System11Environment15internalGetHomeEv
$sg:_Matrix4x4_GetHashCode_m4034747639_AdjustorThunk
Q6d:_ResourceCacheItem_t51292791_marshal_pinvoke_cleanup
qX:__ZNK5Unity9Component7GetNameEv
LXe:_U3CDelayedSetDirtyU3Ec__Iterator0_Reset_m160466733
iog:_Native__cctor_m1435623442
Yzh:_List_1_System_Collections_IList_Remove_m1070694895_gshared
qGi:_LayoutCache__ctor_m3885940174
wB:__ZN7mecanim8skeleton26SkeletonPoseComputeGlobalQEPKNS0_8SkeletonEPKNS0_13SkeletonPoseTIN4math4trsXEEEPS7_ii
A4f:_UInt64_System_IConvertible_ToByte_m1501504925_AdjustorThunk
cUi:_TextGenerator_Invalidate_m1072346986
fhe:_TlsClientHello_ProcessAsTls1_m2549285167
c3g:__Z74RuntimeInvoker_Boolean_t97287965_UIVertex_t4057497605_UIVertex_t4057497605PFvvEPK10MethodInfoPvPS4_
ngh:_ReadOnlyCollection_1_System_Collections_IList_Clear_m3591436538_gshared
YA:__ZN9BlobWrite8TransferI22OffsetPtrArrayTransferIiEEEvRT_PKc17TransferMetaFlags
hxf:_EncoderExceptionFallback_Equals_m2760188920
Dmf:_RIPEMD160Managed_HashCore_m2350629432
ZJ:__ZN4FMOD6System7releaseEv
mtd:_Boolean_CompareTo_m3665076258
xuf:_String_Split_m3580120853
paf:_PrivateKeyInfo__ctor_m2811023496
$0:__Z18PathToAbsolutePathRKN4core12basic_stringIcNS_20StringStorageDefaultIcEEEE
lHi:_GUILayoutUtility_LayoutFromEditorWindow_m2914699782
pUc:__ZN21UnityAnalyticsManager15ThreadedCleanupEv
mya:__ZL13BlitImageImplR14ImageReferenceiiRKS_NS_10ColorSpaceENS_8BlitModeEb
A8b:__ZN15DirectorManager17AcquireOutputNodeEv
vAa:__ZN6prcoreL17RemapGenericFloatI18TexFormatRGBAFloat17TexFormatRGBFloatEEvPKNS_9InnerInfoE
wti:_GameObject_GetComponentInChildren_TisRuntimeObject_m1310240902_gshared
w7h:__ZL69PersistentCall_t3407714124_CustomAttributesCacheGenerator_m_ArgumentsP21CustomAttributesCache
hHa:__ZN16GeometryJobTasks20ScheduleGeometryJobsER9GfxDevicePFvP15GeometryJobDataEPK22GeometryJobInstructionjb
cI:__ZN12AudioManager29ShutdownReinitializeAndReloadEv
oYa:__ZN16ReflectionProbes28GetMinBakedCubemapResolutionEv
T9a:__ZN14BlendShapeData8TransferI14SafeBinaryReadEEvRT_
Gyj:__GLOBAL__sub_I_String_cpp
GZi:__ZN15dense_hashtableINSt3__24pairIK10KeyWrapperIPK22Il2CppGenericParameterEP11Il2CppClassEES6_N6il2cpp5utils11PointerHashIS4_EEN14dense_hash_mapIS6_S9_SE_NS6_14EqualsComparerINS0_8equal_toIS5_EEEENS0_9allocatorISA_EEE9SelectKeyESJ_SL_E6insertERKSA_
LVe:_InputField_GenerateCaret_m1459647218
Fwi:_X509CertificateEnumerator__ctor_m85694331
hua:__ZN14DataBufferGLES16RecreateWithDataEjPKv
V2:__Z29GetGlobalAllowNameConversionsv
bUf:_Array_InternalArray__Insert_TisTableRange_t3332867892_m558285859_gshared
cZb:__ZN8Material8SetColorEN9ShaderLab16FastPropertyNameERK10ColorRGBAf
tqh:_Enumerator_System_Collections_IEnumerator_Reset_m3754523291_gshared
$Wj:_glUniform3uiv__wrapper
XL:__ZN11AudioSource23VirtualRedirectTransferER18StreamedBinaryReadILb0EE
twg:_RangeInt_get_end_m4128831787
bca:__ZN21AssetReferenceStorageC2Ev
qOj:dynCall_iiifiii
i$:__ZL41AssemblyNameMatchesWithOrWithoutExtensionPKcS0_
Ryh:_List_1_set_Item_m2082115010_gshared
oWf:_Encoding_GetBytes_m3735967069
JDa:__ZN14GfxContextGLES43AddRenderSurfaceToDeferredFBOInvalidateListEPK17RenderSurfaceGLES
Vmj:__ZN6il2cpp6icalls8mscorlib6System9Threading6Thread15Thread_internalEP12Il2CppThreadP14Il2CppDelegate
zoa:__ZN11NamedObject23VirtualRedirectTransferER14SafeBinaryRead
J3e:_Text_get_resizeTextMinSize_m1002355407
vMc:__ZNSt3__26vectorIN20TextRenderingPrivate8FontImpl13CharacterInfoE13stl_allocatorIS3_L18MemLabelIdentifier1ELi16EEE6insertENS_11__wrap_iterIPKS3_EERS9_
tLa:__ZN23PreloadManagerOperation6IsDoneEv
Yyj:__ZN6il2cpp5utils11StringUtils11Utf16ToUtf8ERKNSt3__212basic_stringIDsNS2_11char_traitsIDsEENS2_9allocatorIDsEEEE
vbe:_MD4Managed_Decode_m4273685594
Ihb:__ZN21LightProbeProxyVolume18HasHardwareSupportEv
hSb:__ZN26LightProbeProxyVolumeCacheC2ER13BatchRendererR15RenderLoopStats
_ya:__ZN6prcoreL31inner_stretch_argb8888_bilinearEPKNS_9InnerInfoE
Hyb:__Z18Transfer_BlittableI18StreamedBinaryReadILb1EELb1E8BitFieldEvRK29SerializationCommandArgumentsR31RuntimeSerializationCommandInfo
ZFc:_UNITY_FT_Outline_Decompose
sJd:_Int64_System_IConvertible_ToChar_m1509243576_AdjustorThunk
Rvi:_GeneralNames_get_IPAddresses_m4242915644
JDf:_Decimal_op_Implicit_m3873897383
yDj:_GC_init_size_map
qTa:__Z20scripting_object_new17ScriptingClassPtr
Caf:_KeyGeneratedEventHandler_Invoke_m2527485594
RBf:_Decimal__ctor_m1925875020_AdjustorThunk
Due:_SerializationCallbacks__ctor_m3863304525
P:Math_exp
Amg:_Vector3_Min_m1803158933
Io:FUNCTION_TABLE_iiifi
Uuj:__ZN6il2cpp2os5posix13PosixAutoLockD2Ev
rIi:_SymmetricTransform_OFB_m3690147804
Xyc:_cff_get_advances
pEb:__ZN13MonoBehaviour9SetScriptERK4PPtrI10MonoScriptE18ScriptingObjectPtr
LMa:__ZNK10FileSystem16LastErrorMessageEv
eVf:_Array_InternalArray__Insert_TisVector3_t3722313464_m3862657277_gshared
Irf:_SecurityException__ctor_m1631242336
L$i:__ZN15dense_hashtableINSt3__24pairIK10KeyWrapperIPK11Il2CppClassEPKcEES6_N6il2cpp5utils11PointerHashIS3_EEN14dense_hash_mapIS6_S9_SE_NS6_14EqualsComparerINS0_8equal_toIS5_EEEENS0_9allocatorISA_EEE9SelectKeyESJ_SL_E14squash_deletedEv
u2c:_EventSystem_Update_m1662072334
a0c:__ZN22UnityWebRequestManager10InitializeEv
GDb:__ZN13MonoBehaviour13AwakeFromLoadE17AwakeFromLoadMode
Osb:__ZL26Transfer_SimpleNativeClassI17RemapPPtrTransfer8GradientLb1EEvRK29SerializationCommandArgumentsR31RuntimeSerializationCommandInfo
Y1c:_RaycasterManager_RemoveRaycasters_m3057093063
L9b:__ZN12CachedWriter9InitWriteER15CacheWriterBase
p8b:__Z21UnsignedInt64ToStringy
w_e:_GetRaycastNonAllocCallback_BeginInvoke_m3984885848
dAi:_PatternCompiler_BeginLink_m1295557963
QRa:__ZN14SafeBinaryRead21TransferSTLStyleArrayI13dynamic_arrayI17SortingLayerEntryLj4EEEEvRT_17TransferMetaFlags
RFd:_GuidParser_ThrowFormatException_m3223388534
sDi:_Group_GetAnchorInfo_m3730312864
rhi:__ZL50Graphic_t1660335611_CustomAttributesCacheGeneratorP21CustomAttributesCache
mOe:_KeyCollection_System_Collections_Generic_ICollectionU3CTKeyU3E_Add_m454648927_gshared
V0f:_TimeSpan_op_LessThanOrEqual_m300470010
mmf:_Interval_Merge_m3454211016_AdjustorThunk
Yda:__ZZN15DirectorManager15InitializeClassEvEN41FixedUpdateDirectorFixedUpdateRegistrator7ForwardEv
mOd:_MemoryStream_get_Position_m3733941202
y0b:__ZL10KeyHandleriPK23EmscriptenKeyboardEventPv
hVj:_glLinkProgram__wrapper
Ekb:__ZN18ScriptingArguments8AddInt64Ex
Iza:__ZN6prcoreL12RemapGenericI17TexFormatARGB888815TexFormatBGR888EEvPKNS_9InnerInfoE
jlb:__ZN12HandlerChain4LockER13FileEntryData12FileLockMode
yKf:_TextInfo_get_ListSeparator_m1628160079
c2e:_Selectable_OnCanvasGroupChanged_m472903475
RZf:_EventWaitHandle_Reset_m3348053200
HZc:__ZN28UnityConnectScriptingClasses23CallSessionStateChangedEixxbP21ScriptingExceptionPtr
npj:__ZN6il2cpp6icalls8mscorlib6System13Globalization11CultureInfo35construct_internal_locale_from_nameEP17Il2CppCultureInfoP12Il2CppString
Wub:__ZL22Transfer_ManagedObjectI24GenerateTypeTreeTransferLb1EEvRK29SerializationCommandArgumentsR31RuntimeSerializationCommandInfo
OMb:__ZN15RenderNodeQueueC2E10MemLabelId
M6d:_ResourceEnumerator_FillCache_m1661715061
sVh:__ZL72SecuritySafeCriticalAttribute_t3505979402_CustomAttributesCacheGeneratorP21CustomAttributesCache
ak:_emscripten_set_main_loop_timing
omg:_Bounds_get_min_m3755135869
gFd:_Convert_ToUInt16_m3523269149
Dva:__ZN14DataBufferGLES12RecordRenderEv
t3c:_ExecuteEvents_get_endDragHandler_m2879610446
LYb:__ZN14ImageReference10FlipImageYEv
vnc:__Z14GetDefaultSkini
oF:__ZN4FMOD3DSP9setBypassEb
r0b:__Z19NormalizeWheelInputf
Bdd:_Graphic_DoMeshGeneration_m3548487693
rBi:_Repetition__ctor_m1672362629
uwc:__Z29Transfer_Blittable_ArrayFieldI8JSONReadhEvRT_R9ArrayInfoRK23StaticTransferFieldInfo
Lsf:_SecurityFrame_ToString_m339310712_AdjustorThunk
K1d:_TypeBuilder_create_runtime_class_m2581270900
Yye:_InternalEnumerator_1_get_Current_m3008260692_gshared
YHj:__ZN6il2cpp2os20ThreadLocalValueImpl8SetValueEPv
UTa:__ZN22RenderingCommandBuffer20CleanupCommandBufferEv
LDf:_Decimal_op_Implicit_m2299919277
jrc:__Z18Transfer_BlittableI9JSONWriteLb1EtEvRK29SerializationCommandArgumentsR31RuntimeSerializationCommandInfo
iRd:_UnexceptionalStreamReader_ReadToEnd_m920589220
lyf:_DateTime_System_IConvertible_ToType_m1242864300
Wuf:_String_IndexOf_m1298810678
uk:___syscall85
TMb:__ZNSt3__26__sortIRPFbP10GUIElementS2_EPS2_EEvT0_S7_T_
d7b:__ZN16GraphicsSettings12CleanupClassEv
GYd:_ConstructorBuilder_GetILGenerator_m1750792206
OVf:_EncoderFallback_get_ReplacementFallback_m818398284
Lvj:__ZN6il2cpp2os6Thread19DetachCurrentThreadEv
P2c:_EventTrigger_OnBeginDrag_m4203438710
a_i:__ZN6il2cpp2vmL21SetupInterfacesLockedEP11Il2CppClassRKNS_2os12FastAutoLockE
eaf:_PKCS1_Sign_v15_m2719206817
xz:__ZN23AnimationPlayableOutput17SetSourcePlayableEP8Playable
oog:_CullingGroup_Dispose_m782801025
sS:__ZN11UnityEngine15CloudWebService14DataDispatcher15SetupWebRequestEv
UWc:__ZN11UnityEngine15PlatformWrapper13GetShaderCapsEv
tUb:__ZNSt3__211__sift_downIR26RenderDeferredObjectSorterP16RenderObjectDataEEvT0_S5_T_NS_15iterator_traitsIS5_E15difference_typeES5_
z9e:_KeyPairPersistence_get_MachinePath_m3812267291
nCd:_Stack_Peek_m2216191248
_xf:_DateTime_System_IConvertible_ToDecimal_m1044850612_AdjustorThunk
N7b:__ZN21FixedBehaviourManager6UpdateEv
Acc:__ZN9Transform9SetParentEPS_NS_15SetParentOptionE
T4:__ZN19ShaderPropertySheet8SetFloatEN9ShaderLab16FastPropertyNameEfNS_8SetFlagsE
zgb:__ZN19RuntimeSceneManager24BeginIntegrateMainThreadEP10UnityScene
vwj:__ZNSt3__2plIcNS_11char_traitsIcEENS_9allocatorIcEEEENS_12basic_stringIT_T0_T1_EERKS9_S6_
jQd:_StringReader_CheckObjectDisposedException_m3796163530
Oja:__ZN9ShaderLab20SerializedSubProgramaSERKS0_
SNj:_roundf
fud:_Byte_System_IConvertible_ToSingle_m324484566_AdjustorThunk
wDf:_Decimal_op_Explicit_m2848387298
Rhg:_KeyValuePair_2_ToString_m1238786018_gshared
bt:__ZN8Animator15SetPrepareStageEv
PE:__ZN8AnimatorC2E10MemLabelId18ObjectCreationMode
b_i:__ZN6il2cpp2vmL24SetupTypeHierarchyLockedEP11Il2CppClassRKNS_2os12FastAutoLockE
z0b:__ZL11TextHandleriPK23EmscriptenKeyboardEventPv
SLc:_destroy_face
DTj:_glBlendEquationSeparate__wrapper
UEj:__ZN6il2cpp6icalls8mscorlib6System8Security12Cryptography24RNGCryptoServiceProvider13RngInitializeEP11Il2CppArray
eM:__ZN20SoundChannelInstance7setMuteEb
VUd:_NumberFormatter_NumberToString_m3906556024
Gzb:__Z19TransferField_ArrayI18StreamedBinaryReadILb1EE27Converter_SimpleNativeClassI17AnimationCurveTplIfEEEvRK23StaticTransferFieldInfoR31RuntimeSerializationCommandInfoRT0_
gwa:__ZN18GfxFramebufferGLES22MakeCurrentFramebufferENS_7BuiltinE
r7:__ZN12CachedReader4ReadEPvj
c6c:_StandaloneInputModule_ProcessMouseEvent_m2923582521
h6e:_SimpleCollator_MatchesForwardCore_m850743967
hRb:__Z24CalculateLightShadowFadeRK6CamerafffR8Vector4f
Gaa:__ZN19RuntimeSceneManagerD2Ev
QHf:_CCGregorianCalendar_GetMonth_m1547203696
IT:__ZN11UnityEngine15CloudWebService25WebRequestDownloadHandler17OnCompleteContentEv
Zya:__ZN6prcore17GetIntegerBlitterE13TextureFormatS0_N14ImageReference8BlitModeE
ZCj:_GC_print_block_descr
vdj:__ZN6il2cpp2gc19AppendOnlyGCHashMapINSt3__24pairIPK11Il2CppImageP11Il2CppClassEEP22Il2CppReflectionModule17ReflectionMapHashIS9_ENS2_8equal_toIS9_EEE11TryGetValueERKS9_PSB_
xec:__ZN9BlobWrite14ReduceCopyImplERK14ReduceCopyDataj
g9:__ZNSt3__26__treeI19RepeatingLogMessageNS_4lessIS1_EE13stl_allocatorIS1_L18MemLabelIdentifier73ELi16EEE12__find_equalIS1_EERPNS_16__tree_node_baseIPvEESD_RKT_
QP:__ZN11AudioSource18IsPlayingScriptingEv
r9e:_KeyBuilder_IV_m2230195376
sSj:_glShaderSource__wrapper
DOa:__ZN25MultiBlocksMemoryFileData17AdjustBlocksCountEj
Fmj:__ZNSt3__214__split_bufferIN6il2cpp2vm22EmbeddedResourceRecordERNS_9allocatorIS3_EEED2Ev
lKc:__ZN13TextRendering4Font8TransferI24GenerateTypeTreeTransferEEvRT_
Qfc:__Z27CullingGroup_CUSTOM_DisposeP12Il2CppObject
nmj:__ZN6il2cpp6icalls8mscorlib6SystemL23CheckWideningConversionEjjj
k_c:__ZNSt3__26vectorIP19BaseConnectSettings13stl_allocatorIS2_L18MemLabelIdentifier6ELi16EEE21__push_back_slow_pathIKS2_EEvRT_
yMb:__ZN13ComputeShader15SetTextureParamEjRKN9ShaderLab16FastPropertyNameE9TextureID16TextureDimension
Cm:_glStencilMask
jwj:__ZN6il2cpp2os10ThreadImpl16GetCurrentThreadEv
u4d:_MonoMethod_GetBaseDefinition_m2844667474
t0b:__ZN15GUIEventManager10QueueEventERK10InputEvent
u$i:_AnalyticsEvent_OnValidationFailed_m2609604624
v7d:_DecimalConstantAttribute__ctor_m3583301917
zCj:_GC_push_conditional_with_exclusions
vKe:_Enumerator_System_Collections_IDictionaryEnumerator_get_Entry_m2772123357_AdjustorThunk
vqe:_MethodCallDictionary__ctor_m2167303393
XB:__ZN12_GLOBAL__N_121ProcessAnimationBeginER35AnimationPlayableEvaluationConstantR32AnimationPlayableEvaluationInputR33AnimationPlayableEvaluationOutput
XKj:_strrchr
Sng:_Component_GetComponentInParent_m779177818
E6c:_UIBehaviour_IsDestroyed_m3033055982
cQg:__Z109RuntimeInvoker_Void_t1185182177_RuntimeObject_RuntimeObject_SByte_t1669577662_Int32_t2950945753_RuntimeObjectPFvvEPK10MethodInfoPvPS4_
kUe:_InputField_get_readOnly_m3111985574
zYa:__ZN14RenderSettings27UpdateIndirectSpecularColorEv
peb:__ZN14PlayerSettings8TransferI18StreamedBinaryReadILb0EEEEvRT_
Y6i:__ZN6il2cpp6icalls8mscorlib6System8MonoType16GetMethodsByNameEP20Il2CppReflectionTypeP12Il2CppStringibS5_
i_f:_Monitor_Monitor_wait_m3706677354
_ld:_RijndaelTransform__cctor_m2439033240
QIb:__ZNSt3__27__sort3IRNS_4lessIN22BuiltinResourceManager8ResourceEEEPS3_EEjT0_S7_S7_T_
IIc:_ps_hints_t2mask
hNf:_Array_InternalArray__ICollection_Remove_TisMonoResource_t4103430009_m238733686_gshared
GKd:_IntPtr_ToString_m1831665121
Z2e:_Slider_Set_m1476104429
nfd:_Image_set_fillClockwise_m2210525152
$ab:__ZN10BlendShape8TransferI19StreamedBinaryWriteILb0EEEEvRT_
xKd:__Z21il2cpp_codegen_sizeofP11Il2CppClass
SCa:__Z19GetTimeSinceStartupv
Nfd:_Image_AddQuad_m2161647989
iqh:_Enumerator_System_Collections_IEnumerator_Reset_m2953002685_gshared
cIc:_TT_Load_Composite_Glyph
m$a:__ZN9ShaderLab11shaderprops9GetTexEnvEPK19ShaderPropertySheetS3_NS_16FastPropertyNameE16TextureDimensionb
BPb:__ZN29RenderNodeQueuePrepareContextC2Ev
Uij:_il2cpp_gc_disable
_ka:__ZN9ShaderLab20SerializedSubProgram16TextureParameter8TransferI24GenerateTypeTreeTransferEEvRT_
Vjd:_DSASignatureDeformatter_SetKey_m2999549245
sFj:__ZN6il2cpp2os11MutexHandle4WaitEb
rpa:__ZN9GfxDevice19SaveStereoConstantsEv
rFj:__ZN6il2cpp2os11MutexHandle4WaitEj
ndc:__ZL34GetComponentsImplementationRecurseILb1ELi1ELi1EEbR10GameObjectbRK17CompareParametersRK39GetComponentsImplementation_ReturnValue
kIg:__Z114RuntimeInvoker_Boolean_t97287965_RuntimeObject_RuntimeObject_Int32_t2950945753_Int32_t2950945753_Int32_t2950945753PFvvEPK10MethodInfoPvPS4_
YXd:_AssemblyBuilder_GetTypes_m3415680380
SAa:__ZN6prcoreL17RemapGenericFloatI15TexFormatRGHalf18TexFormatARGBFloatEEvPKNS_9InnerInfoE
VGb:__Z18SimulateMouseInputi
PLb:__ZN13RenderManager23AddRemoveCamerasDelayedEv
osc:__ZN9JSONWrite8TransferI13dynamic_arrayIdLj8EEEEvRT_PKc17TransferMetaFlags
uUc:__ZN11UnityEngine9Analytics15AnalyticsConfigC2Ev
Qpc:__ZN5Unity9rapidjson6WriterI16TempBufferWriterNS0_4UTF8IcEES4_13JSONAllocatorE11WriteUint64Ey
dsd:_BitConverter__cctor_m3841343255
LCf:_Decimal_Compare_m3062820418
tmf:_IntervalCollection_GetMetaCollection_m4029522214
K2c:_EventTrigger_OnDeselect_m1919608102
WTi:_TextGenerator_get_characterCount_m864136654
X$f:_TimeSpan__ctor_m2047388489_AdjustorThunk
xXb:__ZN13RenderTexture8SetWidthEi
eIc:_UNITY_FT_GlyphLoader_CheckSubGlyphs
MRb:__Z25SetupObjectBakedOcclusionbRK15SharedLightDataRK26SharedLightmapSettingsDataRK15LightmapIndicesR17ShaderPassContext
h4g:_Collection_1_System_Collections_ICollection_CopyTo_m1516601228_gshared
$4:__ZN9ShaderLab16FastPropertyName4InitEPKc
a3b:__Z13RegisterClassIN2UI13RectTransformEEvv
x6b:__ZL31MeshRendererTransformChangedJobP13BoundsJobDatajPK23TransformAccessReadOnlyPKyj
Juc:__ZN8JSONRead21TransferSTLStyleArrayI31ArrayOfManagedObjectsTransfererEEvRT_17TransferMetaFlags
Qud:_Char_System_IConvertible_ToByte_m2347554595_AdjustorThunk
nZa:__ZN13RenderTexture9SetMipMapEb
Yvf:_String_CreateString_m860434552
sea:__Z18GetDirectorManagerv
Ujc:__Z38Transform_CUSTOM_INTERNAL_get_rotationP12Il2CppObjectP11Quaternionf
kdj:__ZNK15dense_hashtableINSt3__24pairIK10KeyWrapperINS1_IPK10MethodInfoP11Il2CppClassEEEjEES9_17ReflectionMapHashIS8_EN14dense_hash_mapIS9_jSD_NS9_14EqualsComparerINS0_8equal_toIS8_EEEENS0_9allocatorISB_EEE9SelectKeyESI_SK_E5beginEv
iua:__ZN7ApiGLES19UploadBufferSubDataEjN2gl12BufferTargetEllPKv
Ega:__ZNSt3__216__rotate_forwardINS_11__wrap_iterIPN4core12basic_stringIcNS2_20StringStorageDefaultIcEEEEEEEET_S9_S9_S9_
iCg:_Vector2_GetHashCode_m3916089713
xzg:_SendMouseEvents_HitTestLegacyGUI_m579942228
aUd:_MulticastDelegate_Equals_m2502840627
vpf:_SymmetricAlgorithm_set_KeySize_m3805756466
lud:_Byte_System_IConvertible_ToUInt32_m1049546902_AdjustorThunk
gRg:__Z53RuntimeInvoker_Double_t594665363_Interval_t1802865632PFvvEPK10MethodInfoPvPS4_
$Ib:__Z21InitializeBatchedJobsv
SVi:_CanvasGroup_get_blocksRaycasts_m1805542303
dof:_SHA1Internal_ProcessBlock_m1991889327
Qpb:__Z19TransferField_ArrayI14SafeBinaryRead27Converter_SimpleNativeClassI8GUIStyleEEvRK23StaticTransferFieldInfoR31RuntimeSerializationCommandInfoRT0_
upi:_Array_Sort_TisRuntimeObject_TisRuntimeObject_m1685639929_gshared
bFj:__ZN6il2cpp5utils10MemoryPoolC2Ev
WXa:__ZN14RenderSettings5ResetEv
X1b:__ZN6Sprite9BindAtlasERK4PPtrI11SpriteAtlasE
Yoc:__ZN5Unity9rapidjson12GenericValueINS0_4UTF8IcEE13JSONAllocatorE10FindMemberIS4_EENS0_21GenericMemberIteratorILb0ES3_S4_EERKNS1_IS3_T_EE
JCe:_InternalEnumerator_1_System_Collections_IEnumerator_get_Current_m3892960115_AdjustorThunk
moj:__ZNSt3__212basic_stringIDsNS_11char_traitsIDsEENS_9allocatorIDsEEE6appendEPKDsj
Nwd:_ArrayList_Clone_m2682741233
zkd:_HMAC_HashCore_m3684104066
wpc:__ZN5Unity9rapidjson13GenericReaderINS0_4UTF8IcEES3_13JSONAllocatorE11ParseNumberILj1ENS0_25GenericInsituStringStreamIS3_EENS0_15GenericDocumentIS3_S4_S4_EEEEvRT0_RT1_
Vvj:__ZN6il2cpp2os10ThreadImplD2Ev
rqc:__ZN8Gradient8TransferI9JSONWriteEEvRT_
hhb:__ZN21RendererUpdateManager18OncePerFrameUpdateER13RendererScene
CNi:_AudioSource_set_clip_m31653938
bLa:__ZNK12TLSAllocatorI14StackAllocatorE22GetAllocatedMemorySizeEv
j3:__ZN17RemapPPtrTransfer12PushMetaFlagE17TransferMetaFlags
seg:_EqualityComparer_1_System_Collections_IEqualityComparer_GetHashCode_m2138064395_gshared
Wkb:__ZN12HandlerChain4NameEv
xGd:_Int16_System_IConvertible_ToType_m3672347013_AdjustorThunk
hvf:_String_LastIndexOf_m578673845
Drb:__Z29Transfer_Blittable_ArrayFieldI14SafeBinaryReadN4math12int3_storageEEvRT_R9ArrayInfoRK23StaticTransferFieldInfo
vsf:_SecurityException_ToString_m3228070608
hId:_Int16_ToString_m2013897809
xsf:_String_Substring_m2848979100
KSc:__Z44Register_UnityEngine_CanvasRenderer_get_cullv
zti:_ScriptableObject_CreateInstance_TisRuntimeObject_m1552711675_gshared
dWc:__ZN11UnityEngine7Connect17XRDeviceInfoEvent12XRDeviceInfoD2Ev
Snb:__Z44InitializeTransferFunctionScriptingTraitsForI17RemapPPtrTransferEvR31TransferFunctionScriptingTraits
J3b:__ZNSt3__26vectorI16MessageForwarder13stl_allocatorIS1_L18MemLabelIdentifier7ELi8EEE6resizeEj
Dif:_X509Chain_SelectBestFromCollection_m1068759221
uIi:_SymmetricTransform_TransformBlock_m851059707
ZIh:__ZL68IntPtr_t_CustomAttributesCacheGenerator_IntPtr_ToPointer_m4157623054P21CustomAttributesCache
KDh:_Enumerator_System_Collections_IEnumerator_Reset_m2261065994_AdjustorThunk
P0e:_ScrollRect_get_verticalNormalizedPosition_m3693218937
xgb:__ZN18LoadSceneOperation21MustCompleteNextFrameEv
$2e:_Slider_UpdateDrag_m1102107039
Y4d:_MonoMethodInfo_get_method_info_m88651774
fM:__ZNK12AudioManager16GetAudioListenerEv
uId:_Int32_System_IConvertible_ToDateTime_m1824716955
nhd:_RuntimeTypeHandle__ctor_m3315980708_AdjustorThunk
xVi:_Canvas_set_overrideSorting_m4088794420
cXb:__ZNSt3__26vectorI11CameraStackNS_9allocatorIS1_EEE8__appendEj
yu:__ZN7mecanim9animation12GetHumanPoseERKNS0_18ClipMuscleConstantEPKNS0_10ValueDeltaERNS_5human9HumanPoseE
eUc:__ZN11UnityEngine9Analytics15UserCustomEvent12CustomParams6InsertEPKcRNS1_11CustomValueE
ow:__ZN22AnimationMixerPlayable17ProcessRootMotionEP35AnimationPlayableEvaluationConstantP32AnimationPlayableEvaluationInputP33AnimationPlayableEvaluationOutput
f1:__Z13GetFileSystemv
sba:__ZNK5Unity4Type21FindAllDerivedClassesER13dynamic_arrayIPKS0_Lj4EENS0_17TypeFilterOptionsE
lca:__ZN13RuntimeStaticI15GUIEventManagerLb0EE16StaticInitializeEPv
c6f:_Version_CompareTo_m3146217210
Qge:_TlsClientCertificate_FindParentCertificate_m3844441401
iEi:_Uri_ParseAsUnixAbsoluteFilePath_m1476768041
dTf:_Array_InternalArray__ICollection_CopyTo_TisKeyValuePair_2_t71524366_m1056941380_gshared
p1f:_Type_get_IsClass_m589177581
B1f:_Type_get_IsSystemType_m624798880
knb:__ZN19ShaderPropertySheet9SetMatrixEN9ShaderLab16FastPropertyNameERK10Matrix4x4fNS_8SetFlagsE
w3a:__Z29GetTextureSizeAllowedMultiple13TextureFormat
DCf:_Decimal_Subtract_m835601464
bgb:__ZNSt3__26vectorIN4core12basic_stringIcNS1_20StringStorageDefaultIcEEEE13stl_allocatorIS5_L18MemLabelIdentifier13ELi16EEE8__appendEj
b8b:__ZN21IntermediateRenderers3AddEP20IntermediateRenderer
dij:_il2cpp_array_element_size
bSd:_MissingMemberException__ctor_m2571045846
GHh:__ZL62ComVisibleAttribute_t1362837655_CustomAttributesCacheGeneratorP21CustomAttributesCache
qyg:_RectTransform_INTERNAL_set_sizeDelta_m188783163
Zf:_glCheckFramebufferStatus
yEj:__ZN6il2cpp2os11EventHandle4WaitEv
kYi:_CustomEventData__ctor_m4146403782
_U:__ZN19CloudServiceHandler20StartEventDispatcherERKN11UnityEngine15CloudWebService18CloudServiceConfigERNS1_23WebRequestRestHeaderMapE
$dd:_GraphicRaycaster__ctor_m646559428
Iyd:_BitArrayEnumerator_get_Current_m4220391712
pWd:__Z37il2cpp_codegen_get_executing_assemblyPK10MethodInfo
Ryg:_Transform_get_parent_m835071599
Jef:_IPAddress_get_ScopeId_m4237202723
Br:__ZN4core8hash_mapIN11UnityEngine9Animation14GenericBindingENS2_10BoundIndexENS2_25GenericBindingHashFunctorENS2_30GenericBindingValueArrayUniqueEE4growEi
Lt:__ZN21AnimationClipPlayable7SetTimeEd
vBi:_ExpressionCollection_get_Item_m3510736379
jhi:__ZL62FontData_t746620069_CustomAttributesCacheGenerator_m_AlignmentP21CustomAttributesCache
D5c:_StandaloneInputModule_get_inputActionsPerSecond_m3946624274
mZf:_UTF8Encoding_InternalGetCharCount_m82458470
xCg:_Vector2__cctor_m2108982652
Ar:__ZN4core8hash_mapIN11UnityEngine9Animation14GenericBindingENS2_10BoundIndexENS2_25GenericBindingHashFunctorENS2_30GenericBindingValueArrayUniqueEE4growEv
Dpj:__ZN14dense_hash_mapI10KeyWrapperIP14Il2CppIUnknownEjN6il2cpp5utils11PointerHashIS1_EENS3_14EqualsComparerINSt3__28equal_toIS2_EEEENS9_9allocatorINS9_4pairIKS3_jEEEEE15set_deleted_keyERSF_
Fba:__ZN22BuiltinResourceManager16StaticInitializeEPv
Qfj:__ZN13Il2CppHashMapIPK14Il2CppAssemblyPK22Il2CppMonoAssemblyNameN6il2cpp5utils11PointerHashIS1_EENSt3__28equal_toIS2_EENSA_9allocatorINSA_4pairIK10KeyWrapperIS2_ES5_EEEEEC2EjRKS9_RKSC_
kpd:_DelegatePInvokeWrapper_AppDomainInitializer_t682969308
m0:__ZN8Remapper6RemoveEi
nWf:_Encoding_GetBytes_m3148649984
CMc:__ZL36CleanupTextRenderingScriptingClassesv
uXb:__ZN15ReflectionProbe17UseRendererResultEP13ProbeRenderer
hlc:__Z34Mesh_CUSTOM_SetArrayForChannelImplP12Il2CppObject30InternalScriptingShaderChannel34InternalScriptingVertexChannelTypeiP11Il2CppArrayi
_Vi:_CanvasRenderer_INTERNAL_CALL_EnableRectClipping_m3318097918
G4f:_UInt64_System_IConvertible_ToDecimal_m806594027_AdjustorThunk
qKe:_Enumerator_System_Collections_IEnumerator_get_Current_m361750367_AdjustorThunk
Hse:_RealProxy_InternalGetTransparentProxy_m1765012608
luh:_List_1__ctor_m3395838871_gshared
wbh:_Collection_1_IsFixedSize_m3698021882_gshared
fwi:_PKCS12__ctor_m1854440921
Voi:_Array_Resize_TisCustomAttributeNamedArgument_t287865710_m885566878_gshared
ZD:__ZN11UnityEngine9Animation28GenericAnimationBindingCache25RegisterIAnimationBindingEPKN5Unity4TypeEiP17IAnimationBinding
OSc:__Z70RectTransformUtility_CUSTOM_INTERNAL_CALL_RectangleContainsScreenPointP12Il2CppObjectRK13Vector2fIcallS0_
kMd:_DirectoryInfo__ctor_m481305441
B9:__ZN10MemoryPoolC2E10MemLabelIdbPKciii
OTc:__ZN14UnityAnalytics25UnregisterGlobalCallbacksEv
WVb:__Z40ProcessCameraIndexListIsNodeVisibleInOutRK22SceneCullingParametersPK9SceneNodePK4AABBR9IndexList
pHi:_GUIScrollGroup_SetHorizontal_m291416666
CVa:__ZN16GraphicsSettings8TransferI17RemapPPtrTransferEEvRT_
pQc:__ZN2UI6Canvas13UpdateBatchesEb
zgf:_X509BasicConstraintsExtension_Decode_m120598446
uz:__ZNK23AnimationPlayableOutput11DerivesFromE17ScriptingClassPtr
Dbi:__ZL64EventType_t3528516131_CustomAttributesCacheGenerator_dragUpdatedP21CustomAttributesCache
tXc:__ZN11UnityEngine7Connect13ConfigHandler12GetListenersERKN4core12basic_stringIcNS2_20StringStorageDefaultIcEEEE
Oqa:__ZN9GfxDevice18AllocRenderSurfaceEb
Iud:_Char__cctor_m2787437263
Q1b:__ZN10TagManager32GetSortingLayerUniqueIDFromValueEi
S6c:_AspectRatioFitter_get_rectTransform_m2996235303
S_:__ZL27CleanupCoreScriptingClassesv
Ydd:_Graphic_UnregisterDirtyMaterialCallback_m2707090617
tJe:_Comparer_1_System_Collections_IComparer_Compare_m1313384821_gshared
Yhc:__Z26AnimationCurve_CUSTOM_InitP12Il2CppObjectP11Il2CppArray
VWj:_glUniform1uiv__wrapper
Bfj:__ZN6il2cpp2vm10Reflection7IsEventEP12Il2CppObject
FZ:__ZN17PersistentManager26GetStreamNameSpaceInternalEi
bG:__ZN4FMOD6System11createSoundEPKcjP22FMOD_CREATESOUNDEXINFOPPNS_5SoundE
ao:FUNCTION_TABLE_iiifiiii
zyc:__ZN13SpeedTreeWind20AdvanceWithoutUpdateEd
ybh:_ReadOnlyCollection_1_System_Collections_Generic_ICollectionU3CTU3E_Add_m1422506275_gshared
Zxf:_DateTime_System_IConvertible_ToDecimal_m1044850612
eaa:__ZN9ShaderLab19CommonPropertyNames13StaticCleanupEPv
G$:__Z31scripting_method_get_returntype18ScriptingMethodPtr
R4a:__ZN15SerializeTraitsI12LightmapDataE8TransferI24GenerateTypeTreeTransferEEvRS0_RT_
Sqf:_SecurityElement_AddAttribute_m311510562
uSj:_glStencilOpSeparate__wrapper
Oac:__ZN4Mesh5SetUvEiPKfjj
S5a:__ZN7Texture13SetAnisoLimitENS_20AnisotropicFilteringE
bO:__ZN11AudioModule16SetListenerPauseEb
Vrd:_Attribute_IsDefined_m4069052474
Th:_emscripten_glCompressedTexSubImage2D
yDa:__ZN13GfxDeviceGLES22MemoryBarrierImmediateEyN2gl17MemoryBarrierTypeE
eBa:__ZN6prcoreL26RemapGenericFloatToIntegerI18TexFormatARGBFloat17TexFormatARGB8888EEvPKNS_9InnerInfoE
yCh:_List_1_set_Capacity_m1977188119_gshared
hdc:__Z46GetShaderModelNumericValueFromRequirementsMask18ShaderRequirements
lCc:_cff_ps_has_glyph_names
yag:_Dictionary_2_Resize_m3287623642_gshared
bBj:_GC_write
uld:_RC2_Create_m2516417038
Idd:_Graphic_OnPopulateMesh_m767318148
d7f:_Dictionary_2_Remove_m4193450060_gshared
dKd:_Int64_TryParse_m3606398488
Rni:_Array_InternalArray__set_Item_TisMark_t3471605523_m1299772331_gshared
Koc:__Z44Register_UnityEngine_GUIStyle_SetDefaultFontv
Pxb:__Z18Transfer_BlittableI18StreamedBinaryReadILb1EELb1EiEvRK29SerializationCommandArgumentsR31RuntimeSerializationCommandInfo
WA:__ZN9BlobWrite8TransferI22OffsetPtrArrayTransferIKN4math7_float3EEEEvRT_PKc17TransferMetaFlags
qIg:__Z173RuntimeInvoker_Int32_t2950945753_RuntimeObject_Int32_t2950945753_Int32_t2950945753_Int32_t2950945753_RuntimeObject_Int32_t2950945753_SByte_t1669577662_ContextU26_t3937453398PFvvEPK10MethodInfoPvPS4_
dwh:_List_1__ctor_m2576108087_gshared
pej:__ZN15dense_hashtableINSt3__24pairIK10KeyWrapperINS1_IPK12PropertyInfoP11Il2CppClassEEEjEES9_17ReflectionMapHashIS8_EN14dense_hash_mapIS9_jSD_NS9_14EqualsComparerINS0_8equal_toIS8_EEEENS0_9allocatorISB_EEE9SelectKeyESI_SK_E12maybe_shrinkEv
Cwi:_X509Certificate_get_DSA_m565099499
oyb:__Z18Transfer_BlittableI18StreamedBinaryReadILb1EELb1EsEvRK29SerializationCommandArgumentsR31RuntimeSerializationCommandInfo
EXf:_StringBuilder_Remove_m940064945
ojd:_DESCryptoServiceProvider_GenerateIV_m683687014
iGe:_InternalEnumerator_1_get_Current_m3792939945_gshared
IVc:__ZN22BaseUnityConnectClient17OnEnterStateReadyEv
R3e:_Text_get_fontSize_m1677872538
Jjd:_DSACryptoServiceProvider_get_PublicOnly_m3933928860
RTa:__ZN14GrowableBufferD2Ev
mhc:__Z29Input_CUSTOM_GetMouseButtonUpi
OGd:_Int16_Parse_m138525169
w7i:__ZN6il2cpp6icalls8mscorlib6System8MonoType16InternalGetEventEP20Il2CppReflectionTypeP12Il2CppStringi
aFi:_UriScheme_t722425697_marshal_pinvoke_back
dEc:_UNITY_tt_face_load_maxp
Bhc:__Z46Input_CUSTOM_INTERNAL_set_compositionCursorPosRK13Vector2fIcall
Et:__ZN7mecanim5human12FullBodyMaskEv
Q6e:_BigInteger_ToString_m3475000413
dcb:__ZN19ShaderPropertySheet11ComputeHashEv
J1i:__ZN30dense_hashtable_const_iteratorI10KeyWrapperIPK19Il2CppGenericMethodES4_N6il2cpp8metadata23Il2CppGenericMethodHashEN14dense_hash_setIS4_S7_NS4_14EqualsComparerINS6_26Il2CppGenericMethodCompareEEENSt3__29allocatorIS4_EEE8IdentityESB_SE_EppEv
rT:__ZN11UnityEngine15CloudWebService20WebRequestRestClient6IsDoneEv
$ui:_X509CertificateCollection_get_Item_m1033426577
Qi:_llvm_fabs_f32
WS:__ZN11UnityEngine15CloudWebService16SessionContainer16GetJsonDataBlockEjRKN4core12basic_stringIcNS2_20StringStorageDefaultIcEEEERS6_PjSA_
f8e:_ASN1_Decode_m1695284166
iGf:_Enum_ToString_m3248653065
VZ:__ZN14SafeBinaryReadD2Ev
V2b:__Z13RegisterClassI7TextureEvv
pqh:_Enumerator_MoveNext_m3859993671_gshared
Ezb:__ZN8Gradient8TransferI18StreamedBinaryReadILb1EEEEvRT_
kkf:_Capture__ctor_m3103117740
U7a:__ZN4core8hash_mapINS_12basic_stringIcNS_20StringStorageDefaultIcEEEE13dynamic_arrayI4PPtrI6SpriteELj4EENS_4hashIS4_EENSt3__28equal_toIS4_EEEixERKS4_
oHg:__Z113RuntimeInvoker_Void_t1185182177_RuntimeObject_Int64_t3736567304_RuntimeObject_Int64_t3736567304_Int64_t3736567304PFvvEPK10MethodInfoPvPS4_
uwg:_RangeInt_get_end_m4128831787_AdjustorThunk
$oj:__ZN6il2cpp6icalls8mscorlib6System4Type15MakeGenericTypeEP20Il2CppReflectionTypeP11Il2CppArray
qj:_SDL_PauseAudio
wAd:_Hashtable_Clone_m3078962909
Aij:_il2cpp_class_from_type
y8i:__ZN6il2cpp2os4File11GetStdErrorEv
daa:__ZN9ShaderLab19CommonPropertyNames16StaticInitializeEPv
uIe:_Comparer_1__cctor_m2517796511_gshared
$C:__ZN7mecanim9animation18CreateAvatarOutputEPKNS0_14AvatarConstantEbbRNS_6memory9AllocatorE
hqd:_Array_GetLongLength_m561139708
H2e:_Slider_set_maxValue_m2251404465
ZL:__ZN11AudioSource23VirtualRedirectTransferER24GenerateTypeTreeTransfer
yac:__ZN7Texture11SetWrapModeE15TextureWrapMode
FUc:__ZN14UnityAnalytics15SendCustomEventERN11UnityEngine9Analytics15UserCustomEventE
p8a:__ZN14Texture2DArray23VirtualRedirectTransferER14SafeBinaryRead
eSd:_MissingMemberException__ctor_m1220732369
cRb:__ZNK6Camera21CalculateCanDoShadowsEv
llg:_Application_InvokeOnBeforeRender_m2875673833
Evj:__ZN6il2cpp2os6Thread12SetStackSizeEj
rZe:_MaskableGraphic_RecalculateMasking_m183336762
Esi:_Array_InternalArray__get_Item_TisRuntimeObject_m3347010206_gshared
_1d:_TypeBuilder_IsSubclassOf_m3458909121
tac:__ZNK8Renderer16IsVisibleInSceneEv
tZ:__Z13VFormatBufferPciPKcz
KAb:__Z18Transfer_BlittableI18StreamedBinaryReadILb0EELb1EhEvRK29SerializationCommandArgumentsR31RuntimeSerializationCommandInfo
Tmd:_X509Certificate__cctor_m198658613
svg:_PlayableHandle_Equals_m1666612586_AdjustorThunk
iBa:__ZN6prcoreL27StretchGenericFloatBilinearI15TexFormatRFloatEEvPKNS_9InnerInfoE
I$h:__ZL139ServicePointManager_t170559685_CustomAttributesCacheGenerator_ServicePointManager_t170559685____CheckCertificateRevocationList_PropertyInfoP21CustomAttributesCache
uGf:_Enum_ToObject_m1628250250
rw:__Z24ProcessAnimationMixBeginP35AnimationPlayableEvaluationConstantP32AnimationPlayableEvaluationInputP33AnimationPlayableEvaluationOutput
JAh:_List_1_set_Item_m2057272351_gshared
lya:__Z14PadImageBorderR14ImageReferenceii
Rcj:__ZN15dense_hashtableINSt3__24pairIK10KeyWrapperINS1_IPK10MethodInfoP11Il2CppClassEEEjEES9_17ReflectionMapHashIS8_EN14dense_hash_mapIS9_jSD_NS9_14EqualsComparerINS0_8equal_toIS8_EEEENS0_9allocatorISB_EEE9SelectKeyESI_SK_E4findERSA_
T4i:__ZN6il2cpp2vm13MetadataCache28GetFieldDefaultValueForFieldEPK9FieldInfo
yQf:_Array_IndexOf_TisUIVertex_t4057497605_m3336763564_gshared
Vw:__ZN27AnimationLayerMixerPlayableD2Ev
j9c:_ColorBlock_Equals_m518833916_AdjustorThunk
t7h:__ZL66PersistentCall_t3407714124_CustomAttributesCacheGenerator_m_TargetP21CustomAttributesCache
iI:__ZN12AudioManager39HandlePendingAudioConfigurationCallbackEv
nk:_emscripten_glIsFramebuffer
Haf:_RSAManaged_EncryptValue_m799827583
$1:__ZN12_GLOBAL__N_16qAtan2Eff
rk:_JS_Sound_SetLoopPoints
Rca:__ZN15dense_hashtableINSt3__24pairIKyP17VertexDeclarationEEy14GfxGenericHashIyEN14GfxDoubleCacheIyS4_S7_NS0_8equal_toIyEEN31GfxDoubleCacheConcurrencyPolicy11LocklessGetE42GfxDoubleCacheDefaultEmptyDeletedGeneratorIyEE9SelectKeyESA_13stl_allocatorIS5_L18MemLabelIdentifier24ELi16EEE14squash_deletedEv
lN:__ZN12AudioManager17ShouldSourcePauseEb
CFj:__ZN6il2cpp2vm26MetadataAllocGenericMethodEv
sNf:_Array_InternalArray__ICollection_Remove_TisUInt16_t2177724958_m1766181761_gshared
iHa:__ZN19ConstantBuffersGLES12RecordRenderEv
hsc:__ZN9JSONWrite8TransferI10RectOffsetEEvRT_PKc17TransferMetaFlags
Sxa:__ZN4crnd12symbol_codec11decode_bitsEj
fAc:_cf2_doFlex
NIi:_AesManaged_GenerateIV_m1368817386
SRa:__ZN13dynamic_arrayI17SortingLayerEntryLj4EE6insertEPS0_jRKS0_
mI:__ZN4FMOD6System12createReverbEPPNS_6ReverbE
Hyj:__ZN6il2cpp2vm6String21InitializeEmptyStringEP11Il2CppClass
Mw:__ZN7mecanim19ValueArrayBlendNodeILb1EEEvRKNS_10ValueArrayERKNS_14ValueArrayMaskERS1_RS4_RNS_16ValueArrayWeightEf
Eib:__Z16MarkDependenciesR27GarbageCollectorThreadStatej
lTi:_ObjectPool_1_get_countInactive_m526975942_gshared
yse:_RemotingServices_DisposeIdentity_m2605848806
l2:__ZNK9Transform11GetPositionEv
kmg:_Bounds_set_size_m4127623202
PFd:_GuidParser_Reset_m2640004655
FWa:__ZN23SharedMeshRenderingData18UnloadVertexStreamEi
a8b:__ZN31CanvasBatchIntermediateRenderer11AddSubBatchERK16DrawBuffersRangePK19ShaderPropertySheet
K6b:__ZN19RenderEventsContextC2Ei
gR:__Z6simd4fRKf
Vk:_emscripten_glEnable
FAe:_InternalEnumerator_1_System_Collections_IEnumerator_get_Current_m2982675020_gshared
LRa:__ZN10TagManager23VirtualRedirectTransferER14SafeBinaryRead
Pii:__ZL51RawImage_t3182918964_CustomAttributesCacheGeneratorP21CustomAttributesCache
NTb:__Z15InitLightMeshesv
H3d:_MonoCMethod_ToString_m3992577062
Dn:FUNCTION_TABLE_iifiii
N5a:__ZN15QualitySettings8TransferI19StreamedBinaryWriteILb0EEEEvRT_
AYe:_LayoutUtility_U3CGetFlexibleHeightU3Em__7_m2991026842
Jzc:_cf2_arrstack_init
Nsi:_Array_InternalArray__get_Item_TisResourceCacheItem_t51292791_m1306056717_gshared
aVg:__Z157RuntimeInvoker_Void_t1185182177_RuntimeObject_RuntimeObject_RuntimeObject_RuntimeObject_RuntimeObject_RuntimeObject_RuntimeObject_RuntimeObject_RuntimeObjectPFvvEPK10MethodInfoPvPS4_
jX:__Z15CleanLogHandler7LogTypePKcz
IUd:_NumberFormatter_NumberToString_m2481532188
Hla:__ZN9ShaderLab19SerializedSubShader8TransferI19StreamedBinaryWriteILb0EEEEvRT_
S0e:_ScrollRect_InternalGetBounds_m599803667
aEb:__ZN6Camera17RemoveImageFilterERK11ImageFilter
mna:__ZNSt3__218__insertion_sort_3IR25ValueParameterArraySorterPN20GpuProgramParameters14ValueParameterEEEvT0_S6_T_
w$h:__ZL67EditorBrowsableAttribute_t1475454531_CustomAttributesCacheGeneratorP21CustomAttributesCache
Bzd:_Comparer__cctor_m3311686689
hAe:_InternalEnumerator_1_get_Current_m3500427238_AdjustorThunk
XQc:__ZN2UI26InitializeDeviceForOverlayEi
e9:__Z27LogRepeatingStringWithFlagsRKN4core12basic_stringIcNS_20StringStorageDefaultIcEEEE15LogMessageFlagsi
R4f:_UInt64_System_IConvertible_ToSingle_m925613075
vGf:_Enum_IsDefined_m1442314461
A_f:_Thread__cctor_m817723615
FMi:_AudioExtensionManager_RegisterBuiltinDefinitions_m2742744104
du:__ZN17AnimationPlayable28ComputeNeedsBindingRebuildedEv
kt:__ZN17AnimationPlayable23RequestAllocateBindingsEv
cxf:_DecoderReplacementFallbackBuffer_Fallback_m1261056214
TWd:_Binder_get_DefaultBinder_m950908649
CMd:_StreamReader__ctor_m1616861391
zYc:__ZN18UnityConnectClient33OnPlayerSessionStateChangedStaticEPS_jyy
mnf:_RSA_ToXmlString_m2922661427
bU:__ZNK11UnityEngine15CloudWebService23WebRequestUploadHandler11GetProgressEv
Sua:__ZN7ApiGLES4LoadE16GfxDeviceLevelGL
c5a:__ZN18StreamedBinaryReadILb0EE21TransferSTLStyleArrayI13dynamic_arrayI31EnlightenSystemAtlasInformationLj8EEEEvRT_17TransferMetaFlags
rsj:__ZN15dense_hashtableI10KeyWrapperIP18Il2CppGenericClassES3_N6il2cpp8metadata22Il2CppGenericClassHashEN14dense_hash_setIS3_S6_NS3_14EqualsComparerINS5_25Il2CppGenericClassCompareEEENSt3__29allocatorIS3_EEE8IdentityESA_SD_E15insert_noresizeERKS3_
R5b:__ZZL31RegisterOtherRendererPropertiesR22GenericPropertyBindingEN30Wrapper_RendererReceiveShadows13GetFloatValueEPv
QLf:_Array_InternalArray__ICollection_Contains_TisSlot_t384495010_m688761886_gshared
v3a:__ZN17SharedTextureDataC2E10MemLabelIdii13TextureFormatjiibb
ZWg:__Z114RuntimeInvoker_RuntimeObject_RuntimeObject_Int32_t2950945753_Int32_t2950945753_Int32_t2950945753_Int32_t2950945753PFvvEPK10MethodInfoPvPS4_
hHb:__ZN8Material11SetPassFastEPN9ShaderLab4PassER17ShaderPassContextP6Shaderib
xYc:__ZN11UnityEngine7Connect20BasePersistentValues10SaveValuesER9JSONWrite
z8g:_Collection_1_IsFixedSize_m3748602684_gshared
$xf:_DateTime_System_IConvertible_ToDouble_m2116720007
dpg:_Display_GetSystemExtImpl_m2808197389
O$f:_WaitHandle_WaitOne_m2577152516
Gmd:_X509Certificate_PEM_m1177570576
Ove:_ArrayReadOnlyList_1_GetEnumerator_m1835926958_gshared
Bbc:__Z14ScaleCurveTimeR17AnimationCurveTplIfEf
rca:__ZN22VirtualJoystickManagerC2Ev
Tba:__ZN20GlobalCachingManager7DisposeEv
aOb:__Z12SetupLODFadeR9GfxDeviceR17ShaderPassContextf
n1a:__ZNK14PlayableOutput7GetTypeEv
ATb:__ZL24CollectForwardObjectsJobP27CollectForwardObjectsHeader
vVb:__Z13IsNodeVisibleRK9SceneNodeRK4AABBRK22SceneCullingParameters
aRf:_Array_InternalArray__IndexOf_TisLabelFixup_t858502054_m1491765395_gshared
D5e:_SortKeyBuffer_AppendCJKExtension_m2591091991
QSc:__Z57RectTransformUtility_CUSTOM_INTERNAL_CALL_PixelAdjustRectP12Il2CppObjectS0_R5RectTIfE
gZf:_UTF8Encoding_GetByteCount_m4153686982
vWb:__Z24ScheduleCullingAllGroupsR8JobFenceRK22SceneCullingParametersiRK13CullingOutputRK13dynamic_arrayIP12CullingGroupLj4EERKS_
LVj:_emscripten_glStencilMask__wrapper
dGg:__Z49RuntimeInvoker_Void_t1185182177_Double_t594665363PFvvEPK10MethodInfoPvPS4_
z1i:__ZN15dense_hashtableI10KeyWrapperIPK19Il2CppGenericMethodES4_N6il2cpp8metadata23Il2CppGenericMethodHashEN14dense_hash_setIS4_S7_NS4_14EqualsComparerINS6_26Il2CppGenericMethodCompareEEENSt3__29allocatorIS4_EEE8IdentityESB_SE_EC2ERKSH_j
LTa:__ZN15RenderNodeQueue7CleanupEv
r5d:_MonoProperty_CreateGetterDelegate_m2478402519
Kxc:__ZN16NovodexAllocator8allocateEjPKcS1_i
f0a:__ZN39DeprecatedFastPropertyNameSerialization8TransferI14SafeBinaryReadEEvRT_
twi:_DeriveBytes_DeriveIV_m973925711
FId:_Int32_System_IConvertible_ToSByte_m3133688512
itj:__ZN15dense_hashtableINSt3__24pairIK10KeyWrapperIP12Il2CppObjectEN6il2cpp2gc9CachedCCWEEES5_NS7_5utils11PointerHashIS3_EEN14dense_hash_mapIS5_S9_SD_NS5_14EqualsComparerINS0_8equal_toIS4_EEEENS0_9allocatorISA_EEE9SelectKeyESI_SK_E12expand_arrayEjN21dense_hash_map_traits17integral_constantIbLb0EEE
xTb:__ZN9ShaderLab10GrabPassesD2Ev
$0e:_ScrollRect_CalculateOffset_m927043599
A8a:__ZN14Texture2DArray13UploadTextureEv
bZe:_MaskableGraphic_UpdateCull_m2805101913
MEc:_tt_cmap14_done
Agb:__ZN18AwakeFromLoadQueue25RegisterObjectInstanceIDsEv
Yni:_Array_InternalArray__set_Item_TisColor32_t2600501292_m1891325855_gshared
_w:__ZNK27AnimationLayerMixerPlayable11DerivesFromE17ScriptingClassPtr
YKc:__ZN20TextRenderingPrivate19NativeTextGenerator15InsertCharacterEiPj
fTd:_MonoType_get_attributes_m1332507727
EGi:_GUIContent_ClearStaticCache_m1205116045
Fte:_BinaryCommon__cctor_m2978407547
Oud:_Char_System_IConvertible_ToByte_m2347554595
FMc:__ZN20TextRenderingPrivate15DynamicFontData21GetFontMetricsForFaceERK13dynamic_arrayIN4core17string_with_labelILi35EEELj4EEiRKS1_I4PPtrIN13TextRendering4FontEELj4EEPfSF_
Gph:_IndexedSet_1__ctor_m2250384602_gshared
t3f:_UInt16_TryParse_m4139137016
qxj:__ZN6il2cpp2gc16GarbageCollector9FreeFixedEPv
aWf:_Encoding__ctor_m2997749867
ksg:_ManagedStreamHelpers_ManagedStreamSeek_m3158782053
mDi:_ExpressionAssertion_Compile_m2166597834
tDb:__ZN16ScriptingManagerD0Ev
ktf:_Single_System_IConvertible_ToSByte_m1208276900_AdjustorThunk
Yzj:__ZN6il2cpp6icalls8mscorlib6System7Convert24InternalFromBase64StringEP12Il2CppStringb
Xqj:__ZN30dense_hashtable_const_iteratorINSt3__24pairIK10KeyWrapperINS1_IPKcS4_EEEiEES6_24NamespaceAndNamePairHashN14dense_hash_mapIS6_iS9_NS6_14EqualsComparerI26NamespaceAndNamePairEqualsEENS0_9allocatorIS8_EEE9SelectKeyESD_SF_EppEv
Nfc:__Z44Register_UnityEngine_Component_get_transformv
_B:__ZN12_GLOBAL__N_120ProcessPlayableGraphERN8Animator11AnimatorJobER35AnimationPlayableEvaluationConstantR32AnimationPlayableEvaluationInputR33AnimationPlayableEvaluationOutputPFvS4_R17AnimationPlayableEPFvS4_S6_S8_EPFvS8_S4_S6_S8_fESE_MS9_FvPS3_PS5_PS7_E
tWi:_CanvasRenderer_get_absoluteDepth_m2703237819
CKf:_TextInfo_ToLower_m2744057472
eKb:__ZN17ArchiveFileSystem12MountArchiveEPKcS1_
Ofg:_EqualityComparer_1_System_Collections_IEqualityComparer_Equals_m3977314386_gshared
mrc:__Z18Transfer_BlittableI9JSONWriteLb1E8Vector4fEvRK29SerializationCommandArgumentsR31RuntimeSerializationCommandInfo
zn:FUNCTION_TABLE_viififiii
JHf:_CCGregorianCalendar_year_from_fixed_m463929682
bPc:__ZN2UI13CanvasManagerD0Ev
PX:__ZThn32_NK8Renderer14GetSubsetIndexEi
Aog:_Debug_get_unityLogger_m2239795986
Hbh:_ReadOnlyCollection_1_System_Collections_IEnumerable_GetEnumerator_m2123446296_gshared
kbe:_MD2Managed_Initialize_m2341076836
Whh:_ReadOnlyCollection_1_System_Collections_IList_Add_m4240023232_gshared
Hra:__ZN9GfxDevice15ImmediateVertexEfff
E2b:__Z13RegisterClassI8MaterialEvv
n4a:__ZNK16LightmapSettings22GetTypeVirtualInternalEv
Zoa:__ZN13GfxDeviceGLES15SetStencilStateEPK18DeviceStencilStatei
Ctd:_Buffer_BlockCopyInternal_m418318694
_Jj:_cycle
Ozj:__ZN6il2cpp2vm8Profiler7GCEventE13Il2CppGCEvent
QHg:__Z76RuntimeInvoker_Void_t1185182177_RuntimeObject_RuntimeFieldHandle_t1871169219PFvvEPK10MethodInfoPvPS4_
Gd:_emscripten_glUniform1iv
qmb:__ZN16MemoryFileSystemD2Ev
fIg:__Z150RuntimeInvoker_Int32_t2950945753_RuntimeObject_Int32_t2950945753_Int32_t2950945753_RuntimeObject_Int32_t2950945753_Int32_t2950945753_Int32_t2950945753PFvvEPK10MethodInfoPvPS4_
gsd:_BitConverter_DoubleToInt64Bits_m3574395137
Dzf:_DateTime_Parse_m3729096069
iwh:_List_1_System_Collections_IList_Add_m1540114404_gshared
vfc:__Z37Register_UnityEngine_Camera_get_depthv
z3g:__Z92RuntimeInvoker_RuntimeObject_SByte_t1669577662_SByte_t1669577662_RuntimeObject_RuntimeObjectPFvvEPK10MethodInfoPvPS4_
kQd:_StringReader_Read_m3322058819
Kle:_CrossAppDomainChannel_get_ChannelPriority_m3418073750
ZVe:_Selectable_StartColorTween_m3618813981
B1c:_BaseInputModule_HandlePointerExitAndEnter_m1705532066
S$b:__Z23ConvertIntegerToTypePtrItEbPvR14SafeBinaryRead
hEf:_Delegate_CombineImpl_m3572135514
pHd:_NumberFormatter_IntegerToString_m1679294587
mfh:_ReadOnlyCollection_1_System_Collections_IList_RemoveAt_m422909114_gshared
FC:__ZN7mecanim5human29HumanGetGoalOrientationOffsetENS0_4GoalE
Xd:_emscripten_glStencilFunc
n5c:__Z46il2cpp_codegen_get_marshal_directive_exceptionPKc
CTe:_InputField_get_isFocused_m709836844
ce:_glGetActiveUniformBlockName
Nf:_emscripten_glUniform1fv
HDi:_Parser_IsIgnoreCase_m2210120858
Thc:__Z39Quaternion_CUSTOM_INTERNAL_CALL_InverseRK11QuaternionfRS_
hJ:__ZN4FMOD7Channel20set3DConeOrientationEP11FMOD_VECTOR
qn:FUNCTION_TABLE_iiifii
XXd:_AssemblyBuilder_not_supported_m1735277432
xuj:__ZN6il2cpp2vm12GenericClass11SetupEventsEP11Il2CppClass
KHc:_tt_delta_interpolate
iFc:_tt_cmap12_get_info
fqj:__ZN6il2cpp2vm15ReboxIReferenceEP14Il2CppIUnknownP11Il2CppClass
OXi:__ZN6il2cpp6icalls8mscorlib6System7Decimal14decimalCompareEP19il2cpp_decimal_reprS5_
c7f:_Dictionary_2_OnDeserialization_m4209543208_gshared
tAj:__ZThn4_N6il2cpp2vm13CachedCCWBaseINS0_13ManagedObjectEE7ReleaseEv
arg:_GameObject_AddComponent_m136524825
sSh:__ZL62SoapMethodAttribute_t1935009310_CustomAttributesCacheGeneratorP21CustomAttributesCache
vRg:__Z100RuntimeInvoker_Void_t1185182177_RuntimeObject_Int32_t2950945753_Int32_t2950945753_UInt16_t2177724958PFvvEPK10MethodInfoPvPS4_
VVj:_glCopyTexImage2D__wrapper
nFf:_Double_System_IConvertible_ToUInt32_m271206838
V7:__GLOBAL__sub_I_runtime_graphics_billboard_0_cpp
sHb:__Z18ClearByDrawingQuad13GfxClearFlagsRK10ColorRGBAffjR17ShaderPassContext
HAa:__ZN6prcoreL17RemapGenericFloatI14TexFormatRHalf15TexFormatRFloatEEvPKNS_9InnerInfoE
QAc:_cf2_getBlueValues
RNb:__Z16ShouldUseShadowsb
oea:__ZN15DirectorManager21RebuildStageCallbacksEv
FHb:__ZN19RuntimeSceneManager9LoadSceneERKN4core12basic_stringIcNS0_20StringStorageDefaultIcEEEES6_S6_RK9UnityGUIDiNS_11LoadingModeE
Zta:__ZN7ApiGLES10DrawArraysE16GfxPrimitiveTypejjj
EG:__ZN10SampleClip13LoadBaseSoundEv
Vnd:_SmallXmlParser_SkipWhitespaces_m4243606597
xIf:_CompareInfo_IndexOf_m2631915198
DYd:_ConstructorBuilder_GetCustomAttributes_m2495332786
pud:_Byte_CompareTo_m4285128861
U2c:_TriggerEvent__ctor_m87299207
nQ:__Z57AudioSource_CUSTOM_INTERNAL_CALL_ClearExtensionPropertiesP12Il2CppObjectRK12PropertyName
Ltj:__ZN15dense_hashtableINSt3__24pairIK10KeyWrapperIP12Il2CppObjectEN6il2cpp2gc9CachedCCWEEES5_NS7_5utils11PointerHashIS3_EEN14dense_hash_mapIS5_S9_SD_NS5_14EqualsComparerINS0_8equal_toIS4_EEEENS0_9allocatorISA_EEE9SelectKeyESI_SK_E15insert_noresizeERKSA_
$ca:__ZL50StaticRegisterSceneLoadedCallback_LightmapSettingsPv
j1a:__ZN22DeviceMVPMatricesStateC2ER9GfxDevice
an:FUNCTION_TABLE_iifii
W6a:__ZNSt3__26vectorI13dynamic_arrayI8Vector2fLj4EENS_9allocatorIS3_EEE6assignINS_11__wrap_iterIPS3_EEEENS_9enable_ifIXaasr21__is_forward_iteratorIT_EE5valuesr16is_constructibleIS3_NS_15iterator_traitsISC_E9referenceEEE5valueEvE4typeESC_SC_
u4a:__ZN21EnlightenSceneMapping8TransferI14SafeBinaryReadEEvRT_
Qhj:__ZN6il2cpp2vm10Reflection12HasAttributeEP9FieldInfoP11Il2CppClass
Pm:FUNCTION_TABLE_iiffi
kc:invoke_viiifi
q5d:_MonoProperty_GetCustomAttributes_m3619796755
Aqe:_MethodDictionary_System_Collections_IEnumerable_GetEnumerator_m4169036899
eMa:__ZNK11AssetBundle14GetPreloadDataEiR13dynamic_arrayIiLj4EE
Omf:_RIPEMD160Managed_JJJ_m4161373884
$ag:_DefaultComparer_Equals_m3257444875_gshared
mf:_JS_Sound_SetPosition
dZa:__ZN19RenderBufferManager13GetTempBufferEii17DepthBufferFormat19RenderTextureFormatj22RenderTextureReadWrite14VRTextureUsagei23RenderTextureMemoryless
t4i:__ZL13GetSharedInstPK17Il2CppGenericInst
QVc:__ZN22BaseUnityConnectClient17SaveSessionValuesEv
kye:_InternalEnumerator_1_get_Current_m476140818_gshared
DTb:__Z24SetupActiveLightsContextR21ActiveLightingContextRK12ActiveLightsRK11CullResultsP14ShadowMapCacheRK10MinMaxAABB
ajc:__Z38Sprite_CUSTOM_INTERNAL_get_textureRectP12Il2CppObjectP5RectTIfE
Cgj:__ZNK15dense_hashtableINSt3__24pairIK10KeyWrapperIPK22Il2CppGenericParameterEPK24MonoGenericParameterInfoEES6_N6il2cpp5utils11PointerHashIS4_EEN14dense_hash_mapIS6_SA_SF_NS6_14EqualsComparerINS0_8equal_toIS5_EEEENS0_9allocatorISB_EEE9SelectKeyESK_SM_E3endEv
edc:__ZN9TextAsset7SetTextERKN4core12basic_stringIcNS0_20StringStorageDefaultIcEEEE
ISa:__ZN6Camera8TransferI24GenerateTypeTreeTransferEEvRT_
Ha:invoke_iiiiiiif
Ea:invoke_iiiiiiii
jVf:_Array_InternalArray__set_Item_TisByte_t1134296376_m3104140039_gshared
Gxg:_Rect_ToString_m447614148
Xwi:_PKCS12_GetBytes_m415958948
VWb:__ZN8Renderer17PendingAddToSceneEv
QYj:b122
TYj:b125
SYj:b124
VYj:b127
UYj:b126
tic:__Z52Register_UnityEngine_RectTransform_INTERNAL_get_rectv
xtg:_Mesh_SetSizedArrayForChannel_m2565120436
E_:__Z21PostprocessStacktracePKcRN4core12basic_stringIcNS1_20StringStorageDefaultIcEEEE
lsg:_ManagedStreamHelpers_ManagedStreamLength_m2930872960
veb:__ZN18StreamedBinaryReadILb0EE21TransferSTLStyleArrayI13dynamic_arrayI16SplashScreenLogoLj4EEEEvRT_17TransferMetaFlags
Hvi:_BasicConstraintsExtension_Encode_m2009213240
Gfc:__Z47Register_UnityEngine_Camera_get_allCamerasCountv
u8c:___clang_call_terminate
TVc:__ZN22BaseUnityConnectClient20StartEventDispatcherEv
Tac:__ZNSt3__26vectorIj13stl_allocatorIjL18MemLabelIdentifier1ELi16EEE6assignIPKtEENS_9enable_ifIXaasr21__is_forward_iteratorIT_EE5valuesr16is_constructibleIjNS_15iterator_traitsIS9_E9referenceEEE5valueEvE4typeES9_S9_
qB:__ZN7mecanim9animation16EvaluateAvatarIKEPKNS0_14AvatarConstantEPKNS0_11AvatarInputEPNS0_12AvatarOutputEPNS0_12AvatarMemoryEPNS0_15AvatarWorkspaceEb
nCa:__ZL25ProgramUniformMatrix4x3fvPK7ApiGLESjiihPKv
qLb:__ZN12InputManager13InputEndFrameEv
Mtg:_Object_get_name_m4211327027
Clj:__ZN6il2cpp2vm6Thread5SetupEP12Il2CppThread
ULe:_Enumerator_System_Collections_IDictionaryEnumerator_get_Key_m2500634048_gshared
dLj:___munmap
dg:_localtime_r
wMb:__ZN22RenderingCommandBuffer13GetAndCheckRTE24BuiltinRenderTextureTypeRKN9ShaderLab16FastPropertyNameEPKcPP13RenderTexture
Qca:__ZN14GfxDoubleCacheIyP17VertexDeclaration14GfxGenericHashIyENSt3__28equal_toIyEEN31GfxDoubleCacheConcurrencyPolicy11LocklessGetE42GfxDoubleCacheDefaultEmptyDeletedGeneratorIyEEC2Ev
_W:__Z19free_alloc_internalPv10MemLabelId
IYf:_UTF32Decoder_GetChars_m1925558948
gg:_strftime
eFa:__ZN7Texture33SetStoredColorSpaceNoDirtyNoApplyE17TextureColorSpace
d7d:_ResourceSet__ctor_m3618395942
jCf:_Decimal_System_IConvertible_ToDouble_m3125524987_AdjustorThunk
F1:__ZN12FileAccessorD2Ev
SWa:__ZN14VertexDataInfoC2Ev
axj:__ZN6il2cpp2gc16GarbageCollector14CollectALittleEv
B8b:__ZNK9HPlayable15GetPlayableTypeEv
bzb:__ZL17Transfer_GUIStyleI18StreamedBinaryReadILb1EELb1EEvRK29SerializationCommandArgumentsR31RuntimeSerializationCommandInfo
n_e:_RectMask2D_IsRaycastLocationValid_m1652308696
m7i:__ZN6il2cpp6icalls8mscorlib6SystemL9IsPrivateEPK12PropertyInfo
exi:_X501_ToString_m1148552872
vyg:_RectTransform_add_reapplyDrivenProperties_m1374850920
baa:__ZN9shadertag10InitializeEv
cOb:__ZN13BatchRenderer20RenderSingleWithPassER17ShaderPassContextPK18SharedMaterialDataP6ShaderPN9ShaderLab4PassEiPKNS7_10GrabPassesEjib15BatchBreakCause
K5a:__ZN15QualitySettings14QualitySetting8TransferI24GenerateTypeTreeTransferEEvRT_
Jkc:__Z44Register_UnityEngine_Object_DestroyImmediatev
VEd:_Convert_ToSingle_m835189399
T9b:__ZN22BlockMemoryCacheWriter14LockCacheBlockEjPPhS1_
Yuc:__Z22TransferField_NonArrayI8JSONRead27Converter_SimpleNativeClassI8GUIStyleEEvRK23StaticTransferFieldInfoR31RuntimeSerializationCommandInfoRT0_
Ng:_llvm_eh_typeid_for
v2b:__Z13RegisterClassI10GameObjectEvv
iqe:_RemotingServices_FindInterfaceMethod_m2125212568
tz:__ZNK23AnimationPlayableOutput7GetTypeEv
TPd:_StreamWriter__cctor_m1229272693
eGf:_Enum_System_IConvertible_ToSByte_m779472798
q1f:_Type_get_IsInterface_m3284996719
pBb:__Z18Transfer_BlittableI18StreamedBinaryReadILb0EELb1E8Vector4fEvRK29SerializationCommandArgumentsR31RuntimeSerializationCommandInfo
Mag:_Dictionary_2_U3CCopyToU3Em__0_m2023886030_gshared
lVj:_glBindVertexArray__wrapper
kgd:_SerializationInfo__ctor_m2923079689
M$a:__ZN8Material8TransferI14SafeBinaryReadEEvRT_
X1a:__ZN12CubemapArray17UploadToGfxDeviceEv
UGd:_Int32_JumpOverWhite_m208298144
V_g:__Z53RuntimeInvoker_Int32_t2950945753_UIVertex_t4057497605PFvvEPK10MethodInfoPvPS4_
sXj:_emscripten_glGetUniformiv__wrapper
mAj:__ZN6il2cpp2vm13ManagedObject14QueryInterfaceERK10Il2CppGuidPPv
aH:__ZN11AudioSource4StopEb
Xqb:__ZN14SafeBinaryRead21TransferSTLStyleArrayI13dynamic_arrayI10Matrix4x4fLj4EEEEvRT_17TransferMetaFlags
vTa:__ZN15LODGroupManager26CollectAllLODGroupManagersERK16CoreCameraValuesR13dynamic_arrayIPS_Lj4EEb
FHa:__ZN18GlslGpuProgramGLESD2Ev
iZb:__ZN13RenderTexture14SetVolumeDepthEi
yS:__ZN11UnityEngine15CloudWebService14DataErrorEvent12ToJsonStringERN4core12basic_stringIcNS2_20StringStorageDefaultIcEEEEjPKc
NQg:__Z86RuntimeInvoker_Void_t1185182177_UInt16_t2177724958_SByte_t1669577662_SByte_t1669577662PFvvEPK10MethodInfoPvPS4_
ana:__Z22LoadGpuProgramFromDataPKhS0_Rj
Cvc:__ZN10Matrix4x4f8TransferI8JSONReadEEvRT_
UJc:__ZN14SafeBinaryRead21TransferSTLStyleArrayI13dynamic_arrayIN4core17string_with_labelILi35EEELj4EEEEvRT_17TransferMetaFlags
ZZe:_PositionAsUV1_ModifyMesh_m4231919476
Wzd:_Hashtable__ctor_m1941859523
A0e:_ScrollRect_set_horizontalScrollbarSpacing_m2209919081
XY:__ZN17PersistentManager18ReadObjectThreadedEi
vEa:__ZN25TransformFeedbackSkinning31CleanupTransformFeedbackShadersEv
jTa:__Z22scripting_object_unbox18ScriptingObjectPtr
_Kc:__ZNK20TextRenderingPrivate8FontImpl19GetCharacterAdvanceEjijfPj
HSf:_Array_InternalArray__ICollection_Add_TisUriScheme_t722425697_m3142345403_gshared
BJj:_fmt_u
x7a:__ZN10VertexData8TransferI18StreamedBinaryReadILb0EEEEvRT_
CIj:__ZN6il2cpp8metadata25Il2CppGenericClassCompare7CompareEPK18Il2CppGenericClassS4_
ITd:_MonoType_get_Assembly_m4290914179
Wna:__ZN9ShaderLab7ProgramC2E10MemLabelIdi10ShaderType
uZb:__ZN14PreloadManager16UpdatePreloadingEv
kvf:_String_LastIndexOf_m95398196
foi:_Array_InternalArray__set_Item_TisUILineInfo_t4195266810_m2313892078_gshared
gvg:_PlayableAsset__ctor_m2395156306
ZV:__ZNK21UnityDefaultAllocatorI17LowLevelAllocatorE8ContainsEPKv
phd:_RuntimeTypeHandle_Equals_m2857439487
Xh:_emscripten_get_main_loop_timing
A8d:_SafeHandle_Finalize_m3866180675
J5a:__ZN24GenerateTypeTreeTransfer21TransferSTLStyleArrayINSt3__26vectorIN15QualitySettings14QualitySettingENS1_9allocatorIS4_EEEEEEvRT_17TransferMetaFlags
wOd:_MemoryStream_ToArray_m3911744835
tLe:_Enumerator_System_Collections_IDictionaryEnumerator_get_Entry_m859540448_AdjustorThunk
U1f:_Type_GetHashCode_m1947148725
XLg:__Z91RuntimeInvoker_Void_t1185182177_RuntimeObject_RuntimeObject_RuntimeObject_SByte_t1669577662PFvvEPK10MethodInfoPvPS4_
Fjb:__ZNK2UI13RectTransform22GetTypeVirtualInternalEv
kp:getTempRet0
V1c:_BaseRaycaster_OnEnable_m2678466030
FKe:_Enumerator_get_CurrentKey_m627428048_AdjustorThunk
oqg:_UnityEventBase__ctor_m1851535676
kqi:_Array_Sort_TisVector4_t3319028937_m2797285308_gshared
Mge:_HandshakeMessage_Update_m2417837686
_mj:__ZN6il2cpp6icalls8mscorlib6System9ThreadingL21lookup_cached_cultureEP12Il2CppThreadi
wEj:__ZN6il2cpp2os11EventHandleD2Ev
Lpg:_NetFxCoreExtensions_CreateDelegate_m751211712
uUb:__ZN18DeferredRenderLoopD2Ev
XWi:_AnimationLayerMixerPlayable__cctor_m4086299972
R2:__ZNK16TypeTreeIterator4NameEv
d1:__ZN15FileSystemEntry3SetEPKc
wYd:_ConstructorBuilder_Invoke_m3010446651
Hec:__Z52Register_UnityEngine_Application_set_targetFrameRatev
Oef:_IPv6Address_set_ScopeId_m3907190992
fch:_ReadOnlyCollection_1_System_Collections_Generic_IListU3CTU3E_Insert_m568455025_gshared
SI:__ZN20SoundChannelInstance15ParameterBuffer5ApplyEPN4FMOD7ChannelE
Cef:_IPv6Address__ctor_m4117281080
XKc:__ZN20TextRenderingPrivate19NativeTextGenerator9InsertTabEv
UNj:_sbrk
WUg:__Z66RuntimeInvoker_Boolean_t97287965_Vector2_t2156229523_RuntimeObjectPFvvEPK10MethodInfoPvPS4_
zqh:_Enumerator_VerifyState_m3474272061_AdjustorThunk
uWc:__ZN11UnityEngine15PlatformWrapper24GetRuntimePlatformStringEv
Hi:_glIsEnabled
aYd:_DerivedType__ctor_m1853298054
Mpb:__Z25scripting_class_get_image17ScriptingClassPtr
msf:_SecurityException__ctor_m836898292
dth:_List_1_RemoveAt_m2730968292_gshared
cgb:__ZNSt3__26vectorIN4core12basic_stringIcNS1_20StringStorageDefaultIcEEEE13stl_allocatorIS5_L18MemLabelIdentifier13ELi16EEEC2INS_11__wrap_iterIPS5_EEEET_SE_RKS8_PNS_9enable_ifIXaasr21__is_forward_iteratorISE_EE5valuesr16is_constructibleIS5_NS_15iterator_traitsISE_E9referenceEEE5valueEvE4typeE
Li:_emscripten_glDrawElementsInstanced
gy:__ZN26AnimatorControllerPlayable27SetupStateMachineBehavioursEv
lXe:_LayoutGroup_get_preferredWidth_m3816902260
ZUa:__ZN18JobBatchDispatcherD2Ev
Ajb:__ZN9Transform17MainThreadCleanupEv
dDj:_GC_clear_hdr_marks
qYj:_emscripten_glCreateShader__wrapper
fzc:_cff_fd_select_get
I3e:_Text_set_resizeTextForBestFit_m4095249125
Lgf:_OidEnumerator_MoveNext_m3138911739
Wi:_emscripten_glGetShaderiv
SJ:__ZN4FMOD6System10getVersionEPj
gOc:__ZN2UI6Canvas23VirtualRedirectTransferER24GenerateTypeTreeTransfer
R1e:_Selectable_set_animationTriggers_m2970345687
etc:__ZN9JSONWrite8TransferIN4math12int2_storageEEEvRT_PKc17TransferMetaFlags
GJc:__ZN13TextRendering4Font13AwakeFromLoadE17AwakeFromLoadMode
DIf:_CompareInfo_LastIndexOf_m2688553706
lqa:__ZN9GfxDevice21ReleaseSharedMeshDataEP14SharedMeshData
L4c:_MouseState__ctor_m1467839005
yEi:_Uri_IsDomainAddress_m2867513594
ldb:__ZNSt3__27__sort5IRNS_6__lessINS_4pairIPKN5Unity4TypeE7Hash128EES8_EEPS8_EEjT0_SC_SC_SC_SC_T_
Tbd:_Dropdown_CreateItem_m2954407740
kCj:_GC_unreachable_finalize_mark_proc
gif:_X509Chain_ProcessCrlExtensions_m236234529
IDj:_maybe_finalize
r$i:__ZN6il2cpp2vm5Class40GetInterfaceInvokeDataFromVTableSlowPathEPK12Il2CppObjectPK11Il2CppClassj
$Qf:_Array_InternalArray__IndexOf_TisLabelData_t360167391_m1826525656_gshared
lic:__Z43RectTransform_CUSTOM_INTERNAL_get_anchorMaxP12Il2CppObjectP13Vector2fIcall
RTi:_TextGenerator_INTERNAL_CALL_Populate_Internal_cpp_m4171649399
Nme:_RemotingConfiguration_RegisterChannelTemplate_m3105688054
KBf:_Decimal_Parse_m942471224
e4a:__ZN8Material28UpdateHashesOnPropertyChangeEN9ShaderLab16FastPropertyNameE
yOh:__ZL56MethodBuilder_t2807316753_CustomAttributesCacheGeneratorP21CustomAttributesCache
Vic:__Z53Register_UnityEngine_SortingLayer_GetLayerValueFromIDv
Eob:__Z18Transfer_BlittableI14SafeBinaryReadLb1E8Vector4fEvRK29SerializationCommandArgumentsR31RuntimeSerializationCommandInfo
V6c:_AspectRatioFitter_SetDirty_m2910185270
bM:__ZN11AudioSource12AddToManagerEv
Us:__ZN8Animator23VirtualRedirectTransferER19StreamedBinaryWriteILb0EE
Pz:__ZN11UnityEngine9Animation32CreateAnimatorGenericBindingsOptERKNS0_20AnimationSetBindingsER9TransformPKN7mecanim9animation14AvatarConstantEPKNS0_21AvatarBindingConstantEbRNS6_6memory9AllocatorER8Animator
arj:__ZN6il2cpp2vm5Image13ClassFromNameEPK11Il2CppImagePKcS6_
xOj:dynCall_vdddddd
Lka:__ZN24GenerateTypeTreeTransfer21TransferSTLStyleArrayINSt3__26vectorIN9ShaderLab14SerializedPassENS1_9allocatorIS4_EEEEEEvRT_17TransferMetaFlags
Baa:__ZL32MarkLevelGameManagerDependenciesR27GarbageCollectorThreadState
Jsa:__ZNK13GfxDeviceGLES26HasActiveRandomWriteTargetEv
slj:__GLOBAL__sub_I_Thread_cpp
aLh:__ZL54_MemberInfo_t3922476713_CustomAttributesCacheGeneratorP21CustomAttributesCache
jTj:_glGetActiveUniformsiv__wrapper
Sic:__Z43Register_UnityEngine_Material_EnableKeywordv
Qtg:_Mesh_GetIndices_m2873123901
p_:__ZN13MonoBehaviour19SetupScriptingCacheE17ScriptingClassPtrP10MonoScript
is:__Z20AnimationEventToMonoRK14AnimationEventR18MonoAnimationEvent
oXg:__Z106RuntimeInvoker_Void_t1185182177_Single_t1397266774_Single_t1397266774_Single_t1397266774_Int32_t2950945753PFvvEPK10MethodInfoPvPS4_
EZ:__ZN17PersistentManager29ReadAndActivateObjectThreadedEiRK26SerializedObjectIdentifierP14SerializedFilebb
z4c:_PointerEventData_get_dragging_m746831934
Vhh:_ReadOnlyCollection_1_System_Collections_IEnumerable_GetEnumerator_m2781605075_gshared
cea:__ZZN15DirectorManager15InitializeClassEvEN52PreLateUpdateDirectorUpdateAnimationBeginRegistrator7ForwardEv
qLf:_Array_get_swapper_TisCustomAttributeNamedArgument_t287865710_m4254011335_gshared
Xdd:_Graphic_RegisterDirtyMaterialCallback_m106898453
JGi:_GUILayoutEntry_get_margin_m3174861737
vzh:_List_1_GetEnumerator_m2095602005_gshared
Eqj:__ZNK15dense_hashtableINSt3__24pairIK10KeyWrapperINS1_IPKcS4_EEEiEES6_24NamespaceAndNamePairHashN14dense_hash_mapIS6_iS9_NS6_14EqualsComparerI26NamespaceAndNamePairEqualsEENS0_9allocatorIS8_EEE9SelectKeyESD_SF_E13find_positionERS7_
bka:__ZNSt3__26vectorIN9ShaderLab14SerializedPassENS_9allocatorIS2_EEE8__appendEj
mja:__ZNSt3__26vectorIN9ShaderLab20SerializedSubProgram13BufferBindingENS_9allocatorIS3_EEEC2INS_11__wrap_iterIPS3_EEEET_SB_RKS5_PNS_9enable_ifIXaasr21__is_forward_iteratorISB_EE5valuesr16is_constructibleIS3_NS_15iterator_traitsISB_E9referenceEEE5valueEvE4typeE
FWf:_Encoding_get_ISOLatin1_m2107621369
Q9d:_BigInteger_op_Inequality_m2697143438
U3h:__ZL89Mathf_t3464937446_CustomAttributesCacheGenerator_Mathf_SmoothDamp_m394423605____maxSpeed4P21CustomAttributesCache
N3a:__ZN9Texture2D23VirtualRedirectTransferER18StreamedBinaryReadILb0EE
ayf:_DateTime_System_IConvertible_ToDouble_m2116720007_AdjustorThunk
Gyd:_BitArrayEnumerator__ctor_m2359341397
Ljg:_Enumerator_MoveNext_m1177880931_gshared
U8h:__ZL73g_UnityEngine_TextRenderingModule_Assembly_CustomAttributesCacheGeneratorP21CustomAttributesCache
N$:__ZN16ScriptingManager27NativeTypeForScriptingClassE17ScriptingClassPtr
D4f:_UInt64_System_IConvertible_ToDateTime_m3434604642
A1f:_Type_get_IsSerializable_m1040556850
VDc:_get_sfnt_table
PVb:__ZL22ScheduleSceneNodesJobsP25ScheduleSceneNodesJobDataj
Mk:_emscripten_set_canvas_size
$cd:_Graphic_SetVerticesDirty_m2124914069
GIf:_CultureInfo__ctor_m3285927757
aZe:_MaskableGraphic_get_rootCanvasRect_m3492154629
bpi:_Array_Resize_TisRaycastResult_t3360306849_m1811054291_gshared
Hja:__ZNSt3__26vectorIN9ShaderLab20SerializedSubProgramENS_9allocatorIS2_EEE8__appendEj
HW:__ZN20DynamicHeapAllocatorI17LowLevelAllocatorE8AllocateEji
aUc:__ZN11UnityEngine9Analytics15UserCustomEvent12ToJsonStringER9JSONWrite
fIi:_Locale_GetText_m2427493201
JOb:__ZN20DynamicPropertySheet15SetVectorQueuedERKN9ShaderLab16FastPropertyNameERK8Vector4fN19ShaderPropertySheet8SetFlagsE
BA:__ZN7mecanim9animation22EvaluateAvatarRetargetEPKNS0_14AvatarConstantEPKNS0_11AvatarInputEPNS0_12AvatarOutputEPNS0_12AvatarMemoryEPNS0_15AvatarWorkspaceEb
YXa:__ZN14RenderSettings23VirtualRedirectTransferER19StreamedBinaryWriteILb0EE
Drc:__ZL26Transfer_SimpleNativeClassI9JSONWrite10RectOffsetLb0EEvRK29SerializationCommandArgumentsR31RuntimeSerializationCommandInfo
ECj:_GC_push_conditional
nUc:__ZN21UnityAnalyticsManager23VirtualRedirectTransferER24GenerateTypeTreeTransfer
Mwa:__ZN17GenericDynamicVBO10AllocateVBEjR21DynamicVBOChunkHandle
zBf:_DBNull_ToString_m3638608738
dsj:__ZN30dense_hashtable_const_iteratorI10KeyWrapperIP18Il2CppGenericClassES3_N6il2cpp8metadata22Il2CppGenericClassHashEN14dense_hash_setIS3_S6_NS3_14EqualsComparerINS5_25Il2CppGenericClassCompareEEENSt3__29allocatorIS3_EEE8IdentityESA_SD_EppEv
Dyd:_BitArray_Clone_m3537018332
bue:_ObjectRecord_UnchainFixup_m3191243952
cvi:_TlsStream_get_CanWrite_m16389328
kl:_glMapBufferRange
F3a:__ZN9Texture2D8TransferI18StreamedBinaryReadILb0EEEEvRT_
lhc:__Z31Input_CUSTOM_GetMouseButtonDowni
J8b:__ZN13PlayableGraph4PlayEv
c8b:__Z29AddCanvasIntermediateRendererPN2UI6CanvasEPNS_13CanvasBuffersEP17VertexDeclarationjRK10Matrix4x4ftRK4AABB4PPtrI8MaterialEi17ShadowCastingModebP6Camerab
XMb:__ZNK9Transform16GetLocalPositionEv
LTd:_MonoType_get_BaseType_m1098640416
yLa:__ZN13LoadOperation19IntegrateTimeSlicedEi
vvi:_TlsStream_Read_m3392972801
Usa:__ZN13GfxDeviceGLES22DispatchComputeProgramE12ObjectHandleI18ComputeProgram_TagPvE15ComputeBufferIDj
mXf:_Latin1Encoding_GetString_m254210343
Hhb:__Z17TransformAABBSlowRK4AABBRK10Matrix4x4fRS_
grd:_Array_combsort_m4052486289
f7a:__ZN15SerializeTraitsI13dynamic_arrayI12SpriteVertexLj4EEE19ResizeSTLStyleArrayERS2_i
cia:__ZN9ShaderLab21SerializedShaderState8TransferI14SafeBinaryReadEEvRT_
WGf:_Environment_GetWindowsFolderPath_m1738399646
gAc:_cf2_stack_pushInt
tA:__ZN8Animator19FireAnimationEventsERNS_11AnimatorJobE
f3d:_Module_GetCustomAttributes_m76573271
Mid:_CryptoConfig_EncodeOID_m2635914623
Nka:__ZN15SerializeTraitsINSt3__24pairIN4core12basic_stringIcNS2_20StringStorageDefaultIcEEEES6_EEE8TransferI24GenerateTypeTreeTransferEEvRS7_RT_
CWj:b89
BWj:b88
$Vj:b81
_Vj:b80
qFa:__ZN7ApiGLES19CreateSparseTextureEjj14GraphicsFormatiiiiRiS1_S1_
v0:__ZN18ResourceImageGroup7CleanupEv
pWj:b85
oWj:b84
AWj:b87
zWj:b86
nre:_RemotingSurrogateSelector_GetSurrogate_m3900875713
ede:_CertificateValidationCallback_Invoke_m1014111289
WYa:__ZN8Playable19SetOutputConnectionEPS_i
M$i:__ZN15dense_hashtableINSt3__24pairIK10KeyWrapperIPK11Il2CppClassEPKcEES6_N6il2cpp5utils11PointerHashIS3_EEN14dense_hash_mapIS6_S9_SE_NS6_14EqualsComparerINS0_8equal_toIS5_EEEENS0_9allocatorISA_EEE9SelectKeyESJ_SL_EC2ERKSO_j
Zl:_glDeleteShader
PAa:__ZN6prcoreL17RemapGenericFloatI15TexFormatRGHalf16TexFormatRGFloatEEvPKNS_9InnerInfoE
Xpi:_Array_Sort_TisUICharInfo_t75501106_m128665067_gshared
zCc:_otv_GSUB_validate
Pnf:_RSAPKCS1SignatureDeformatter_SetHashAlgorithm_m1602190713
YFf:_Enum_System_IConvertible_ToByte_m1219166845
T6f:_Dictionary_2_CopyToCheck_m45332585_gshared
kdc:__Z27scripting_add_internal_callPKcPKv
ihj:__ZN13Il2CppHashMapINSt3__24pairIPK9EventInfoP11Il2CppClassEEj17ReflectionMapHashIS7_ENS0_8equal_toIS7_EENS0_9allocatorINS1_IK10KeyWrapperIS7_EjEEEEEC2EjRKS9_RKSB_
Vsj:__GLOBAL__sub_I_GarbageCollector_cpp
Drg:_Input_get_inputString_m1307069105
BLe:_Enumerator_MoveNext_m1556953412_AdjustorThunk
pt:__ZN26AnimatorControllerPlayable18SetLayerAutoWeightEv
vTc:__Z44Register_UnityEngine_Canvas_get_pixelPerfectv
wDi:_Literal_GetAnchorInfo_m810577400
HQc:__ZN2UI14CanvasRenderer12SyncMaterialENS0_8SyncFlagE
dQd:_StreamWriter_Write_m1660535366
BGj:__ZN6il2cpp2vm9Parameter30GetDefaultParameterValueObjectEPK10MethodInfoPK13ParameterInfoPb
fZf:_UTF8Encoding_GetByteCount_m4152118078
P9e:_KeyPairPersistence__CanSecure_m3516574278
GMg:__Z95RuntimeInvoker_Void_t1185182177_RuntimeObject_RuntimeObject_Int32_t2950945753_SByte_t1669577662PFvvEPK10MethodInfoPvPS4_
kld:_MD5CryptoServiceProvider_Dispose_m3502499818
S5g:_Collection_1_System_Collections_IList_get_Item_m2422562729_gshared
IEc:_UNITY_tt_face_done_kern
xab:__ZN12BoneWeights48TransferI24GenerateTypeTreeTransferEEvRT_
vGb:__Z19scripting_gc_enablev
cFe:_InternalEnumerator_1_get_Current_m2907722321_gshared
xKb:__ZZ23InitPlayerLoopCallbacksvEN41InitializationPlayerUpdateTimeRegistrator7ForwardEv
Wcc:__ZN11UTF16StringC2ERKS_10MemLabelId
nGe:_InternalEnumerator_1_get_Current_m3792939945_AdjustorThunk
wSc:__Z55Register_UnityEngine_CanvasRenderer_DisableRectClippingv
Y9a:__ZN14SafeBinaryRead21TransferSTLStyleArrayI13dynamic_arrayI11ColorRGBA32Lj4EEEEvRT_17TransferMetaFlags
zub:__ZL26Transfer_SimpleNativeClassI24GenerateTypeTreeTransfer8GradientLb0EEvRK29SerializationCommandArgumentsR31RuntimeSerializationCommandInfo
Tze:_InternalEnumerator_1_System_Collections_IEnumerator_get_Current_m888718134_gshared
AIg:__Z175RuntimeInvoker_Void_t1185182177_SByte_t1669577662_SByte_t1669577662_SByte_t1669577662_SByte_t1669577662_SByte_t1669577662_SByte_t1669577662_SByte_t1669577662_SByte_t1669577662PFvvEPK10MethodInfoPvPS4_
Dug:_Object_Destroy_m3118546832
Syf:_DateTime_FromTicks_m4059645178_AdjustorThunk
jsi:_Array_InternalArray__get_Item_TisClientCertificateType_t1004704908_m2297379651_gshared
Ome:_ConfigHandler_ParseTime_m1787834288
Nma:__ZN9ShaderLab7Program27CreateFromSerializedProgramERKNS_17SerializedProgramE10ShaderTypeiP16PropertyNamesSetPK6Shader
nWd:_Assembly_Load_m3487507613
nXa:__ZNSt3__27__sort4IRNS_6__lessIN4core12basic_stringIcNS2_20StringStorageDefaultIcEEEES6_EEPS6_EEjT0_SA_SA_SA_T_
cPj:dynCall_viiiifii
Mfj:__ZN6il2cpp2gc19AppendOnlyGCHashMapINSt3__24pairIPK11Il2CppImageP11Il2CppClassEEP22Il2CppReflectionModule17ReflectionMapHashIS9_ENS2_8equal_toIS9_EEEC2Ev
UY:__Z20GetPersistentManagerv
YHc:_UNITY_TT_Set_Var_Design
r8:__ZN21SystemInfoStringCache16StaticInitializeEPv
gch:_ReadOnlyCollection_1_System_Collections_Generic_ICollectionU3CTU3E_Remove_m1100818788_gshared
gja:__ZNSt3__26vectorIN9ShaderLab20SerializedSubProgram15StructParameterENS_9allocatorIS3_EEE6assignIPS3_EENS_9enable_ifIXaasr21__is_forward_iteratorIT_EE5valuesr16is_constructibleIS3_NS_15iterator_traitsISA_E9referenceEEE5valueEvE4typeESA_SA_
Jah:_Collection_1_IsSynchronized_m2291009199_gshared
KDb:__ZNK13MonoBehaviour7GetNameEv
Kib:__ZN19ScriptingInvocation28AdjustArgumentsToMatchMethodEv
Nph:_IndexedSet_1_Contains_m1525966688_gshared
DG:__Z15_CheckFMODError11FMOD_RESULTPKciS1_
kmj:__ZN6il2cpp6icalls8mscorlib6SystemL16ThrowInvalidCastEPK11Il2CppClassS5_
YVa:__Z20RenderMultipleMeshesRK15RenderNodeQueueRK18RenderMultipleData17ShaderChannelMask
XZc:__ZN11UnityEngine15PlatformWrapper20GetPlayerPrefsStringERKN4core12basic_stringIcNS1_20StringStorageDefaultIcEEEES5_
YYe:_MaskableGraphic_get_maskable_m1260382606
IWf:_Latin1Encoding__ctor_m498920120
Aaj:__ZN6il2cpp2vm4Type19GetGenericParameterEPK10Il2CppType
DPd:_StreamReader_Peek_m2272511193
Mzf:_DateTimeFormatInfo_FillAllDateTimePatterns_m2683124783
YRc:__Z51Register_UnityEngine_CanvasGroup_get_blocksRaycastsv
EUd:_NumberFormatter_get_IsFloatingSource_m3714711779
i2f:_Type_GetConstructor_m1195697116
vd:_glBeginQuery
rNh:__ZL104RegionInfo_t1090270226_CustomAttributesCacheGenerator_RegionInfo_t1090270226____DisplayName_PropertyInfoP21CustomAttributesCache
qVi:_Canvas_get_scaleFactor_m3314757802
YLb:__ZN6Camera12RenderStereoENS_10RenderFlagE8CullFlagPNS_24PerformEyeRenderFunctionE
Nlb:__ZN20LocalFileSystemPosix10ToAbsoluteEPKc
NVa:__ZN20TierGraphicsSettings8TransferI19StreamedBinaryWriteILb0EEEEvRT_
FYj:b111
Y7:__GLOBAL__sub_I_runtime_input_0_cpp
Ezj:__ZN6il2cpp2vm13ComObjectBase16DisconnectObjectEj
Em:f0
xKj:_getcwd
KKa:__ZN25ThreadsafeLinearAllocatorD2Ev
Ygb:__Z21SendMessageToEveryoneRK17MessageIdentifier11MessageData
Kca:__ZN21BillboardBatchManager16StaticInitializeEPv
Jxf:_DateTime_AbsoluteDays_m4235097773
E9:__ZN12_GLOBAL__N_138ArchiveRedirectFileSystemStaticDestroyEPv
MDg:__Z74RuntimeInvoker_RuntimeObject_RuntimeObject_RuntimeObject_SByte_t1669577662PFvvEPK10MethodInfoPvPS4_
Uad:_DefaultControls_CreateScrollView_m3842770629
U1a:__ZN12CubemapArray34UpdateFileTextureUploadInstructionEP26FileAssetUploadInstructionj
pFa:__Z23CreateSparseTextureGLES9TextureIDii14GraphicsFormati
fDc:_otv_Anchor_validate
UKf:_Guid_CompareTo_m243656946_AdjustorThunk
FHf:_CCMath_mod_m3631663509
K0f:_TimeSpan_Negate_m1889505500_AdjustorThunk
Ifh:_ReadOnlyCollection_1_System_Collections_ICollection_CopyTo_m2715087453_gshared
FLc:__ZNSt3__23mapIN20TextRenderingPrivate7FontRefEP11FT_FaceRec_NS_4lessIS2_EENS_9allocatorINS_4pairIKS2_S4_EEEEEixERS9_
bNa:__ZN17ArchiveFileSystem10AddStorageEP20ArchiveStorageReader
Fij:_il2cpp_class_get_assemblyname
VZi:__ZN6il2cpp2vm5Class15GetEnumBaseTypeEP11Il2CppClass
fge:_Context_set_WriteSequenceNumber_m942577065
_d:_glVertexAttrib4fv
Xzj:__ZNK6il2cpp5utils13VmStringUtils23CaseInsensitiveComparerclERKNSt3__212basic_stringIcNS3_11char_traitsIcEENS3_9allocatorIcEEEEPKc
a8c:_CanvasScaler_SetScaleFactor_m3006968999
Z2g:__Z78RuntimeInvoker_Boolean_t97287965_Navigation_t3049316579_Navigation_t3049316579PFvvEPK10MethodInfoPvPS4_
W2a:__ZNK9Texture2D16GetNpotTexelSizeEv
AUd:_NumberFormatter_Init_m3576155222
zMa:__ZL33FileEntryInfoListToFolderContentsRKN4core12basic_stringIcNS_20StringStorageDefaultIcEEEERK19dynamic_block_arrayI13FileEntryInfoLj32EERNSt3__23setIS3_NSB_4lessIS3_EENSB_9allocatorIS3_EEEE
lYe:_LayoutUtility_GetLayoutProperty_m714717302
lVi:_Terminal_NotifyCommandHandlers_m909296863
$pa:__ZN9GfxDevice22GetDefaultVertexBufferE26GfxDefaultVertexBufferTypej
WLf:_Array_InternalArray__ICollection_Contains_TisInt64_t3736567304_m2911357929_gshared
e6g:_Collection_1_Remove_m3022471627_gshared
TKj:___fseeko_unlocked
iVd:_Object_ToString_m1740002499
LKj:_sscanf
A3c:_ExecuteEvents_GetEventChain_m2404658789
uHb:__Z17BeginSplashScreenv
fpi:_Array_Resize_TisUILineInfo_t4195266810_m3763058392_gshared
gid:_SByte_ToString_m3584531119_AdjustorThunk
Ela:__ZN9ShaderLab16SerializedShader8TransferI19StreamedBinaryWriteILb0EEEEvRT_
NKi:_TrackableProperty_GetHashCode_m3407865350
YC:__ZN7mecanim9animation18CreateAvatarMemoryEPKNS0_14AvatarConstantERNS_6memory9AllocatorE
o9d:_ModulusRing__ctor_m2420310199
qDd:_Convert_ToDateTime_m626620011
WLe:_Enumerator_System_Collections_IDictionaryEnumerator_get_Key_m2500634048_AdjustorThunk
KB:__ZN7mecanim8skeleton16SkeletonPoseCopyIN4math4trsXENS2_7affineXEEEvPKNS0_13SkeletonPoseTIT_EEPNS5_IT0_EE
uwa:__ZN18GfxFramebufferGLES18GetFramebufferNameERK20GfxRenderTargetSetup
P9i:__ZN6il2cpp2vm14TypeNameParser12ParseVersionERKNSt3__212basic_stringIcNS2_11char_traitsIcEENS2_9allocatorIcEEEERtSB_SB_SB_
zVe:_InputField_MoveDown_m1455948167
Rnc:__Z30Event_Get_Custom_PropCharacterP12Il2CppObject
xea:__ZN13PlayableGraph27SchedulePlayableDestructionERK9HPlayable
qCc:_cff_get_mm_var
lSj:_glGetFramebufferAttachmentParameteriv__wrapper
Ale:_ChannelServices_GetCurrentChannelInfo_m3041604116
q_c:__Z13RegisterClassI20UnityConnectSettingsEvv
Jpb:__Z22scripting_array_length17ScriptingArrayPtr
pQd:_SynchronizedReader_Peek_m148942882
uHg:__Z95RuntimeInvoker_Void_t1185182177_RuntimeObject_Int32_t2950945753_Int32_t2950945753_RuntimeObjectPFvvEPK10MethodInfoPvPS4_
f2a:__ZN14SafeBinaryRead20TransferTypelessDataEjPvi
uN:__ZN13dynamic_arrayI12SoundChannelLj4EE9push_backERKS0_
i5:__Z19GetActiveColorSpacev
iEc:_UNITY_tt_face_load_kern
B3d:_MonoMethodInfo_GetDeclaringType_m2924452727
HIb:__ZN13sorted_vectorINSt3__24pairIiN17InstancingBatcher12PropertyTypeEEEN10vector_mapIiS3_NS0_4lessIiEE13stl_allocatorIS4_L18MemLabelIdentifier1ELi16EEE13value_compareESA_E21sort_clear_duplicatesEv
DRc:__ZZN2UI14CanvasRenderer15InitializeClassEvEN38FunctorImpl_909kCanvasHierarchyChanged4CallEPviR11MessageData
K$:__Z6StrCmpPKcS0_
aId:_NumberFormatter_AppendIntegerString_m2257376141
Vna:__Z21CheckGpuProgramUsable20ShaderGpuProgramType
e4b:__ZN13ProduceHelperI14Texture2DArrayLb0EE7ProduceE10MemLabelId18ObjectCreationMode
swj:__ZN6il2cpp2os9Directory20GetFileSystemEntriesERKNSt3__212basic_stringIcNS2_11char_traitsIcEENS2_9allocatorIcEEEESA_iiPi
Spd:_Array_System_Collections_IList_Add_m1063688101
Kii:__ZL66Navigation_t3049316579_CustomAttributesCacheGenerator_m_SelectOnUpP21CustomAttributesCache
PKc:__ZN20TextRenderingPrivate19NativeTextGenerator5SetupEv
cTb:__ZNK15SharedLightData24GetFinalShadowResolutionEv
seb:__ZN12AspectRatios8TransferI18StreamedBinaryReadILb0EEEEvRT_
X7b:__ZN10GameObject14CopyPropertiesERS_
Foc:__Z44Register_UnityEngine_GUIStyle_get_fixedWidthv
TMf:_Array_InternalArray__ICollection_Remove_TisLink_t544317964_m1280781374_gshared
esd:_BitConverter_DoubleWordsAreSwapped_m1474345095
x6a:__ZNK13ScreenManager12IsFullScreenEv
xxd:_FixedSizeArrayListWrapper_set_Capacity_m4221053039
mLj:_rand
PSj:_emscripten_glFramebufferRenderbuffer__wrapper
dbc:__ZN13MeshScripting10CreateMeshE21ScriptingObjectOfTypeI4MeshE
Fqb:__ZN14SafeBinaryRead21TransferSTLStyleArrayINSt3__26vectorI17AnimationCurveTplIfE13stl_allocatorIS4_L18MemLabelIdentifier1ELi16EEEEEEvRT_17TransferMetaFlags
ayd:_SynchronizedArrayListWrapper_Contains_m3809499313
eNf:_Array_InternalArray__ICollection_Remove_TisLabelData_t360167391_m3556246844_gshared
Kkd:_HMACSHA256__ctor_m346174875
vng:_Color_op_Multiply_m2887457390
yVb:__Z22PrepareOptimizedPlanesPK5PlaneiPKN4math7_float4E
vV:__ZN11UnityEngine15CloudWebService17WebFileDownloaderINS0_20WebRequestRestClientENS0_23WebRequestRestHeaderMapEE10InitializeERKN4core12basic_stringIcNS5_20StringStorageDefaultIcEEEE
Ica:__ZN17UniqueIDGenerator15CreatePureIndexEv
Fr:__ZN11UnityEngine9Animation28GenericAnimationBindingCache15DidReloadDomainEv
ifb:__ZNSt3__26vectorIN15ResourceManager10DependencyE13stl_allocatorIS2_L18MemLabelIdentifier52ELi16EEE6assignINS_11__wrap_iterIPS2_EEEENS_9enable_ifIXaasr21__is_forward_iteratorIT_EE5valuesr16is_constructibleIS2_NS_15iterator_traitsISC_E9referenceEEE5valueEvE4typeESC_SC_
iZi:__ZN15dense_hashtableINSt3__24pairIK10KeyWrapperIPK22Il2CppGenericParameterEP11Il2CppClassEES6_N6il2cpp5utils11PointerHashIS4_EEN14dense_hash_mapIS6_S9_SE_NS6_14EqualsComparerINS0_8equal_toIS5_EEEENS0_9allocatorISA_EEE9SelectKeyESJ_SL_E14squash_deletedEv
$_a:__ZN9ShaderLabL27GetDesiredRenderTextureDescEPK6Camera
MUf:_Array_InternalArray__Insert_TisMark_t3471605523_m2854535880_gshared
eza:__ZN6prcoreL29inner_stretch_rgb565_bilinearEPKNS_9InnerInfoE
$lc:__Z14GUIClipTextureP9Texture2DPhiiii
Wqe:_MethodReturnDictionary__cctor_m278392388
CY:__ZNK9Transform18TransformDirectionERK8Vector3f
xke:_SslStreamBase_get_CanWrite_m1622082918
xki:__ZL80CanvasScaler_t2767979955_CustomAttributesCacheGenerator_m_ReferencePixelsPerUnitP21CustomAttributesCache
SCc:_otv_MarkLigPos_validate
x7e:_PrimalityTests_RabinMillerTest_m1471415870
njg:_Enumerator_MoveNext_m2114485647_gshared
E3i:__ZN15dense_hashtableINSt3__24pairIK10KeyWrapperIPK11Il2CppClassEPKcEES6_N6il2cpp5utils11PointerHashIS3_EEN14dense_hash_mapIS6_S9_SE_NS6_14EqualsComparerINS0_8equal_toIS5_EEEENS0_9allocatorISA_EEE9SelectKeyESJ_SL_E12resize_deltaEjj
XMj:__ZNK10__cxxabiv120__si_class_type_info27has_unambiguous_public_baseEPNS_19__dynamic_cast_infoEPvi
t9d:_Kernel_LeftShift_m4140742987
aWd:_Assembly_GetManifestResourceInternal_m1224391897
Qwa:__Z30AddDefaultStreamsToMeshBuffersR9GfxDeviceR11MeshBuffersj17ShaderChannelMaskS3_
n9:__ZL16GetInterfaceImpl18UnityInterfaceGUID
m_i:__ZN6il2cpp2vmL17SetupFieldOffsetsENS0_15FieldLayoutKindEP11Il2CppClassjRKNSt3__26vectorIjNS4_9allocatorIjEEEE
tzj:__ZN6il2cpp6icalls8mscorlib6System15MonoCustomAttrs27GetCustomAttributesInternalEP12Il2CppObjectP20Il2CppReflectionTypeb
Yb:invoke_viifi
tIc:_UNITY_TT_Set_MM_Blend
Z7:__GLOBAL__sub_I_runtime_math_random_0_cpp
HHb:__ZN14PreloadManager35WaitForAllAsyncOperationsToCompleteEv
kI:__ZL31InitializeAudioScriptingClassesv
SMb:__Z14SortGUIByDepthP10GUIElementS0_
vC:__ZN12_GLOBAL__N_120ProcessRootMotionMixER33AnimationPlayableEvaluationOutputR35AnimationPlayableEvaluationConstantR32AnimationPlayableEvaluationInputS1_f
gFi:_UriParser__cctor_m3655686731
bYe:_LayoutRebuilder_U3Cs_RebuildersU3Em__0_m589488547
nmb:__ZNK20LocalFileSystemPosix21GetAvailableDiskSpaceEPKcRy
x8:__ZNSt3__26__treeIiNS_4lessIiEENS_9allocatorIiEEE7destroyEPNS_11__tree_nodeIiPvEE
upa:__ZNK9GfxDevice14GetWorldMatrixEv
Xuc:__ZN8JSONRead8TransferI8Vector2fEEvRT_PKc17TransferMetaFlagsb
wBg:_Transform_set_parent_m786917804
K2e:_Slider_get_value_m739683640
Dkb:__Z19scripting_array_new17ScriptingClassPtrjj
iN:__ZN11SoundHandle13CreateChannelEb
w4a:__ZN14SafeBinaryRead21TransferSTLStyleArrayI13dynamic_arrayI12LightmapDataLj4EEEEvRT_17TransferMetaFlags
Pja:__ZNSt3__26vectorIN9ShaderLab20SerializedSubProgram16TextureParameterENS_9allocatorIS3_EEE6assignIPS3_EENS_9enable_ifIXaasr21__is_forward_iteratorIT_EE5valuesr16is_constructibleIS3_NS_15iterator_traitsISA_E9referenceEEE5valueEvE4typeESA_SA_
f2i:__ZN13Il2CppHashMapIN6il2cpp5utils13dynamic_arrayIPK10Il2CppTypeLj4EEEPFvvENS0_8metadata19Il2CppSignatureHashENS9_22Il2CppSignatureCompareENSt3__29allocatorINSC_4pairIK10KeyWrapperIS6_ES8_EEEEEC2EjRKSA_RKSB_
sgj:__ZN15dense_hashtableINSt3__24pairIK10KeyWrapperIPK22Il2CppGenericParameterEPK24MonoGenericParameterInfoEES6_N6il2cpp5utils11PointerHashIS4_EEN14dense_hash_mapIS6_SA_SF_NS6_14EqualsComparerINS0_8equal_toIS5_EEEENS0_9allocatorISB_EEE9SelectKeyESK_SM_E15set_deleted_keyERKSB_
eid:_SByte_TryParse_m2431806379
E1b:__ZN6prcoreL11inner_clearILj2EEEvPhjjj
Ijd:_DSACryptoServiceProvider_get_KeySize_m786836990
Lg:_emscripten_exit_fullscreen
loi:_Array_qsort_TisBoolean_t97287965_TisBoolean_t97287965_m214793583_gshared
vig:_Enumerator_System_Collections_IEnumerator_Reset_m1564381721_gshared
hVd:_Object_MemberwiseClone_m1474068832
nvj:__ZN6il2cpp6icalls8mscorlib6System6String19InternalAllocateStrEi
cwc:__Z29Transfer_Blittable_ArrayFieldI8JSONRead11QuaternionfEvRT_R9ArrayInfoRK23StaticTransferFieldInfo
Bfc:__Z45Register_UnityEngine_Camera_get_targetDisplayv
g6b:__ZNK24RendererAnimationBinding15GenerateBindingERKN4core12basic_stringIcNS0_20StringStorageDefaultIcEEEEbRN11UnityEngine9Animation14GenericBindingE
Sef:_IPv6Address__ctor_m3704187391
lNb:__Z15GetFlareManagerv
Nz:__ZN8Animator13GetAvatarRootEv
wSf:_Array_InternalArray__ICollection_Add_TisResourceCacheItem_t51292791_m3851804827_gshared
mJj:___toread
OFb:__ZNSt3__26vectorI10vector_mapIiiNS_4lessIiEE13stl_allocatorINS_4pairIiiEEL18MemLabelIdentifier38ELi16EEES4_IS9_LS7_38ELi16EEE26__swap_out_circular_bufferERNS_14__split_bufferIS9_RSA_EE
R8d:_BigInteger_get_Rng_m3283260184
yNj:___cxa_is_pointer_type
WE:__ZN8Animator22ScriptingStringToCRC32ERK11ICallString
xC:__ZN7mecanim9animation16EvaluateAvatarDXEPKNS0_14AvatarConstantEPKNS0_11AvatarInputEPNS0_12AvatarMemoryEPNS0_15AvatarWorkspaceEPNS0_12AvatarOutputE
w5c:_RaycastResult_ToString_m2678663776_AdjustorThunk
tsi:_Array_InternalArray__get_Item_TisKeyValuePair_2_t2530217319_m2886833132_gshared
d1e:_ScrollRect_OnEndDrag_m3202230060
ekc:__Z34Transform_CUSTOM_SetAsFirstSiblingP12Il2CppObject
oVe:_InputField_Delete_m3471899192
Nle:_RemotingConfiguration_get_ProcessId_m2180277012
t3:__ZN17PersistentManager40GlobalToLocalSerializedFileIndexInternalERK26SerializedObjectIdentifier
oS:__ZN11UnityEngine15CloudWebService17SessionEventQueue14ParseEventDataERKN4core12basic_stringIcNS2_20StringStorageDefaultIcEEEE
Uua:__ZN13TranslateGLES4InitERK12GraphicsCaps16GfxDeviceLevelGL
MJd:_Int64_System_IConvertible_ToUInt16_m848637338_AdjustorThunk
bVc:__Z32CustomEventData_CUSTOM_AddUInt32P12Il2CppObjectP12Il2CppStringj
OQf:_Array_InternalArray__IndexOf_TisLink_t544317964_m455584088_gshared
RDh:_Enumerator_get_Current_m2282646120_AdjustorThunk
wfh:_ReadOnlyCollection_1_IndexOf_m2539022912_gshared
yji:__ZL66Selectable_t3250028441_CustomAttributesCacheGenerator_m_TransitionP21CustomAttributesCache
fHj:__ZN6il2cpp2os6Memory12AlignedAllocEjj
Q3e:_Text_set_alignByGeometry_m3828822280
RAj:__ZN6il2cpp8metadataL7CompareEPK10Il2CppTypeS3_
dcf:_HybridDictionary__ctor_m1681134385
e2:__ZN21ScalableBufferManager11GetInstanceEv
aBb:__Z18Transfer_BlittableI18StreamedBinaryReadILb0EELb1E10ColorRGBAfEvRK29SerializationCommandArgumentsR31RuntimeSerializationCommandInfo
U0f:_TimeSpan_op_LessThan_m1594498345
qdc:__ZL27GetComponentsImplementationILb0ELi0EEbR10GameObjectbRK17CompareParametersRK39GetComponentsImplementation_ReturnValue
wEb:__ZN9Scripting36IsSystemCollectionsGenericDictionaryE17ScriptingClassPtr
Woh:_UnityEvent_1_FindMethod_Impl_m322741469_gshared
KBg:_Enumerator_get_Current_m2591725252
Z0:__ZL16ReadTypeTreeImplILb0EEbR8TypeTreeRK16TypeTreeIteratorRPKhS6_i
imf:_Interval_Contains_m110351300_AdjustorThunk
iEd:_Convert_ToInt32_m3048308591
OAf:_DateTimeOffset_Equals_m3030958070
nYa:__ZNK22BuiltinResourceManager21GetResourceInstanceIDEPKN5Unity4TypeERKN4core12basic_stringIcNS4_20StringStorageDefaultIcEEEE
Xra:__ZN9GfxDevice15BeginFrameStatsEv
ehc:__Z42Register_UnityEngine_RectOffset_set_bottomv
dKi:_AnalyticsTracker_BuildParameters_m43920649
yyf:_DateTimeFormatInfo_GetMonthName_m2034512315
XOb:__ZN28LightProbeProxyVolumeContext8CopyFromERKS_
egh:_ReadOnlyCollection_1_System_Collections_Generic_IListU3CTU3E_Insert_m2489506856_gshared
J6:__ZN23TransformChangeDispatch32QueueTransformChangeIfHasChangedER18TransformHierarchy
p5e:_SimpleCollator_ToDashTypeValue_m6184468
MDa:__ZN7ApiGLES18DeleteRenderbufferERj
oCa:__ZL23ProgramUniformMatrix4fvPK7ApiGLESjiihPKv
VDa:__ZN7ApiGLES13CreateTextureEjj14GraphicsFormatiiiii
lrd:_Array_new_gap_m262136975
tja:__ZN9ShaderLab20SerializedSubProgram15MatrixParameter8TransferI14SafeBinaryReadEEvRT_
sdc:__ZL27GetComponentsImplementationILb0ELi1EEbR10GameObjectbRK17CompareParametersRK39GetComponentsImplementation_ReturnValue
lif:_X509Store__ctor_m275383717
W5e:_SimpleCollator_LastIndexOfOrdinalIgnoreCase_m2984667899
cHc:_Round_Down_To_Grid
HEa:__ZN13RenderTexture7ReleaseEv
Btc:__Z18Transfer_BlittableI8JSONReadLb1EN4math12int3_storageEEvRK29SerializationCommandArgumentsR31RuntimeSerializationCommandInfo
sbb:__ZN10MeshFilter23VirtualRedirectTransferER14SafeBinaryRead
Cbb:__ZN12MeshRenderer17MainThreadCleanupEv
ZZi:__ZN6il2cpp2vmL10InitLockedEP11Il2CppClassRKNS_2os12FastAutoLockE
AHa:__ZN22CreateGpuProgramOutput12CreateParamsEv
vJ:__ZN10ObjectPoolIN4FMOD7ChannelENS0_8ChannelIEE7GetFreeEi
vAe:_InternalEnumerator_1_System_Collections_IEnumerator_get_Current_m548105685_gshared
Kua:__ZNK14GfxContextGLES13GetDefaultFBOEv
Dtd:_Byte_System_IConvertible_ToType_m2251112646
wWg:__Z81RuntimeInvoker_Char_t3634460470_RuntimeObject_Int32_t2950945753_Int16_t2552820387PFvvEPK10MethodInfoPvPS4_
Xyf:_DateTime_get_Hour_m4153505178_AdjustorThunk
ZMi:_AudioExtensionManager_WriteExtensionProperties_m3028464154
srf:_Evidence_Equals_m1478353107
fac:__Z13GetImagePixelI10ColorRGBAfET_PKhii13TextureFormat15TextureWrapModeS5_ii
pxh:_List_1_System_Collections_IList_set_Item_m1842844683_gshared
hTi:_ObjectPool_1__ctor_m2535233435_gshared
Ilj:__ZN6il2cpp2vm6Thread49CheckCurrentThreadForInterruptAndThrowIfNecessaryEv
gJf:_CultureInfo_construct_datetime_format_m1928121315
q5:__ZNSt3__23mapIN9ShaderLab16FastPropertyNameEN18UnityPropertySheet11UnityTexEnvENS_4lessIS2_EENS_9allocatorINS_4pairIKS2_S4_EEEEEixERS9_
PCa:__ZNK13TranslateGLES25GetTextureTargetDimensionEj
Cdh:_ReadOnlyCollection_1_System_Collections_IList_Remove_m1842121503_gshared
AMd:_File_OpenRead_m2936789020
wjc:__Z47Texture2D_CUSTOM_INTERNAL_CALL_GetPixelBilinearP12Il2CppObjectffR10ColorRGBAf
WBd:_Enumerator_get_Entry_m3561948123
$Tg:__Z94RuntimeInvoker_Void_t1185182177_RuntimeObject_PlayableGraph_t3515989261_RuntimeObject_IntPtr_tPFvvEPK10MethodInfoPvPS4_
Mi:_emscripten_glVertexAttrib4f
qna:__ZNSt3__26vectorIN20GpuProgramParameters14ConstantBufferENS_9allocatorIS2_EEE8__appendEj
Vif:_X509CertificateCollection_AddRange_m3683116910
Wle:_SinkProviderData__ctor_m1624738837
SVg:__Z88RuntimeInvoker_RuntimeObject_RuntimeObject_SByte_t1669577662_RuntimeObject_RuntimeObjectPFvvEPK10MethodInfoPvPS4_
DXd:_CustomAttributeTypedArgument_Equals_m2261980307
Mx:__ZN7mecanim12statemachine24CreateStateMachineMemoryEPKNS0_20StateMachineConstantERNS_6memory9AllocatorE
asa:__ZN9GfxDevice18SetGlobalDepthBiasEff
l6i:__ZN6il2cpp6icalls8mscorlib6System8MonoType12get_AssemblyEP20Il2CppReflectionType
_n:FUNCTION_TABLE_vi
_i:_emscripten_glGetPointerv
iri:_Dictionary_2_Do_CopyTo_TisKeyValuePair_2_t3842366416_TisRuntimeObject_m1564656153_gshared
kC:__ZN8Animator22ApplyBuiltinRootMotionEv
iHb:__Z26ApplyMaterialPassWithCacheRK18SharedMaterialDataR17ShaderPassContextP6ShaderPN9ShaderLab4PassEibPKNS6_10GrabPassesEPNS6_11SubProgramsEPK22DeviceRenderStateBlock
fUd:_MulticastDelegate_KPM_m22863605
bEe:_InternalEnumerator_1_get_Current_m1897120917_AdjustorThunk
FTd:_MonoType_ReorderParamArrayArguments_m2458683451
Bte:_FormatterConverter_ToInt16_m4282804414
LLg:__Z81RuntimeInvoker_Void_t1185182177_Int64_t3736567304_RuntimeObject_Int64_t3736567304PFvvEPK10MethodInfoPvPS4_
a6c:_StandaloneInputModule_ProcessTouchPress_m4019232747
vMd:_FileStream__ctor_m3151488352
krd:_Array_swap_m547389985
G3:__ZN8Renderer23VirtualRedirectTransferER14SafeBinaryRead
u4f:_UInt32_ToString_m2420423038
quh:_List_1_System_Collections_IList_Add_m634558835_gshared
ZMd:_FileStream_get_Length_m426703983
h_i:__ZN6il2cpp2vmL15GetBitmapNoInitEP11Il2CppClassPjRjj
SH:__ZN12AudioManager5ResetEv
s8b:__ZN15DirectorManager18ScheduleGraphStartERK14HPlayableGraph
SB:__ZN7mecanim5human14RetargetToTDoFEPKNS0_5HumanEPNS0_9HumanPoseEPNS_8skeleton13SkeletonPoseTIN4math4trsXEEESB_
wxj:__ZN6il2cpp6icalls8mscorlib6System11Environment20GetWindowsFolderPathEi
Aw:__ZN7mecanim5human18HumanPoseBlendNodeERNS0_9HumanPoseEPS1_f
lBc:_UNITY_FT_RoundFix
dEj:_GC_is_heap_ptr
g8e:_ASN1_DecodeTLV_m1200977460
vqg:_UnityEventBase_PrepareInvoke_m1785382128
igh:_ReadOnlyCollection_1_System_Collections_Generic_IListU3CTU3E_set_Item_m1584697503_gshared
Ebb:__ZNK12MeshRenderer22GetTypeVirtualInternalEv
nvd:_Char_System_IConvertible_ToUInt32_m3901815580
i$e:_Scrollbar_set_onValueChanged_m346467699
jOg:__Z157RuntimeInvoker_Int32_t2950945753_RuntimeObject_Int32_t2950945753_Int32_t2950945753_Int32_t2950945753_SByte_t1669577662_SByte_t1669577662_Int32U26_t1369213839PFvvEPK10MethodInfoPvPS4_
D8e:_BitConverterLE_ToInt16_m1855092160
Wha:__ZN14SafeBinaryRead19TransferSTLStyleMapINSt3__23mapIN4core12basic_stringIcNS3_20StringStorageDefaultIcEEEES7_NS1_4lessIS7_EE13stl_allocatorINS1_4pairIKS7_S7_EEL18MemLabelIdentifier1ELi16EEEEEEvRT_17TransferMetaFlags
jQc:__ZN2UI6Canvas27UpdateEventIndexesRecursiveERi
uS:__ZN11UnityEngine15CloudWebService16SessionContainer21PrepareDataErrorEventERN4core12basic_stringIcNS2_20StringStorageDefaultIcEEEE
o3c:_ExecuteEvents_get_pointerUpHandler_m3515704212
iwd:_ArrayList_set_Item_m2003485935
s7d:_SatelliteContractVersionAttribute__ctor_m3630863995
h5c:_MouseButtonEventData_PressedThisFrame_m1060658845
ixb:__Z19TransferField_ArrayI19StreamedBinaryWriteILb0EE27Converter_SimpleNativeClassI8GUIStyleEEvRK23StaticTransferFieldInfoR31RuntimeSerializationCommandInfoRT0_
IMb:__Z27SetClippingPlaneShaderPropsR9GfxDevice
Wdh:_ReadOnlyCollection_1_System_Collections_Generic_IListU3CTU3E_RemoveAt_m3969985996_gshared
ZVj:_emscripten_glCopyTexSubImage2D__wrapper
ied:_GraphicRegistry_GetGraphicsForCanvas_m4219276355
$Hd:_NumberFormatter_FastToDecHex_m699829267
ptc:__Z35Transfer_Blittable_FixedBufferFieldI8JSONReadiEvRK29SerializationCommandArgumentsR31RuntimeSerializationCommandInfo
ama:__ZN15SerializeTraitsIN9ShaderLab16FastPropertyNameEE8TransferI19StreamedBinaryWriteILb0EEEEvRS1_RT_
o5i:__ZNSt3__213__vector_baseIN6il2cpp2os19SocketHandleWrapperENS_9allocatorIS3_EEED2Ev
cLh:__ZL48_Type_t3588564251_CustomAttributesCacheGeneratorP21CustomAttributesCache
fc:invoke_viiffi
NJd:_Int64_System_IConvertible_ToUInt32_m109903525
fpc:__ZN5Unity9rapidjson13GenericReaderINS0_4UTF8IcEES3_13JSONAllocatorE10ParseFalseILj0ENS0_19GenericStringStreamIS3_EENS0_15GenericDocumentIS3_S4_S4_EEEEvRT0_RT1_
Msg:_Mathf_CeilToInt_m432108984
D0f:_TimeSpan_FromHours_m1109641064
rka:__Z14resize_trimmedINSt3__26vectorIN9ShaderLab18SerializedPropertyENS0_9allocatorIS3_EEEEEvRT_j
l3i:__ZN6il2cpp2vm13MetadataCache38GetMethodInfoFromMethodDefinitionIndexEi
$1c:_EventSystem_set_current_m38955169
Wyi:_CostDelegate_EndInvoke_m2797921932
o7a:__ZN10VertexData8TransferI24GenerateTypeTreeTransferEEvRT_
zFf:_Double_IsInfinity_m820013146
Sxj:__ZN13Il2CppHashMapIPK19Il2CppGenericMethodP10MethodInfoN6il2cpp8metadata23Il2CppGenericMethodHashENS6_26Il2CppGenericMethodCompareENSt3__29allocatorINS9_4pairIK10KeyWrapperIS2_ES4_EEEEEC2EjRKS7_RKS8_
pzg:_Screen_get_dpi_m495672463
eZf:_UTF8Encoding_InternalGetByteCount_m2120178851
UUb:__ZL10CullLightsRK22SceneCullingParametersR11CullResults
MFd:_Convert_ToUInt64_m3170916409
Hx:__ZN7mecanim12statemachine20GetBlendTreeConstantERKNS0_13StateConstantEi
AJd:_Int64_System_IConvertible_ToInt16_m4062196970_AdjustorThunk
$Td:_MonoType_GetGenericTypeDefinition_m3201894896
z1b:__Z40GetTemporaryCachePathApplicationSpecificv
gqa:__ZN9GfxDevice16EndAsyncJobFrameEv
AXg:__Z99RuntimeInvoker_Int32_t2950945753_Ray_t3785851493_RuntimeObject_Single_t1397266774_Int32_t2950945753PFvvEPK10MethodInfoPvPS4_
bEc:_UNITY_tt_face_load_hhea
pZd:_DerivedType_get_Assembly_m2979298667
Wk:___syscall3
Zk:___syscall6
$k:___syscall4
tT:__ZN11UnityEngine15CloudWebService20WebRequestRestClient17GetResponseStatusEv
pre:_ReturnMessage__ctor_m2352989078
mJg:__Z99RuntimeInvoker_Void_t1185182177_RuntimeObject_Int32_t2950945753_SByte_t1669577662_SByte_t1669577662PFvvEPK10MethodInfoPvPS4_
inb:__ZNSt3__26__treeINS_12__value_typeIN4core12basic_stringIcNS2_20StringStorageDefaultIcEEEEPN16MemoryFileSystem4NodeEEENS_19__map_value_compareIS6_SA_NS_4lessIS6_EELb1EEE13stl_allocatorISA_L18MemLabelIdentifier55ELi16EEE7destroyEPNS_11__tree_nodeISA_PvEE
Htj:__ZN6il2cpp2vm3RCW14QueryInterfaceILb1EEEP14Il2CppIUnknownP15Il2CppComObjectRK10Il2CppGuid
rfe:_TlsServerCertificateRequest__ctor_m1334974076
Gwc:__ZN27PerformanceReportingManager23VirtualRedirectTransferER14SafeBinaryRead
kEd:_Convert_ToInt32_m1613163543
TYe:_MatEntry__ctor_m1949610076
udh:_ReadOnlyCollection_1_System_Collections_ICollection_CopyTo_m3127175806_gshared
pl:_emscripten_glShaderBinary
B3f:_UInt16_ToString_m760649087
fmb:__ZNK20LocalFileSystemPosix6ExistsERK13FileEntryData
Ymg:_Camera_GetAllCameras_m668492922
GTc:__Z58Register_UnityEngine_Canvas_GetETC1SupportedCanvasMaterialv
T0f:_TimeSpan_op_Inequality_m2467851530
Hzb:__ZN17AnimationCurveTplIfE8TransferI18StreamedBinaryReadILb1EEEEvRT_
aqi:_Array_Sort_TisUIVertex_t4057497605_m3996333845_gshared
OXc:__ZN18UnityConnectClientD2Ev
Erd:_Swapper_BeginInvoke_m1688449973
$og:_Display_get_renderingWidth_m1970428952
OJi:_U3CTimedTriggerU3Ec__Iterator0_MoveNext_m825792986
OPg:__Z81RuntimeInvoker_Void_t1185182177_RuntimeObject_Int32_t2950945753_Int64_t3736567304PFvvEPK10MethodInfoPvPS4_
X0:__ZN13dynamic_arrayIcLj1EE6insertEPcPKcS3_
nMg:__Z86RuntimeInvoker_Boolean_t97287965_Int16_t2552820387_Int16_t2552820387_Int32_t2950945753PFvvEPK10MethodInfoPvPS4_
Rph:_IndexedSet_1_IndexOf_m241693686_gshared
TWc:__ZN11UnityEngine15PlatformWrapper30GetGraphicsDriverLibraryStringEv
jhd:_RuntimeMethodHandle_Equals_m3301340296_AdjustorThunk
S4f:_UInt64_System_IConvertible_ToSingle_m925613075_AdjustorThunk
bBb:__Z18Transfer_BlittableI18StreamedBinaryReadILb0EELb0E4AABBEvRK29SerializationCommandArgumentsR31RuntimeSerializationCommandInfo
nfb:__ZN24GenerateTypeTreeTransfer19TransferSTLStyleMapINSt3__28multimapIN4core12basic_stringIcNS3_20StringStorageDefaultIcEEEE4PPtrI6ObjectENS1_4lessIS7_EE13stl_allocatorINS1_4pairIKS7_SA_EEL18MemLabelIdentifier52ELi16EEEEEEvRT_17TransferMetaFlags
UD:__ZN16MecanimAnimation24DeleteAnimatedPropertiesERP26IAnimatedPropertyEvaluator
dWi:_CanvasRenderer_SetMaterial_m824577244
CLb:__Z14DrawGUITextureRK5RectTIfEP7Texture11ColorRGBA32P8Materiali
Sdh:_ReadOnlyCollection_1_System_Collections_Generic_ICollectionU3CTU3E_Add_m2686599243_gshared
XA:__ZN9BlobWrite8TransferI22OffsetPtrArrayTransferIKN4math7_float4EEEEvRT_PKc17TransferMetaFlags
pMb:__ZN22RenderingCommandBuffer20ExecuteCommandBufferER17ShaderPassContextR15RenderNodeQueuejP13dynamic_arrayINSt3__24pairIN9ShaderLab16FastPropertyNameEP13RenderTextureEELj4EE16ComputeQueueTypeSA_
GBg:_Transform_IsChildOf_m224006092
c_a:__ZN15TextureSettings8TransferI24GenerateTypeTreeTransferEEvRT_
_sc:__ZN9JSONWrite8TransferI4AABBEEvRT_PKc17TransferMetaFlags
AOa:__ZN25MultiBlocksMemoryFileData9SetLengthEy
dri:_Dictionary_2_Do_ICollectionCopyTo_TisRuntimeObject_m1855083806_gshared
LIi:_Aes__ctor_m178909601
M2a:__ZNK9Texture2D20GetRuntimeMemorySizeEv
tqe:_MethodCall_get_MethodSignature_m2407904958
epc:__ZN5Unity9rapidjson13GenericReaderINS0_4UTF8IcEES3_13JSONAllocatorE9ParseTrueILj0ENS0_19GenericStringStreamIS3_EENS0_15GenericDocumentIS3_S4_S4_EEEEvRT0_RT1_
xm:_emscripten_glUniform2iv
Iyc:_UNITY_FT_Outline_Transform
A_i:__ZN6il2cpp2vm5Class10GetMethodsEP11Il2CppClassPPv
SQb:__Z30AddDefaultStreamsToMeshBuffersR9GfxDeviceR11MeshBuffersRK16DrawBuffersRange17ShaderChannelMaskS6_
_Ca:__ZN7ApiGLES17DeleteFramebufferERN2gl6HandleILNS0_10ObjectTypeE9EEES3_
CGa:__ZN15UniformTFMethod13MapBoneBufferEj
ePc:__ZN2UI14CanvasRendererD2Ev
Msi:_Array_InternalArray__get_Item_TisParameterModifier_t1461694466_m29553316_gshared
SJd:_Int64_CompareTo_m1928360444_AdjustorThunk
gGb:__Z9SetupArgviPPKc
AEd:_Convert_ToInt64_m2075031821
KJi:_AnalyticsEventTracker_OnDisable_m1553012800
RWj:_glTexParameteri__wrapper
N1a:__ZN12CubemapArray23VirtualRedirectTransferER24GenerateTypeTreeTransfer
D1:__ZN12FileAccessor4OpenER15FileSystemEntry14FilePermission16FileAutoBehavior
rwj:__ZN6il2cpp2os9Directory6CreateERKNSt3__212basic_stringIcNS2_11char_traitsIcEENS2_9allocatorIcEEEEPi
I6:__ZN23TransformChangeDispatch32QueueTransformChangeIfHasChangedERK15TransformAccess
V0a:__ZNSt3__26vectorINS_4pairIN9ShaderLab16FastPropertyNameEN18UnityPropertySheet11UnityTexEnvEEENS_9allocatorIS6_EEE21__push_back_slow_pathIKS6_EEvRT_
YVd:_Assembly_get_FullName_m293988418
B:tempValue
RHj:__ZN6il2cpp8metadata24Il2CppGenericContextHash4HashEPK20Il2CppGenericContext
jCe:_InternalEnumerator_1_get_Current_m356936020_AdjustorThunk
i9g:_Collection_1_CheckWritable_m1583234367_gshared
fJd:_Int32_ToString_m141394615_AdjustorThunk
mxd:_ArrayListWrapper_CopyTo_m498486826
ULd:_Directory_GetCurrentDirectory_m219218555
Ynd:_SmallXmlParser_UnexpectedEndError_m1914362401
ey:__ZN26AnimatorControllerPlayable18DeallocateBindingsEv
Rva:__ZN14DelayedDeletorI15dense_hashtableINSt3__24pairIK9TextureIDiEES3_14GfxGenericHashIS3_EN14GfxDoubleCacheIS3_iS7_NS1_8equal_toIS3_EEN31GfxDoubleCacheConcurrencyPolicy11LocklessGetE42GfxDoubleCacheDefaultEmptyDeletedGeneratorIS3_EE9SelectKeyESA_13stl_allocatorIS5_L18MemLabelIdentifier24ELi16EEEEclEv
zN:__ZN11AudioSource19CreateOpenALRolloffEfff
XDc:_UNITY_FT_Stream_ReadAt
S$f:_TimeSpan__ctor_m1896986612_AdjustorThunk
u2i:__ZN15dense_hashtableINSt3__24pairIK10KeyWrapperIN6il2cpp5utils13dynamic_arrayIPK10Il2CppTypeLj4EEEEPFvvEEESA_NS3_8metadata19Il2CppSignatureHashEN14dense_hash_mapISA_SD_SG_NSA_14EqualsComparerINSF_22Il2CppSignatureCompareEEENS0_9allocatorISE_EEE9SelectKeyESK_SM_E9set_valueEPSE_RKSE_
umd:_ArgumentException__ctor_m1216717135
Dwg:_Ray_ToString_m1732834890_AdjustorThunk
pd:_glReadBuffer
fxh:_List_1_System_Collections_IList_Contains_m3860993176_gshared
nO:__ZN11AudioModule22CreateAudioClipFromWWWEP10IWWWStreamPKcbbi
t5b:__ZN9Texture2DC2E10MemLabelId18ObjectCreationMode
Vi:_emscripten_glRotatef
F3f:_UInt32_System_IConvertible_ToBoolean_m1763673183_AdjustorThunk
pqg:_UnityEvent_AddListener_m2276267359
kRc:__Z13RegisterClassIN2UI11CanvasGroupEEvv
G1b:__ZN6prcoreL11inner_clearILj4EEEvPhjjj
rf:_emscripten_glClear
xDj:_GC_initialize_offsets
wea:__ZNK8Playable6HandleEv
OTe:_SetPropertyUtility_SetColor_m2229203028
aLe:_Enumerator_MoveNext_m481679286_gshared
J$:__ZN14MessageHandler28MessageIDToMessageIdentifierEi
K7a:__ZNK11SpriteAtlas20GetRuntimeRenderDataEPK6Sprite
KLd:_FileSystemInfo__ctor_m3035148496
xId:_Int32_System_IConvertible_ToDecimal_m2190376994_AdjustorThunk
yLc:__ZN20TextRenderingPrivate15DynamicFontData36GetFaceForCharacterIfAvailableInFontERKNS_7FontRefERK13dynamic_arrayI4PPtrIN13TextRendering4FontEELj4EEj
cw:__ZN7mecanim14ValueArrayCopyILb0EEEvPKNS_10ValueArrayEPS1_
iF:__Z51Register_UnityEngine_Animator_get_hasBoundPlayablesv
Hd:emscriptenWebGLGetUniform
yo:FUNCTION_TABLE_iiiiiiiiiii
YFi:_GUI_CallWindowDelegate_m3309453386
oCc:_cff_set_mm_blend
BWb:__ZL10CleanUpJobP20CullingGroupsJobData
FLd:_DirectoryInfo_get_Exists_m3142069876
tLb:__ZN13RenderManager15BatchModeUpdateEv
iif:_X509Chain_get_CertificateAuthorities_m804805415
U6a:__ZN14SafeBinaryRead21TransferSTLStyleArrayI13dynamic_arrayI8Vector2fLj4EEEEvRT_17TransferMetaFlags
s3:__ZN17PersistentManager51InstanceIDToLocalSerializedObjectIdentifierInternalEiR31LocalSerializedObjectIdentifier
Fyg:_Vector2_get_one_m738793577
hac:__ZNK4Mesh14GetIndexFormatEv
kd:_glVertexAttribIPointer
CXf:_StringBuilder_ToString_m3317489284
rCa:__ZN13dynamic_arrayI21ComputeShaderResourceLj4EE9push_backERKS0_
vac:__ZNK6Sprite10GetPaddingE20SpriteRenderDataMode
tNf:_Array_InternalArray__ICollection_Remove_TisUInt32_t2560061978_m733727733_gshared
zid:_CryptographicException__ctor_m503735289
sNd:_Stream_EndRead_m1896469262
dEg:__Z93RuntimeInvoker_Boolean_t97287965_Int32_t2950945753_SByte_t1669577662_ExceptionU26_t3600731591PFvvEPK10MethodInfoPvPS4_
MOb:__ZN14qsort_internal5QSortIP15RODataDepthPassi17ROSorterDepthPassEEvT_S4_T0_T1_
HEc:_UNITY_ft_glyphslot_alloc_bitmap
Ibh:_ReadOnlyCollection_1_System_Collections_IList_Add_m3642938800_gshared
Pie:_RSASslSignatureDeformatter_SetHashAlgorithm_m895570787
nyi:_X509CrlEntry__ctor_m4013514048
eTg:__Z87RuntimeInvoker_Color_t2555686324_Color_t2555686324_Color_t2555686324_Single_t1397266774PFvvEPK10MethodInfoPvPS4_
AJc:_ft_raster1_render
xlc:__Z47Register_UnityEngine_Mesh_RecalculateBoundsImplv
tqa:__ZN9GfxDevice27UpdateComputeSkinPoseBufferEP9GfxBufferP12SkinMeshInfo
fMj:__ZNKSt3__221__basic_string_commonILb1EE20__throw_length_errorEv
eeg:_EqualityComparer_1_System_Collections_IEqualityComparer_Equals_m245992594_gshared
eRf:_Array_InternalArray__IndexOf_TisParameterModifier_t1461694466_m1227120810_gshared
$Da:__ZN18GfxFramebufferGLES13ReadbackImageER14ImageReferenceiiiiii
Ipc:__ZN5Unity9rapidjson6WriterI16TempBufferWriterNS0_4UTF8IcEES4_13JSONAllocatorE11WriteStringEPKcj
ogd:_SerializationInfo_SetType_m3923964808
Eza:__ZN6prcoreL12RemapGenericI17TexFormatARGB888815TexFormatRGB565EEvPKNS_9InnerInfoE
dJ:__ZN4FMOD7Channel19setReverbPropertiesEPK29FMOD_REVERB_CHANNELPROPERTIES
HKi:_StandardEventPayload_GetParameters_m2672427676
zPd:_StreamReader_Dispose_m156389394
s_:__ZN13MonoBehaviour22GetScriptFullClassNameEv
u3b:__ZN13ProduceHelperI11MonoManagerLb0EE7ProduceE10MemLabelId18ObjectCreationMode
Nmf:_RIPEMD160Managed_JJ_m112143231
iOb:__ZN13BatchRendererC2ER15RenderLoopStatsRK15RenderNodeQueuebb
$mb:__ZNK16MemoryFileSystem9EnumerateEPKcP19dynamic_block_arrayI13FileEntryInfoLj32EEbPPv19FileEnumerationFlag
eEb:__ZN13MonoBehaviour9CallAwakeEv
HYa:__ZN20SphericalHarmonicsL211AddWeightedERKS_f
fHg:__Z82RuntimeInvoker_RuntimeObject_Int64_t3736567304_Int64_t3736567304_Int64_t3736567304PFvvEPK10MethodInfoPvPS4_
ntb:__Z19TransferField_ArrayI17RemapPPtrTransfer27Converter_SimpleNativeClassI8GUIStyleEEvRK23StaticTransferFieldInfoR31RuntimeSerializationCommandInfoRT0_
sqc:__ZN9JSONWrite8TransferI10ColorRGBAfEEvRT_PKc17TransferMetaFlags
D$:__Z25scripting_method_get_name18ScriptingMethodPtr
_ie:_SslCipherSuite_ComputeKeys_m661027754
Iug:_Object_set_name_m291480324
$Cf:_Decimal_Equals_m2486655999
zDj:_GC_exit_check
l4d:_MonoField_ToString_m2518484388
c9e:_DSAManaged_get_Random_m923751780
JPe:_Transform_1_Invoke_m2385719192_gshared
FCg:_Vector3_set_Item_m1772472431_AdjustorThunk
blf:_Interpreter_PopulateGroup_m4042796257
_1f:_Type_GetProperty_m3414567179
Tnj:__ZN6il2cpp2vm13LivenessState25FieldCanContainReferencesEP9FieldInfo
r_b:__ZNSt3__26vectorINS_4pairIN4core12basic_stringIcNS2_20StringStorageDefaultIcEEEES6_EE13stl_allocatorIS7_L18MemLabelIdentifier38ELi16EEE6insertENS_11__wrap_iterIPKS7_EERSD_
Qqg:_RenderPipelineManager_DoRenderLoop_Internal_m3799666479
OA:__ZN9BlobWrite8TransferI22OffsetPtrArrayTransferI9OffsetPtrIN7mecanim12statemachine18StateMachineMemoryEEEEEvRT_PKc17TransferMetaFlags
x6g:_Collection_1_System_Collections_IList_IndexOf_m3894953546_gshared
zwi:_PKCS12_get_Certificates_m26161562
Rcf:_NameObjectCollectionBase_Init_m2525481323
mqi:_Array_swap_TisBoolean_t97287965_m2293774148_gshared
jrh:_List_1_Insert_m1582252370_gshared
Lyj:__ZN6il2cpp2vm6String8NewUtf16EPKDsi
vhd:_SByte_System_IConvertible_ToByte_m2268214252_AdjustorThunk
awj:__ZN6il2cpp2os10ThreadImpl12QueueUserAPCEPFvPvES2_
BDi:_RegularExpression__ctor_m119502265
EXc:__ZN22BaseUnityConnectClient10QueueEventERN11UnityEngine15CloudWebService17CloudServiceEventEPKcjb
Tdh:_ReadOnlyCollection_1_System_Collections_Generic_ICollectionU3CTU3E_Clear_m522482168_gshared
mQi:__ZL25UnresolvedVirtualCall_139P12Il2CppObject17Color_t2555686324faaPK10MethodInfo
Bpe:_ConstructionCall_InitMethodProperty_m2021094586
xHc:_UNITY_FT_Hypot
Eki:__ZL74CanvasScaler_t2767979955_CustomAttributesCacheGenerator_m_DefaultSpriteDPIP21CustomAttributesCache
xij:_il2cpp_class_is_abstract
Bf:_emscripten_glGetError
Xfj:__ZN15dense_hashtableINSt3__24pairIK10KeyWrapperIPK14Il2CppAssemblyEPK22Il2CppMonoAssemblyNameEES6_N6il2cpp5utils11PointerHashIS4_EEN14dense_hash_mapIS6_SA_SF_NS6_14EqualsComparerINS0_8equal_toIS5_EEEENS0_9allocatorISB_EEE9SelectKeyESK_SM_E14squash_deletedEv
QJ:__Z14FMOD_FILE_SeekPvjS_
mZe:_MaskableGraphic_OnDisable_m1757789159
qZa:__ZN7TextureC2E10MemLabelId18ObjectCreationMode
bXe:_LayoutGroup__ctor_m2162961217
hVc:__Z56Register_UnityEngine_Analytics_CustomEventData_AddStringv
CXb:__ZNK13RenderTexture32CalculateNeedsInvertedProjectionEv
E0b:__ZN10systeminfo18GetOperatingSystemEv
Jf:emscriptenWebGLGet
Qaa:__Z19CanReplaceComponentRN5Unity9ComponentEPKNS_4TypeEPN4core12basic_stringIcNS5_20StringStorageDefaultIcEEEE
zRd:_UnmanagedMemoryStream_Flush_m1540584491
XFd:_GuidParser_ParseGuid2_m1914838819
m5b:__ZN12CubemapArray11InitTextureEiii13TextureFormatb
$Ed:_Convert_ToSingle_m3983149863
Lwe:_InternalEnumerator_1_System_Collections_IEnumerator_get_Current_m55999184_gshared
kdd:_Graphic_get_depth_m815589653
AFi:_Event_set_displayIndex_m1342258734
vB:__ZN7mecanim5human13HumanFixTwistEPKNS0_5HumanEPNS_8skeleton13SkeletonPoseTIN4math4trsXEEES9_iiRKf
ARb:__ZL24AssignProjectorQueuesJobP30AssignProjectorQueuesJobHeader
Y5d:_ParameterModifier_t1461694466_marshal_pinvoke
B2i:__ZN15dense_hashtableINSt3__24pairIK10KeyWrapperIN6il2cpp5utils13dynamic_arrayIPK10Il2CppTypeLj4EEEEPFvvEEESA_NS3_8metadata19Il2CppSignatureHashEN14dense_hash_mapISA_SD_SG_NSA_14EqualsComparerINSF_22Il2CppSignatureCompareEEENS0_9allocatorISE_EEE9SelectKeyESK_SM_E4swapERSP_
AGd:_Int16_System_IConvertible_ToUInt32_m3410279543
yna:__ZN9ShaderLab20SerializedSubProgram14SetConstBufferEPKci
K8i:__ZN6il2cpp2os4File5CloseEPNS0_10FileHandleEPi
a2i:__ZNSt3__27__sort5IRN6il2cpp5utils11collections13ArrayValueMapIPK10Il2CppType17Il2CppInteropData26InteropDataToTypeConverterNS1_8metadata14Il2CppTypeLessENSA_26Il2CppTypeEqualityComparerEE12SortComparerEPS8_EEjT0_SH_SH_SH_SH_T_
j3f:_UInt16_CompareTo_m2664746316_AdjustorThunk
hX:__Z40DebugStringToFilePostprocessedStacktraceRK21DebugStringToFileData
evc:__Z29Transfer_Blittable_ArrayFieldI8JSONReadjEvRT_R9ArrayInfoRK23StaticTransferFieldInfo
FDj:_GC_check_finalizer_nested
pg:__setLetterbox
_0e:_ScrollRect_OnScroll_m3861066534
N8h:__ZL72FormerlySerializedAsAttribute_t2859083114_CustomAttributesCacheGeneratorP21CustomAttributesCache
Zoc:__ZN8JSONRead32GetValueForKeyWithNameConversionEPKN5Unity9rapidjson12GenericValueINS1_4UTF8IcEE13JSONAllocatorEEPKc
pAi:_PatternCompiler_EmitFastRepeat_m3012952683
oab:__ZNSt3__26vectorI17BlendShapeChannelNS_9allocatorIS1_EEE6assignINS_11__wrap_iterIPS1_EEEENS_9enable_ifIXaasr21__is_forward_iteratorIT_EE5valuesr16is_constructibleIS1_NS_15iterator_traitsISA_E9referenceEEE5valueEvE4typeESA_SA_
x0b:__ZN11TimeManager11GetRealtimeEv
iK:__ZN29AudioEffectInternalDefinitionC2EP26UnityAudioEffectDefinitionb
Dih:_ReadOnlyCollection_1_System_Collections_IList_Remove_m2434650390_gshared
C3f:_UInt16_ToString_m3056878594_AdjustorThunk
TGj:__ZN6il2cpp2os9FastMutexD2Ev
_lf:_Interval_get_IsSingleton_m3386290029
Saj:__ZNSt3__2plIcNS_11char_traitsIcEENS_9allocatorIcEEEENS_12basic_stringIT_T0_T1_EERKS9_PKS6_
BAg:_Time_get_unscaledDeltaTime_m4270080131
Rbb:__ZN4Mesh14GetMeshBuffersER11MeshBuffers17ShaderChannelMaskPS_b
Dof:_SHA384Managed__ctor_m3220477113
Dya:_stbir_resize
rQf:_Array_IndexOf_TisCustomAttributeTypedArgument_t2723150157_m3158556463_gshared
RGf:_Environment_GetOSVersionString_m407782784
Kwf:_DecoderExceptionFallback_Equals_m1082173956
XOh:__ZL69Assembly_t_CustomAttributesCacheGenerator_Assembly_GetName_m981771927P21CustomAttributesCache
GOa:__Z37ReadDirectoryInfo_UnityWebAndUnityRawR12FileAccessorRKN20ArchiveStorageHeader6HeaderERNS1_13DirectoryInfoE
$9:__ZNSt3__26__treeINS_12__value_typeIPKciEENS_19__map_value_compareIS3_S4_15compare_tstringIS3_ELb1EEENS_9allocatorIS4_EEE7destroyEPNS_11__tree_nodeIS4_PvEE
wUf:_Array_InternalArray__Insert_TisIntPtr_t_m189626842_gshared
nhf:_X509Certificate2_get_IssuerName_m1277209535
Uld:_RijndaelManaged_CreateEncryptor_m263736311
iYc:__ZN13dynamic_arrayIN4core12basic_stringIcNS0_20StringStorageDefaultIcEEEELj4EE6assignEPKS4_S7_
KOb:__ZN20DynamicPropertySheet14SetValueQueuedEN9ShaderLab16FastPropertyNameEN19ShaderPropertySheet12PropertyTypeEjNS2_8SetFlagsE
UPc:__ZN2UI6Canvas26MarkAllNestedCanvasesDirtyEv
Wpg:_InvokableCallList_ClearPersistent_m1904264973
GFb:__ZN25PathNamePersistentManagerD2Ev
WY:__ZN17PersistentManager48IntegrateObjectAndUnlockIntegrationMutexInternalEi
Pga:__ZZ29InitializeSortingGroupManagerPvEN44PostLateUpdateSortingGroupsUpdateRegistrator7ForwardEv
fei:__ZL55EventTrigger_t1076084509_CustomAttributesCacheGeneratorP21CustomAttributesCache
jsf:_SecurityElement_SearchForChildByTag_m900466299
sp:__ZN6Object12SetHideFlagsENS_9HideFlagsE
T8e:_CryptoConvert_FromCapiPublicKeyBlob_m4073029974
QSj:_emscripten_glGetFramebufferAttachmentParameteriv__wrapper
VLb:__ZN13RendererScene15InitializeUmbraEv
yXa:__Z28CalculateGlobalMatrixInverse23TransformAccessReadOnly
Lgg:_GenericEqualityComparer_1_Equals_m3457564127_gshared
j9d:_BigInteger_ModInverse_m2426215562
Gwf:_DecoderExceptionFallback__ctor_m4044614564
ERd:_LocalDataStoreSlot__cctor_m644942532
PHj:__ZN6il2cpp6icalls8mscorlib6System6Object7GetTypeEP12Il2CppObject
a5d:_MonoProperty_CachePropertyInfo_m2968057423
v$c:__ZNK25UnityWebRequestJavaScript18GetDownloadedBytesEv
Bwg:_Ray_GetPoint_m1852405345_AdjustorThunk
Abh:_ReadOnlyCollection_1_System_Collections_Generic_IListU3CTU3E_Insert_m3798411681_gshared
tLf:_Array_get_swapper_TisColor32_t2600501292_m2310851009_gshared
n$c:__ZN12HeaderHelper14SetUnvalidatedERKN4core12basic_stringIcNS0_20StringStorageDefaultIcEEEES6_b
gG:__ZN4FMOD6SoundI7releaseEv
aBc:_cff_parse_num
iPa:__ZN10MemoryFile9SetLengthEy
svb:__ZN5RectTIiE8TransferI24GenerateTypeTreeTransferEEvRT_
C4a:__ZN14SafeBinaryRead21TransferSTLStyleArrayI13dynamic_arrayI7Hash128Lj8EEEEvRT_17TransferMetaFlags
IEb:__Z28scripting_class_is_interface17ScriptingClassPtr
Gh:_glTexStorage2D
eBd:_SyncHashtable_get_Item_m2686606216
Vma:__ZNK9ShaderLab10SubProgram14EnsureCompiledEv
t0d:_MethodBuilder_GetGenericArguments_m1765425737
pzf:_DateTime_CompareTo_m3687348273
uCj:_GC_push_marked
xAf:_DateTime_ToUniversalTime_m1945318289_AdjustorThunk
t$:__Z18BuildScriptClassId17ScriptingClassPtr
OTi:_TextGenerator_Init_m1168488231
JMa:__ZL31DeleteLastPathNameComponentImplRKN4core12basic_stringIcNS_20StringStorageDefaultIcEEEEPKc
s2b:__Z13RegisterClassI18DelayedCallManagerEvv
SXc:__ZN18UnityConnectClient15GetCloudServiceEv
Btb:__Z18Transfer_BlittableI24GenerateTypeTreeTransferLb0EiEvRK29SerializationCommandArgumentsR31RuntimeSerializationCommandInfo
iBe:_InternalEnumerator_1_get_Current_m2698009637_gshared
i5i:__ZN6il2cpp2os19SocketHandleWrapperD2Ev
BEb:__ZL28SerializationCommandGroupForRK31TransferFunctionScriptingTraits17ScriptingClassPtr17ScriptingFieldPtrRK20CoreScriptingClasses
NRa:__ZN10TagManager32RegisterDefaultTagsAndLayerMasksEv
M$f:_WaitHandle_Dispose_m738127030
jNg:__Z50RuntimeInvoker_Double_t594665363_Int32_t2950945753PFvvEPK10MethodInfoPvPS4_
XVg:__Z104RuntimeInvoker_Void_t1185182177_Color_t2555686324_Single_t1397266774_SByte_t1669577662_SByte_t1669577662PFvvEPK10MethodInfoPvPS4_
aqh:_Enumerator_System_Collections_IEnumerator_get_Current_m1540440674_gshared
etf:_Single_System_IConvertible_ToInt16_m809233024_AdjustorThunk
pVc:__Z56Register_UnityEngine_Analytics_CustomEventData_AddUInt32v
sKj:_fmodf
kTe:_InputField_UpdateLabel_m1837760870
Tua:__ZN4gles8InitCapsEP7ApiGLESP12GraphicsCapsR16GfxDeviceLevelGL
Xya:__ZN6prcore14BlitImageFloatERK14ImageReferenceRS0_NS0_8BlitModeE
bVa:__Z24CalculateVertexLightDataRK15SharedLightDataR14GfxVertexLight
oi:_glEnable
iej:__ZN15dense_hashtableINSt3__24pairIK10KeyWrapperINS1_IPK12PropertyInfoP11Il2CppClassEEEjEES9_17ReflectionMapHashIS8_EN14dense_hash_mapIS9_jSD_NS9_14EqualsComparerINS0_8equal_toIS8_EEEENS0_9allocatorISB_EEE9SelectKeyESI_SK_E15insert_noresizeERKSB_
Sma:__ZNK9ShaderLab7Program28BeginReadUnsupportedVariantsEv
u6:__ZN12CachedWriter11Align4WriteEv
Wfb:__ZNSt3__26vectorIN30RuntimeInitializeOnLoadManager9ClassInfoE13stl_allocatorIS2_L18MemLabelIdentifier13ELi16EEE7reserveEj
Fqc:__Z35Transfer_Blittable_FixedBufferFieldI9JSONWriteiEvRK29SerializationCommandArgumentsR31RuntimeSerializationCommandInfo
$gg:_Enumerator__ctor_m1590062855_AdjustorThunk
Vgj:__ZN14dense_hash_mapI10KeyWrapperINSt3__24pairIPK10MethodInfoP11Il2CppClassEEEj17ReflectionMapHashIS8_ENS9_14EqualsComparerINS1_8equal_toIS8_EEEENS1_9allocatorINS2_IKS9_jEEEEEC2EjRKSB_RKSF_
Yx:__ZN26AnimatorControllerPlayable17ProcessRootMotionEP35AnimationPlayableEvaluationConstantP32AnimationPlayableEvaluationInputP33AnimationPlayableEvaluationOutput
dRd:_UnexceptionalStreamReader_Peek_m1842169584
tWc:__ZN11UnityEngine7Connect15DeviceInfoEvent16CollectExtraInfoEv
bmg:_Bounds_GetHashCode_m1844059663_AdjustorThunk
Qid:_CryptographicException__ctor_m1422015889
cDg:_Vector4_Equals_m1779210055_AdjustorThunk
NFd:_Convert_ChangeType_m739676612
vAj:__ZThn8_N6il2cpp2vm13CachedCCWBaseINS0_13ManagedObjectEE6AddRefEv
_ce:_Alert_GetAlertMessage_m1942367141
tne:_RemotingServices_GetRealProxy_m2081098851
K8e:_BlockProcessor_Core_m189015002
YSj:_emscripten_glScissor__wrapper
Do:FUNCTION_TABLE_viifi
Eo:FUNCTION_TABLE_viiff
Bmd:_X501__cctor_m1166912714
vZe:_MaskUtilities_GetRectMasksForClip_m532898711
OHc:_UNITY_tt_face_free_hdmx
Dmg:_Bounds_ToString_m4208690781
WRd:_Math_Sqrt_m1297338011
SPd:_StreamWriter_Initialize_m3490883444
l2f:_Type_GetGenericArguments_m3500465462
o_c:__ZN23UnityPurchasingSettingsC2Ev
i3d:_Module_IsDefined_m2423524910
eLa:__ZN12TLSAllocatorI14StackAllocatorE16ThreadInitializeEP13BaseAllocator
Bbi:__ZL60EventType_t3528516131_CustomAttributesCacheGenerator_repaintP21CustomAttributesCache
STa:__ZN17GPUFenceInternals7ReleaseEv
xji:__ZL66Selectable_t3250028441_CustomAttributesCacheGenerator_m_NavigationP21CustomAttributesCache
DXb:__ZL10RenderFaceR9GfxDeviceR18MaterialStateCacheP13RenderTextureiif
qQf:_Array_IndexOf_TisCustomAttributeNamedArgument_t287865710_m2817957199_gshared
Eja:__ZN15SerializeTraitsI13dynamic_arrayIN9ShaderLab21SerializedBindChannelELj4EEE19ResizeSTLStyleArrayERS3_i
Jqj:__ZNK24NamespaceAndNamePairHashclERKNSt3__24pairIPKcS3_EE
Ovi:_ExtendedKeyUsageExtension_ToString_m2116504780
Pib:__ZNK5Unity9Component38MarkGameObjectAndComponentDependenciesER27GarbageCollectorThreadState
iLd:_BinaryReader_Read_m3708759962
K$c:__ZN20UnityWebRequestProtoI24UnityWebRequestTransport16AtomicRefCounter14RedirectHelper14ResponseHelper15DownloadHandler13UploadHandler12HeaderHelper14AsyncOperationED0Ev
yua:__ZN9GfxDevice26CreateDefaultVertexBuffersEv
qUj:_emscripten_glVertexAttrib2fv__wrapper
rQd:_SynchronizedReader_ReadToEnd_m2160105378
mFf:_Double_System_IConvertible_ToUInt16_m4132603953_AdjustorThunk
Rxa:__ZN4crnd12symbol_codec32decode_receive_static_data_modelERNS_25static_huffman_data_modelE
V0b:__ZN18ScriptingArguments8AddFloatEf
OAg:_TouchScreenKeyboard_Open_m3325559252
pfd:_Image_set_fillOrigin_m469806249
jWc:__ZN11UnityEngine15PlatformWrapper16GetVRRenderScaleEv
Frc:__Z18Transfer_BlittableI9JSONWriteLb0EaEvRK29SerializationCommandArgumentsR31RuntimeSerializationCommandInfo
QR:__ZN11UnityEngine15CloudWebService14DataDispatcher34OnSessionContainerArchivedAndReadyERNS0_16SessionContainerE
kug:_ConnectionChangeEvent__ctor_m764126802
r6d:_ResolveEventHandler_Invoke_m1337322179
Rjg:_Enumerator_VerifyState_m2621680056_gshared
wEi:_UriParser_InternalRegister_m3643767086
aia:__ZN14SafeBinaryRead19TransferSTLStyleMapINSt3__23mapIN4core12basic_stringIcNS3_20StringStorageDefaultIcEEEEiNS1_4lessIS7_EENS1_9allocatorINS1_4pairIKS7_iEEEEEEEEvRT_17TransferMetaFlags
_Fc:_gray_move_to
uBf:_DBNull_System_IConvertible_ToSingle_m13713620
Uch:_ReadOnlyCollection_1_System_Collections_IList_Contains_m1327645028_gshared
Cfd:_Image_GetDrawingDimensions_m3060965396
a9h:__ZL69FontTextureRebuildCallback_t2467502454_CustomAttributesCacheGeneratorP21CustomAttributesCache
E2f:_TypeLoadException__ctor_m1154572625
gec:__Z30RegisterValidateMethodCallbackiPF18ScriptingMethodPtrS_17ScriptingClassPtrP6ObjectEPKc
ege:_Context_get_WriteSequenceNumber_m1115956887
tri:_Dictionary_2_Do_ICollectionCopyTo_TisKeyValuePair_2_t2401056908_m1169495264_gshared
d1d:_OpCodes__cctor_m3821715395
p9c:_ContentSizeFitter__ctor_m2349275633
lFc:_tt_cmap_init
Xvc:__ZN8JSONRead8TransferI9BoundsIntEEvRT_PKc17TransferMetaFlagsb
Ia:invoke_viidi
Lpi:_Array_Sort_TisOrderBlock_t1585977831_m2922111197_gshared
bdd:_Graphic_OnRectTransformDimensionsChange_m3695755375
xhd:_SByte_System_IConvertible_ToChar_m1489191771_AdjustorThunk
JI:__ZN9AudioClip7CleanupEv
dlj:__ZNK15dense_hashtableINSt3__24pairIK10KeyWrapperIP11Il2CppClassES4_EES5_N6il2cpp8metadata16SZArrayClassHashEN14dense_hash_mapIS5_S4_SA_NS5_14EqualsComparerINS9_19SZArrayClassCompareEEENS0_9allocatorIS7_EEE9SelectKeyESE_SG_E12test_deletedEj
yuc:__Z18Transfer_BlittableI8JSONReadLb0EdEvRK29SerializationCommandArgumentsR31RuntimeSerializationCommandInfo
Ioe:_SynchronizationAttribute_EnterContext_m1660729920
sVi:_Canvas_get_referencePixelsPerUnit_m3420541976
EFi:_Event_get_current_m2393892120
OLi:_VertexHelper_Clear_m627349662
B5i:__ZN6il2cpp2vm21ThreadPoolCompartment13QueueWorkItemEP17Il2CppAsyncResult
vpa:__ZNK9GfxDevice13GetViewMatrixEv
ARd:_UnmanagedMemoryStream_Dispose_m2681886347
Phb:__ZN17RemapPPtrTransferC2E24TransferInstructionFlagsb
HDd:_Convert_ToDecimal_m889385228
R0:__ZN8TypeTree8BlobReadERPKhS1_ib
crd:_Array_Reverse_m3714848183
xbd:_Dropdown_ClearOptions_m4085591601
C8c:_CanvasUpdateRegistry_InternalRegisterCanvasElementForGraphicRebuild_m3522560454
rgb:__ZN18LoadSceneOperation23GetAllowSceneActivationEv
lSa:__ZN6CameraD0Ev
Bfa:__ZN31CanvasBatchIntermediateRenderer16StaticInitializeEPv
ox:__ZN7mecanim12AndValueMaskILb0EEEvPKNS_14ValueArrayMaskEPS1_
Kfb:__ZN14SafeBinaryRead21TransferSTLStyleArrayINSt3__26vectorIi13stl_allocatorIiL18MemLabelIdentifier13ELi16EEEEEEvRT_17TransferMetaFlags
KVf:_EncoderFallback__cctor_m3806755293
XLc:_raccess_guess_apple_double
WBa:__ZL18ProgramUniform1uivPK7ApiGLESjiihPKv
w5b:__ZN14Texture2DArray13RebuildMipMapEv
A$i:__ZN13Il2CppHashSetIPK17Il2CppGenericInstN6il2cpp8metadata21Il2CppGenericInstHashENS4_24Il2CppGenericInstCompareENSt3__29allocatorI10KeyWrapperIS2_EEEEC2EjRKS5_RKS6_
Yob:__Z18Transfer_BlittableI14SafeBinaryReadLb1EaEvRK29SerializationCommandArgumentsR31RuntimeSerializationCommandInfo
hxj:__ZN6il2cpp2gc16GarbageCollector14RemoveWeakLinkEPPv
zna:__ZN9ShaderLab20SerializedSubProgram14AddVectorParamEPKcii15ShaderParamTypei
mCd:_Enumerator__ctor_m3362421874
lUg:__Z117RuntimeInvoker_CSSSize_t3377836552_IntPtr_t_Single_t1397266774_Int32_t2950945753_Single_t1397266774_Int32_t2950945753PFvvEPK10MethodInfoPvPS4_
tYj:_emscripten_glIsFramebuffer__wrapper
huj:__ZN6il2cpp2vm6Object3BoxEP11Il2CppClassPv
Tlj:__ZN6il2cpp2vm6Thread7SetNameEP12Il2CppThreadP12Il2CppString
OGb:__ZN13ScreenManager18SetAllowCursorLockEb
iT:__ZN11UnityEngine15CloudWebService10RestClientINS0_23WebRequestRestHeaderMapEE16SetRequestHeaderERKN4core12basic_stringIcNS4_20StringStorageDefaultIcEEEESA_
Pfb:__ZN30RuntimeInitializeOnLoadManager15ClassMethodInfo8TransferI14SafeBinaryReadEEvRT_
tpe:_ConstructionCall_InitDictionary_m2824447813
FP:__ZL22InitializeModule_Audiov
Omb:__ZN16MemoryFileSystem8IsLockedERK13FileEntryData
Anj:__ZN6il2cpp6icalls8mscorlib6System2IO6MonoIO5WriteEiP11Il2CppArrayiiPi
Wsg:_Mathf_InverseLerp_m4155825980
wKg:__Z92RuntimeInvoker_RuntimeObject_RuntimeObject_RuntimeObject_SByte_t1669577662_SByte_t1669577662PFvvEPK10MethodInfoPvPS4_
al:_emscripten_glBindRenderbuffer
tuh:_List_1_System_Collections_IList_Insert_m1011775503_gshared
uDj:_GC_dirty_init
Crj:__ZN6il2cpp2vm5Image33GetCachedMemoryMappedResourceFileEP24Il2CppReflectionAssembly
Vtj:__ZN6il2cpp2vm5Field14GetValueObjectEP9FieldInfoP12Il2CppObject
aRc:__ZNK2UI6Canvas16GetTargetDisplayEv
u0f:_TimeSpan_CompareTo_m3633415627_AdjustorThunk
qda:__ZN6Object17FindObjectsOfTypeEPKN5Unity4TypeER13dynamic_arrayIPS_Lj4EEb
nZe:_MaskableGraphic_OnTransformParentChanged_m329502413
_Db:__ZN13MonoBehaviour17RemoveFromManagerEv
DCg:_Vector3_get_Item_m668685504_AdjustorThunk
SSa:__ZN12ImageFilters14AddImageFilterERK11ImageFilter
Fne:_Context_NotifyDynamicSinks_m1841702879
eGi:_GUIUtility_get_pixelsPerPoint_m2369948084
Xrf:_WindowsIdentity_System_Runtime_Serialization_IDeserializationCallback_OnDeserialization_m3428853631
xW:__ZN13MemoryManagerC2Ev
PFa:__ZN12SkinMeshInfo10DeallocateEPS_
B0e:_ScrollRect_SetDirty_m214267968
xPa:__ZN20ArchiveStorageReader28AcquireAndPrefillUnusedBlockEjPNS_11CacheResultE
Isd:_Boolean_System_IConvertible_ToDateTime_m603510836
q5b:__Z12NHxRoughnessIA4_tEvP9Texture2DPT_iiii
l8e:_ASN1_get_Value_m1857007406
Kda:__ZN18AsyncUploadManagerD2Ev
qkb:__ZN9Transform5ResetEv
ADf:_Decimal_op_Explicit_m1842265407
Ivb:__Z22TransferField_NonArrayI24GenerateTypeTreeTransfer16Converter_StringEvRK23StaticTransferFieldInfoR31RuntimeSerializationCommandInfoRT0_
QWh:__ZL52Activator_t1841325713_CustomAttributesCacheGeneratorP21CustomAttributesCache
GBc:_UNITY_FT_CMap_New
Xxe:_InternalEnumerator_1_get_Current_m4241643334_AdjustorThunk
HGb:__Z17MainLoopKeepalivePv
lEe:_InternalEnumerator_1_get_Current_m1588647567_AdjustorThunk
kWd:_Assembly_UnprotectedGetName_m600830855
DQh:__ZL51GCHandle_t3351438187_CustomAttributesCacheGeneratorP21CustomAttributesCache
NVb:__Z14CalcHullBoundsPK8Vector3fPKhhRK5PlaneRK10Matrix4x4fR10MinMaxAABB
DTe:_InputField_get_caretBlinkRate_m3620074524
FOb:__Z19SetupLODFadeKeywordR17ShaderPassContexti
Tnf:_RSAPKCS1SignatureFormatter_CreateSignature_m3191980616
n$a:__ZN10builtintex16GetDefaultTexEnvE16TextureDimensionb
rFa:__ZL25CheckCopyTextureArgumentsRK7ApiGLESP11GLESTextureS3_
ZUj:_glDeleteShader__wrapper
fvb:__Z29Transfer_Blittable_ArrayFieldI24GenerateTypeTreeTransferyEvRT_R9ArrayInfoRK23StaticTransferFieldInfo
uJ:__ZN4FMOD7SystemI9playSoundE17FMOD_CHANNELINDEXPNS_5SoundEbPPNS_7ChannelE
VJd:_Int64_GetHashCode_m703091690
hJf:_CultureInfo_set_DateTimeFormat_m1843682751
xFi:_Event_get_commandName_m4275147343
nx:__ZN27AnimationLayerMixerPlayable17LayerMixerProcessEP35AnimationPlayableEvaluationConstantP32AnimationPlayableEvaluationInputP33AnimationPlayableEvaluationOutputM17AnimationPlayableFvS1_S3_S5_EMS_FvS1_S3_S5_ESA_MS_FvS5_S1_S3_S5_ifE
HDf:_Decimal_op_Implicit_m4256234411
VH:__ZN12AudioManager23VirtualRedirectTransferER18StreamedBinaryReadILb0EE
ZGg:__Z60RuntimeInvoker_RuntimeObject_RuntimeObject_Int16_t2552820387PFvvEPK10MethodInfoPvPS4_
vPd:_StreamReader__ctor_m3941437302
lkc:__Z57Register_UnityEngine_Transform_INTERNAL_get_localRotationv
LPj:dynCall_viif
rs:__ZN7mecanim4hand8HandPoseC2Ev
mQd:_StringReader_ReadLine_m2337102945
Nsb:__ZL26Transfer_SimpleNativeClassI17RemapPPtrTransfer8GradientLb0EEvRK29SerializationCommandArgumentsR31RuntimeSerializationCommandInfo
hBd:_SyncHashtable_Add_m3016107307
_y:__ZN17AnimationPlayable26DisconnectNoTopologyChangeEPS_i
ptd:_Boolean_Equals_m2410333903_AdjustorThunk
RAh:_List_1_System_Collections_IList_Contains_m2131605266_gshared
dU:__ZN13UploadHandlerD2Ev
fOj:dynCall_viiiiiffi
HUi:_Hacker__ctor_m518604791
Cc:_emscripten_glBlendFuncSeparate
H6g:_Collection_1_Add_m809543251_gshared
L_:__Z20scripting_string_newPKc
Kic:__Z43Material_CUSTOM_Internal_CreateWithMaterialP12Il2CppObjectS0_
GDi:_Parser_IsSingleline_m326238187
lzd:_CollectionBase_get_Count_m1708965601
lkd:_HMAC__ctor_m97939284
N5f:_ValueType_DefaultEquals_m2927252100
bqc:__ZN9JSONWrite12AppendToNodeEPN5Unity9rapidjson12GenericValueINS1_4UTF8IcEE13JSONAllocatorEEPKcRS6_
s8e:_ASN1_ToString_m1340204511
oif:_X509Store_get_Certificates_m2149701265
T1f:_Type_GetField_m2961003358
Wfi:__ZL144StandaloneInputModule_t2760469101_CustomAttributesCacheGenerator_StandaloneInputModule_t2760469101____allowActivationOnMobileDevice_PropertyInfoP21CustomAttributesCache
BXf:_StringBuilder_set_Chars_m3548656617
C8i:__ZN6il2cpp2os4File17GetFileAttributesERKNSt3__212basic_stringIcNS2_11char_traitsIcEENS2_9allocatorIcEEEEPi
dC:__ZNSt3__26__sortIRPFbPKN8Animator11AnimatorJobES4_EPS4_EEvT0_S9_T_
_G:__ZN17AudioCustomFilterD2Ev
n$g:__Z56RuntimeInvoker_Void_t1185182177_MonoResource_t4103430009PFvvEPK10MethodInfoPvPS4_
nBj:_GC_unpromote_black_lists
IDa:__ZN18GfxFramebufferGLES18ReleaseFramebufferEP17RenderSurfaceBaseP14GfxContextGLES
otc:__Z18Transfer_BlittableI8JSONReadLb1EiEvRK29SerializationCommandArgumentsR31RuntimeSerializationCommandInfo
wV:__ZN19CloudServiceHandler34HandleSaveFileWebRequestPlayerLoopEv
My:__ZN7mecanim21ValueArrayReverseCopyEPKNS_18ValueArrayConstantEPKNS_10ValueArrayES2_PS3_PKi
IG:__Z31GetParentSampleClipFromInstancePN11SoundHandle8InstanceE
Q3b:__ZNK28RectTransformPropertyBinding13GetFloatValueERKN11UnityEngine9Animation10BoundCurveE
_Xb:__ZN6Camera22StandaloneCustomRenderENS_10RenderFlagEP6ShaderRKN4core12basic_stringIcNS3_20StringStorageDefaultIcEEEEPNS_21PerformRenderFunctionE
MQf:_Array_InternalArray__IndexOf_TisKeyValuePair_2_t2401056908_m4118889689_gshared
ffb:__ZNSt3__26vectorI4PPtrI6ObjectE13stl_allocatorIS3_L18MemLabelIdentifier52ELi16EEE6assignINS_11__wrap_iterIPS3_EEEENS_9enable_ifIXaasr21__is_forward_iteratorIT_EE5valuesr16is_constructibleIS3_NS_15iterator_traitsISD_E9referenceEEE5valueEvE4typeESD_SD_
kIj:__ZN6il2cpp2os16ThreadLocalValue8GetValueEPPv
rhf:_X509Certificate2_get_PublicKey_m370665820
Tyc:_cff_slot_init
T3i:__ZN6il2cpp2vm13MetadataCache14GetGenericInstEPKPK10Il2CppTypej
IP:__ZN13AudioListener17ReadExtensionNameEi
Nb:invoke_iiidii
ip:setThrew
h5b:__ZL21BuildEmptyCubeTexturePKci11ColorRGBA3217TextureColorSpace
dia:__ZN14SafeBinaryRead21TransferSTLStyleArrayINSt3__26vectorIN9ShaderLab20SerializedSubProgramENS1_9allocatorIS4_EEEEEEvRT_17TransferMetaFlags
jRf:_Array_InternalArray__IndexOf_TisX509ChainStatus_t133602714_m48896230_gshared
aOa:__ZN19dynamic_block_arrayI13FileEntryInfoLj32EE4growEj
xtc:__Z15Transfer_StringI8JSONReadLb1EEvRK29SerializationCommandArgumentsR31RuntimeSerializationCommandInfo
rAa:__ZN6prcoreL17RemapGenericFloatI17TexFormatRGBFloat15TexFormatRGHalfEEvPKNS_9InnerInfoE
_Dc:_sfnt_load_face
uLc:_UNITY_FT_Render_Glyph_Internal
soj:__ZNSt3__212basic_stringIDsNS_11char_traitsIDsEENS_9allocatorIDsEEE21__grow_by_and_replaceEjjjjjjPKDs
_Bc:_UNITY_ft_service_list_lookup
dnc:__ZN5IMGUI21SelectReceivingWindowER8GUIStateb
Bkd:_HMAC_Initialize_m3157696427
CKj:___strchrnul
YV:__ZN13BaseAllocator13TryDeallocateEPv
kgf:_X509SubjectKeyIdentifierExtension__ctor_m2055934916
aUa:__ZNSt3__26vectorIN12FlareManager10FlareEntryENS_9allocatorIS2_EEE21__push_back_slow_pathIKS2_EEvRT_
tJj:_sprintf
Ndc:__ZN9Scripting25CreateNullExceptionObjectE18ScriptingObjectPtr
vaf:_PrivateKeyInfo_DecodeRSA_m2889346634
CH:__ZN13AudioListener17RemoveFromManagerEv
wd:_glAttachShader
A9c:_ContentSizeFitter_SetLayoutHorizontal_m2833273874
Pbh:_ReadOnlyCollection_1_System_Collections_IList_RemoveAt_m134366701_gshared
pY:__ZNK6Camera19GetProjectionMatrixEv
gii:__ZL70InputField_t3762917431_CustomAttributesCacheGenerator_m_SelectionColorP21CustomAttributesCache
dUe:_InputField_SetToCustomIfContentTypeIsNot_m2813459946
q6h:__ZL70RuntimePlatform_t4159857903_CustomAttributesCacheGenerator_FlashPlayerP21CustomAttributesCache
$Kf:_Guid_GetHashCode_m3042133858_AdjustorThunk
k_:__Z38PreallocateObjectFromPersistentManagerib
jlf:_Interpreter_Backtrack_m2828876822
T2a:__ZNK9Texture2D20GetUnscaledTextureIDEv
Nhd:_SByte_System_IConvertible_ToType_m4075253447
uWj:_glFenceSync__wrapper
BBg:_Transform_INTERNAL_get_worldToLocalMatrix_m2730237241
tVe:_InputField_IsValidChar_m1928072643
Y2a:__ZNK9Texture2D26CanReuploadDataToGfxDeviceEv
eVh:__ZL63CodeAccessPermission_t2681295399_CustomAttributesCacheGeneratorP21CustomAttributesCache
bhb:__Z29ClearRepeatingLogMessageStatev
yCe:_InternalEnumerator_1_get_Current_m3191242573_gshared
sud:_Byte_Equals_m1161982810_AdjustorThunk
Yie:_SslCipherSuite_ComputeMasterSecret_m3963626850
LJa:__ZN7ApiGLESD2Ev
hRa:__ZN9Transform47ClearTransformHierarchyAndApplyToSerializedDataEv
Muc:__ZN8JSONRead21TransferSTLStyleArrayINSt3__26vectorI8MonoPPtr13stl_allocatorIS3_L18MemLabelIdentifier1ELi16EEEEEEvRT_17TransferMetaFlags
rSa:__ZN6Camera23VirtualRedirectTransferER19StreamedBinaryWriteILb0EE
aQj:dynCall_fidi
Ibj:__ZN15dense_hashtableINSt3__24pairIK10KeyWrapperINS1_IPK9FieldInfoP11Il2CppClassEEEjEES9_17ReflectionMapHashIS8_EN14dense_hash_mapIS9_jSD_NS9_14EqualsComparerINS0_8equal_toIS8_EEEENS0_9allocatorISB_EEE9SelectKeyESI_SK_E12resize_deltaEjj
pGi:_GUILayoutEntry__ctor_m2229197035
u4:__ZN15dense_hashtableINSt3__24pairIKN9ShaderLab7Program23ShaderKeywordSetAndHashEPKNS2_10SubProgramEEES4_NS3_24ShaderKeywordHashFunctorEN14dense_hash_mapIS4_S8_SA_NS0_8equal_toIS4_EE13stl_allocatorIS9_L18MemLabelIdentifier67ELi16EEE9SelectKeyESD_SG_E15insert_noresizeERKS9_
Ldc:__ZNK13MonoBehaviour13GetScriptTypeEv
oZa:__ZN13RenderTexture12SetDimensionE16TextureDimension
X8e:_DSAManaged_add_KeyGenerated_m2286864968
me:_SDL_FreeRW
pSc:__Z34CanvasRenderer_Get_Custom_PropCullP12Il2CppObject
oN:__ZN20SoundChannelInstance8getDelayE14FMOD_DELAYTYPEPjS1_
L4:__ZNSt3__26vectorIN20GpuProgramParameters15StructParameterENS_9allocatorIS2_EEEC2ERKS5_
awe:_ArrayReadOnlyList_1_Contains_m232667507_gshared
OMg:__Z77RuntimeInvoker_Boolean_t97287965_IntPtr_t_Int32_t2950945753_SByte_t1669577662PFvvEPK10MethodInfoPvPS4_
Avg:_PlayableHandle_GetPlayableType_m432385838_AdjustorThunk
jKc:__ZNSt3__26vectorIN20TextRenderingPrivate8FontImpl13CharacterInfoE13stl_allocatorIS3_L18MemLabelIdentifier1ELi16EEE8__appendEj
v:tempBigInt
VUf:_Array_InternalArray__Insert_TisKeyframe_t4206410242_m1558638568_gshared
ue:_emscripten_glVertexAttrib1fv
Mia:__ZNSt3__26vectorIN9ShaderLab20SerializedSubProgram12UAVParameterENS_9allocatorIS3_EEE7reserveEj
aNj:__ZSt11__terminatePFvvE
UJ:__ZN12AudioManager14systemCallbackEP11FMOD_SYSTEM24FMOD_SYSTEM_CALLBACKTYPEPvS3_
Hgh:_ReadOnlyCollection_1_System_Collections_Generic_ICollectionU3CTU3E_Clear_m3451551308_gshared
l7c:_BaseMeshEffect_OnEnable_m3291426649
BF:__ZN10SampleClip23VirtualRedirectTransferER24GenerateTypeTreeTransfer
AYa:__ZN16ReflectionProbes16UpdateSampleDataEv
pJf:_CultureInfo_GetCultureInfo_m56098747
bVb:__Z20AddActiveLocalLightsR11CullResultsR27LocalLightCullingParametersPPK15SharedLightDataPK8Vector4fRK9IndexListPfRSA_R12ActiveLightsSG_P5RectTIfEP13TargetEyeMask
wMh:__ZL80Hashtable_t1853889766_CustomAttributesCacheGenerator_Hashtable__ctor_m1763145853P21CustomAttributesCache
CDd:_Convert_ToDecimal_m1284148187
A8g:_Collection_1__ctor_m3489157029_gshared
_Sj:_emscripten_glRenderbufferStorage__wrapper
U9i:__ZNK6il2cpp2vm14TypeNameParser10NextWillBeEcb
uzc:_cf2_getNormalizedVector
Re:_JS_Sound_Play
Ehh:_ReadOnlyCollection_1_System_Collections_IList_set_Item_m1538987737_gshared
rha:__ZN9ShaderLab16SerializedShader8TransferI14SafeBinaryReadEEvRT_
Aed:_GridLayoutGroup_set_constraint_m3308895167
Mpe:_ConstructionCallDictionary_SetMethodProperty_m3145285304
NId:_Int32_System_IConvertible_ToUInt32_m3557270157
JPg:__Z243RuntimeInvoker_Void_t1185182177_Int16_t2552820387_RuntimeObject_Int32_t2950945753_Int32_t2950945753_Int32_t2950945753_SByte_t1669577662_SByte_t1669577662_SByte_t1669577662_SByte_t1669577662_Int16_t2552820387_SByte_t1669577662_SByte_t1669577662PFvvEPK10MethodInfoPvPS4_
Vwe:_InternalEnumerator_1_System_Collections_IEnumerator_get_Current_m1503522504_gshared
xB:__ZN7mecanim8skeleton13SkeletonAlignEPKNS0_8SkeletonERKN4math7_float4ES7_i
$5b:__ZN19ShaderPropertySheet16SetVectorIndexedEN9ShaderLab16FastPropertyNameEifRK8Vector4fNS_8SetFlagsE
m1f:_Type_get_IsAbstract_m1120089130
JCg:_Vector3_get_normalized_m2454957984_AdjustorThunk
dFi:_UriFormatException__ctor_m1115096473
Sjj:__ZN15dense_hashtableINSt3__24pairIK10KeyWrapperINS1_IP11Il2CppClassjEEES4_EES6_N6il2cpp8metadata14ArrayClassHashEN14dense_hash_mapIS6_S4_SB_NS6_14EqualsComparerINSA_17ArrayClassCompareEEENS0_9allocatorIS8_EEE9SelectKeyESF_SH_E9copy_fromERKSK_j
_Hi:_GUIUtility_IsExitGUIException_m3644066650
dV:__ZN11UnityEngine15CloudWebService14DataDispatcher4StopEv
n9c:_ColorBlock_GetHashCode_m4264192507
CGd:_Int16_System_IConvertible_ToUInt64_m134975563
Oia:__ZNSt3__26vectorIN9ShaderLab20SerializedSubProgram12UAVParameterENS_9allocatorIS3_EEE8__appendEj
Xmc:__ZN5IMGUI9GUIWindow5OnGUIER8GUIState
atf:_Single_System_IConvertible_ToDecimal_m325860800_AdjustorThunk
GTf:_Array_InternalArray__ICollection_CopyTo_TisSingle_t1397266774_m455540885_gshared
YMa:__ZN17ScriptingGCHandle7AcquireE18ScriptingObjectPtr25ScriptingGCHandleWeakness
aPg:__Z74RuntimeInvoker_RuntimeObject_RuntimeObject_Int64_t3736567304_RuntimeObjectPFvvEPK10MethodInfoPvPS4_
kQc:__ZN2UI14CanvasRenderer14AttachToCanvasER8JobFencePNS_6CanvasENS0_15InstructionTypeE
WOj:dynCall_iifiii
rya:__Z21HasAlphaTextureFormat13TextureFormat
ZO:__ZN12AudioManager6UpdateEv
kya:__ZN14ImageReference9BlitImageERKS_NS_8BlitModeE
$s:__ZN8Animator12AddToManagerEv
fjf:_X509Chain__ctor_m2674663382
Igh:_ReadOnlyCollection_1_System_Collections_Generic_IListU3CTU3E_Insert_m1121807192_gshared
UEb:__ZN23CachedSerializationDataD2Ev
_Wb:__ZNK25CameraStackRenderingState31CalculateStereoCameraTargetTypeEv
aYa:__ZN14RenderSettings23VirtualRedirectTransferER14SafeBinaryRead
wFe:_InternalEnumerator_1_get_Current_m114240259_gshared
iwj:__ZN6il2cpp2os10ThreadImpl15CurrentThreadIdEv
dVf:_Array_InternalArray__Insert_TisVector2_t2156229523_m2148694950_gshared
spf:_SymmetricAlgorithm_get_Key_m3241860519
xWe:_U3CMouseDragOutsideRectU3Ec__Iterator1_Reset_m2233410497
PTe:_InputField_set_customCaretColor_m720445789
UHc:_UNITY_tt_face_load_fpgm
bRa:__Z17IsObjectAvailablei
kcb:__ZN12InputManagerD0Ev
jEh:_Queue_1_Peek_m1713833142_gshared
ZZf:_ExecutionContext_Capture_m681135907
lye:_InternalEnumerator_1_System_Collections_IEnumerator_get_Current_m2889979481_AdjustorThunk
WLj:_posix_memalign
p8e:_ASN1_GetBytes_m3305539297
o_:__ZNK15MonoScriptCache7ReleaseEv
k_i:__ZN6il2cpp2vm5Class13HasReferencesEP11Il2CppClass
eg:_glBindTexture
kKj:_snprintf
RVg:__Z50RuntimeInvoker_RuntimeObject_Resources_t1597885468PFvvEPK10MethodInfoPvPS4_
pUj:_emscripten_glVertexAttrib1fv__wrapper
Bib:__Z36scripting_liveness_calculation_begin17ScriptingClassPtriPFvPP12Il2CppObjectiPvES3_PFvvES7_
mNi:_AudioExtensionManager_RemoveExtensionFromManager_m442924172
OSj:_emscripten_glGetProgramInfoLog__wrapper
YD:__ZN25AnimatedPropertyEvaluator29BindCurveToScriptingObjectPtrERKN13AnimationClip10FloatCurveEj18ScriptingObjectPtrb
dVh:__ZL80AllowPartiallyTrustedCallersAttribute_t1828959166_CustomAttributesCacheGeneratorP21CustomAttributesCache
l0:__ZN17PersistentManager23DestroyFromFileInternalEi
Zog:_Display__ctor_m501911701
odh:_ReadOnlyCollection_1_System_Collections_Generic_IListU3CTU3E_Insert_m1020890112_gshared
yad:_DefaultControls_SetDefaultTextValues_m1943359795
jQb:__Z19SetupMotionMatricesR6CameraR18RPDataMotionVector
UXi:__ZL7log2_64y
TC:__ZN26AnimatorControllerPlayable18PrepareForPlaybackERN7mecanim6memory9AllocatorE
pD:__ZN8Animator11AnimatorJob11AddPlayableEP17AnimationPlayablef
ved:_GridLayoutGroup_get_cellSize_m2967185053
Bxf:_CurrentSystemTimeZone_GetUtcOffset_m340358963
owi:_PKCS12_Decrypt_m1280162536
pYi:_CustomEventData_AddChar_m2745147926
uye:_InternalEnumerator_1_get_Current_m3081223448_gshared
HFi:_Event_get_isMouse_m1058251071
KWa:__ZN10VertexDataC2ERKS_17ShaderChannelMask10MemLabelId
Tyd:_CaseInsensitiveHashCodeProvider_AreEqual_m1790260777
BCc:_otv_JSTF_validate
O4:__ZN22CreateGpuProgramOutputC2Ev
iqg:_PersistentCallGroup_Initialize_m4253175514
Hsd:_Boolean_System_IConvertible_ToChar_m4279513009_AdjustorThunk
Szd:_Hashtable__ctor_m1763145853
Xpe:_LogicalCallContext__ctor_m1263247987
RHd:_NumberFormatter_ScaleOrder_m3813786990
waf:_PrivateKeyInfo_DecodeDSA_m771724585
$cj:__ZNK15dense_hashtableINSt3__24pairIK10KeyWrapperINS1_IPK10MethodInfoP11Il2CppClassEEEjEES9_17ReflectionMapHashIS8_EN14dense_hash_mapIS9_jSD_NS9_14EqualsComparerINS0_8equal_toIS8_EEEENS0_9allocatorISB_EEE9SelectKeyESI_SK_E23find_position_with_hashERSA_j
UUc:__Z38CustomEventData_CUSTOM_InternalDestroyP12Il2CppObject
V6b:__ZN8GUILayer12CleanupClassEv
W3f:_UInt32_System_IConvertible_ToSByte_m1061556466
Mme:_WellKnownClientTypeEntry__ctor_m2471908952
j_i:__ZN6il2cpp2vm5Class4InitEP11Il2CppClass
ga:invoke_vidi
C$a:__ZN8Material17MainThreadCleanupEv
Qke:_RemotingServices_CreateClientProxyForContextBound_m783705199
jbc:__ZNK15GUIEventManager15GetEventAtIndexEi
BQc:__ZN2UI14CanvasRenderer17SyncDirtyElementsER8JobFence
NKe:_Enumerator_System_Collections_IEnumerator_get_Current_m3816090481_gshared
mzj:__ZN6il2cpp5utils11StringUtils15StringDuplicateEPKc
Mcg:_DefaultComparer_Equals_m2480133610_gshared
d4:__ZNK9ShaderLab21ShaderRasterStateDesc16ToGfxRasterStateEPK19ShaderPropertySheetS3_R14GfxRasterState
gqi:_Array_Sort_TisVector3_t3722313464_m1915176437_gshared
rIj:__ZN6il2cpp2os9EventImplC2Ebb
Uxh:_List_1_get_Item_m2113769949_gshared
hUa:__ZN12FlareManager12RemoveCameraER6Camera
c5:__Z20IsMatrixBuiltinParamPKcPi
bYf:_UnicodeEncoding_GetBytesInternal_m1902824297
I5b:__ZN8Renderer19PostInitializeClassEv
gQf:_Array_FindIndex_TisRuntimeObject_m2504082708_gshared
fyi:_X509Chain_FindCertificateRoot_m1937726457
GEj:__ZN6il2cpp6icalls8mscorlib6System8Delegate23CreateDelegate_internalEP20Il2CppReflectionTypeP12Il2CppObjectP22Il2CppReflectionMethodb
OLe:_Enumerator_System_Collections_IEnumerator_get_Current_m921113401_AdjustorThunk
dWb:__ZNK13RendererScene22GetStaticBoundingBoxesEv
mEb:__ZN18DelayedCallManager18CancelCallDelayed2E4PPtrI6ObjectEPF15CallObjectStatePS1_PvES7_
Zsg:_Matrix4x4_GetHashCode_m4034747639
NKa:__ZN25ThreadsafeLinearAllocator10ReallocateEPvji
nob:__Z18Transfer_BlittableI14SafeBinaryReadLb1E11QuaternionfEvRK29SerializationCommandArgumentsR31RuntimeSerializationCommandInfo
Lga:__ZN18SpriteAtlasManagerD0Ev
gab:__ZN10Matrix4x4f8TransferI14SafeBinaryReadEEvRT_
Nid:_CryptographicUnexpectedOperationException__ctor_m2381988196
qgj:__ZN14dense_hash_mapI10KeyWrapperIPK22Il2CppGenericParameterEPK24MonoGenericParameterInfoN6il2cpp5utils11PointerHashIS2_EENS4_14EqualsComparerINSt3__28equal_toIS3_EEEENSD_9allocatorINSD_4pairIKS4_S7_EEEEE15set_deleted_keyERSJ_
NC:__ZN14AvatarPlayback8StopTimeEv
ZAe:_InternalEnumerator_1_System_Collections_IEnumerator_get_Current_m4213507601_gshared
oba:__Z6AppendRKN4core12basic_stringIcNS_20StringStorageDefaultIcEEEEPKc
THi:_GUIUtility_RemoveCapture_m1294193818
lua:__ZN7ApiGLES18ClearBufferSubDataEjN2gl12BufferTargetEll
pfc:__Z37Camera_Get_Custom_PropAllCamerasCountv
D8a:__ZN14Texture2DArray8TransferI18StreamedBinaryReadILb0EEEEvRT_
kUb:__Z18ApplyOcclusionMaskR19ProbeOcclusionCacheRK17LightProbeContextRK10RenderNodeb
vJc:_Split_Cubic
db:invoke_fiiii
WVe:_InputField_OnSubmit_m3583210804
qEi:_Uri_CheckHostName_m2213216182
mUj:_emscripten_glBindRenderbuffer__wrapper
Xri:_Mesh_SetUvsImpl_TisVector2_t2156229523_m3009194955_gshared
M5f:_ValueType_InternalEquals_m1384040357
iqi:_Array_Sort_TisVector4_t3319028937_TisVector4_t3319028937_m4254533673_gshared
cxd:_ArrayListWrapper_Contains_m2641184447
hJc:_ft_black_render
jMg:__Z177RuntimeInvoker_Int32_t2950945753_RuntimeObject_Int32_t2950945753_Int32_t2950945753_RuntimeObject_Int32_t2950945753_EncoderFallbackBufferU26_t2343550713_CharU5BU5DU26_t3299466565PFvvEPK10MethodInfoPvPS4_
hQj:dynCall_viiifi
VCa:__ZN18GfxFramebufferGLES20ActiveContextChangedEPP17RenderSurfaceBaseS2_
MCa:__Z19PluginsRenderMarkeri
FE:__ZN10HumanTrait18InitializeBoneNameEv
Via:__ZNSt3__26vectorIN9ShaderLab20SerializedSubProgram15StructParameterENS_9allocatorIS3_EEE6assignINS_11__wrap_iterIPS3_EEEENS_9enable_ifIXaasr21__is_forward_iteratorIT_EE5valuesr16is_constructibleIS3_NS_15iterator_traitsISC_E9referenceEEE5valueEvE4typeESC_SC_
Hrj:__ZNSt3__214__split_bufferIN6il2cpp2vm5Image20EmbeddedResourceDataERNS_9allocatorIS4_EEEC2EjjS7_
gH:__ZN12AudioManager17RemoveAudioSourceEP11AudioSource
pif:_X509Certificate2Collection_Add_m3151757943
oJe:_Comparer_1__cctor_m951016718_gshared
Xyd:_CaseInsensitiveHashCodeProvider_get_DefaultInvariant_m4264275163
BMg:__Z195RuntimeInvoker_Int32_t2950945753_RuntimeObject_Int32_t2950945753_Int32_t2950945753_Int32_t2950945753_RuntimeObject_DecoderFallbackBufferU26_t3866396827_ByteU5BU5DU26_t4057885439_SByte_t1669577662PFvvEPK10MethodInfoPvPS4_
PQ:__ZN5physx14PxLightCpuTask12addReferenceEv
sWa:__ZNK15InstancingProps35FillInstanceBufferDispatchConstantsIN10Instancing14RenderLoopArgsEEEvPPvjjRK19ShaderPropertySheetRKT_
SZg:__Z86RuntimeInvoker_Int32_t2950945753_Color32_t2600501292_Color32_t2600501292_RuntimeObjectPFvvEPK10MethodInfoPvPS4_
f5a:__ZN21EnlightenSceneMapping8TransferI19StreamedBinaryWriteILb0EEEEvRT_
utj:__ZN6il2cpp2gc16GarbageCollector19InitializeFinalizerEv
Oy:__ZN7mecanim8skeleton18CreateSkeletonMaskEjPKNS0_19SkeletonMaskElementERNS_6memory9AllocatorE
Cmc:__ZN10GUIManager10DoGUIEventER10InputEventb
fub:__Z35Transfer_Blittable_FixedBufferFieldI24GenerateTypeTreeTransferxEvRK29SerializationCommandArgumentsR31RuntimeSerializationCommandInfo
pDc:_otv_LangSys_validate
Rxg:_RectOffset_get_right_m2294081512
sVf:_Array_InternalArray__set_Item_TisLink_t544317964_m1234244240_gshared
_Hc:_UNITY_TT_Init_Glyph_Loading
kPb:__Z20CalculateSqrDistanceRK8Vector3fRK4AABB
sgd:_SerializationInfo_GetBoolean_m1756153320
FL:__Z32AudioMixerDuckingProcessCallbackP21UnityAudioEffectStatePfS1_jii
Ctg:_Mesh_get_uv2_m3615020997
M4b:__ZN26CustomRenderTextureManagerD2Ev
rhc:__Z32Input_Get_Custom_PropInputStringv
Mdg:_EqualityComparer_1_System_Collections_IEqualityComparer_Equals_m4172006498_gshared
_H:__ZN12AudioManager8TransferI24GenerateTypeTreeTransferEEvRT_
Lsg:_Mathf_Round_m4098141538
pxa:__Z25GetBytesFromTextureFormat13TextureFormat
Xmj:__ZN6il2cpp6icalls8mscorlib6System9Threading6Thread20Thread_free_internalEP12Il2CppThreadi
hOj:dynCall_iiffi
idf:__KeysEnumerator_get_Current_m2996478063
RD:__ZN16MecanimAnimation25RegisterIAnimationBindingEPKN5Unity4TypeEiP17IAnimationBinding
b0:__Z32scripting_class_get_assemblyname17ScriptingClassPtr
lWc:__ZN11UnityEngine15PlatformWrapper15GetVRDeviceNameEv
DVg:__Z99RuntimeInvoker_Boolean_t97287965_Int32_t2950945753_PointerEventDataU26_t867828220_SByte_t1669577662PFvvEPK10MethodInfoPvPS4_
Fze:_InternalEnumerator_1_get_Current_m2128158355_AdjustorThunk
PIa:__ZN9GfxDevice21RegisterNativeTextureE9TextureIDi16TextureDimension
gdd:_GraphicRegistry__ctor_m1851575309
WFj:__ZN6il2cpp6icalls8mscorlib6System10Reflection4Emit11TypeBuilder20create_generic_classEP27Il2CppReflectionTypeBuilder
fof:_SHA1Internal_FillBuff_m3615718415
TNf:_PlayableHandle_IsPlayableOfType_TisAnimationLayerMixerPlayable_t3631223897_m201603007_gshared
sQ:__Z60Register_UnityEngine_AudioListener_GetNumExtensionPropertiesv
Zi:_emscripten_glUniformMatrix4fv
fkj:__ZN15dense_hashtableINSt3__24pairIK10KeyWrapperINS1_IP11Il2CppClassjEEES4_EES6_N6il2cpp8metadata14ArrayClassHashEN14dense_hash_mapIS6_S4_SB_NS6_14EqualsComparerINSA_17ArrayClassCompareEEENS0_9allocatorIS8_EEE9SelectKeyESF_SH_E13set_empty_keyERKS8_
gjb:__ZN12ScriptMapperD2Ev
ZXj:b100
Ftg:_Mesh_get_colors32_m1253190811
XBj:_GC_stopped_mark
Hvj:__ZN6il2cpp2os6Thread3RunEPFvPvES2_
clg:_AnimationCurve_Finalize_m2397002729
_3e:_Text_OnEnable_m616205807
c4g:__Z50RuntimeInvoker_RuntimeObject_ColorTween_t809614380PFvvEPK10MethodInfoPvPS4_
dve:_SerializationCallbacks__cctor_m1674315180
Fjc:__Z52Register_UnityEngine_RenderTexture_Internal_GetWidthv
RCj:_GC_check_leaked
Vla:__ZN9ShaderLab20SerializedSubProgram16TextureParameter8TransferI19StreamedBinaryWriteILb0EEEEvRT_
qKa:__ZNK7Hash12812PackToUInt32Ev
dyd:_SynchronizedArrayListWrapper_IndexOf_m3642674350
Q1:__ZNSt3__227__insertion_sort_incompleteIRNS_6__lessI14ObjectLoadDataS2_EEPS2_EEbT0_S6_T_
lV:__ZN11UnityEngine15CloudWebService16SessionContainer8AddEventEPNS0_14CloudEventInfoE
EHa:__Z4TrimRKN4core12basic_stringIcNS_20StringStorageDefaultIcEEEES5_
lri:_Dictionary_2_Do_ICollectionCopyTo_TisKeyValuePair_2_t3842366416_m1399105608_gshared
Bhf:_X509Certificate2_Import_m4026562329
aNe:_Enumerator_System_Collections_IEnumerator_get_Current_m2763095718_AdjustorThunk
sWj:_glGetStringi__wrapper
b7a:__ZN10VertexData8TransferI14SafeBinaryReadEEvRT_
oJ:__ZN4FMOD8ChannelI8setDelayE14FMOD_DELAYTYPEjj
LDj:_GC_malloc_atomic
I8d:_ActivatedClientTypeEntry_ToString_m2494181680
Lhg:_HashSet_1_GetEnumerator_m3346268098_gshared
tGj:__ZN6il2cpp5utils6Memory13AlignedMallocEjj
aWe:_Selectable_get_animator_m2899312855
eZ:__ZL20SortItemByInstanceIDRKN18AwakeFromLoadQueue4ItemES2_
pCg:_Vector2_op_Multiply_m2347887432
Adf:_TypeConverterAttribute__ctor_m1774069684
Zy:__ZNK34AnimationStateMachineMixerPlayable26GetInterruptedPosePlayableEv
cZc:__ZN20UnityConnectSettings8TransferI24GenerateTypeTreeTransferEEvRT_
_A:__ZN34BlobWriteTransferSTLStyleArrayImplI22OffsetPtrArrayTransferIbEEclERS1_17TransferMetaFlagsR9BlobWrite
vnd:_Byte_ToString_m4063101981
mTd:_MonoType_GetConstructors_m2574682189
kef:_ServicePointManager_FindServicePoint_m4119451290
Uca:__ZL31InitializeRendererUpdateManagerPv
rYd:_ParameterInfo__ctor_m2779026345
WTe:_InputField_set_onValueChange_m1251390545
mRc:__ZN2UI13CanvasManager14GetRenderOrderEPKNS_6CanvasE
GUd:_NumberFormatter_get_IsZeroInteger_m2263284741
Bui:_X509Certificate_PEM_m2020851166
qUf:_Array_InternalArray__Insert_TisDateTime_t3738529785_m2308632330_gshared
cnf:_RNGCryptoServiceProvider_RngGetBytes_m1695806698
uhe:_TlsServerCertificateRequest_ProcessAsTls1_m3214041063
LDc:_compare_uni_maps
YWc:__ZN11UnityEngine15PlatformWrapper27GetGraphicsCapsSupportFlagsEv
mri:_Dictionary_2_Do_ICollectionCopyTo_TisRuntimeObject_m3695543300_gshared
Ixb:__ZN12NativeBufferI16Converter_StringE15SetupForWritingER9ArrayInfo
cga:__ZN13RuntimeStaticI18AssetBundleManagerLb1EE16StaticInitializeEPv
QRj:___cxa_end_catch__wrapper
Tvd:_Char_ToString_m278452217
rEg:__Z32RuntimeInvoker_Boolean_t97287965PFvvEPK10MethodInfoPvPS4_
P9d:_BigInteger_op_RightShift_m460065452
XEb:__ZN13MonoBehaviour22DoScriptRebuildWarningEv
rfc:__Z38Camera_CUSTOM_INTERNAL_CALL_RaycastTryP12Il2CppObjectRK3Rayfi
INc:__Z38TextGenerator_Get_Custom_PropLineCountP12Il2CppObject
hui:_InternalAsyncResult_SetComplete_m963842420
wWf:_Encoding_GetEncoding_m2801244948
Enc:__ZN11IMGUIModule25GetGUIStyleScriptingClassEv
nGc:_tt_get_interface
kke:_SslStreamBase_EndRead_m495357226
Imj:__ZN6il2cpp5utils9PathUtils7CombineIcEENSt3__212basic_stringIT_NS3_11char_traitsIS5_EENS3_9allocatorIS5_EEEERKSA_SC_
mtc:__ZN9JSONWrite8TransferI13dynamic_arrayIiLj4EEEEvRT_PKc17TransferMetaFlags
UOg:__Z64RuntimeInvoker_RuntimeObject_SByte_t1669577662_SByte_t1669577662PFvvEPK10MethodInfoPvPS4_
V8b:__ZN13PlayableGraph21InvalidateMultithreadEv
Ijg:_Enumerator_System_Collections_IEnumerator_get_Current_m713684915_AdjustorThunk
kgg:_GenericComparer_1_Compare_m459680062_gshared
WZd:_EnumBuilder_GetConstructorImpl_m3068576149
O_:__Z18ConvertUTF16toUTF8PPKtS0_PPhS2_15ConversionFlags
Exj:__ZN6il2cpp2os20PathErrnoToErrorCodeERKNSt3__212basic_stringIcNS1_11char_traitsIcEENS1_9allocatorIcEEEEi
Yhi:__ZL68InputField_t3762917431_CustomAttributesCacheGenerator_m_KeyboardTypeP21CustomAttributesCache
Ybc:__Z24GetActualTargetFrameRatev
HXi:__ZL16my_g_bit_nth_msfj
GDh:_Enumerator_MoveNext_m3662315381_AdjustorThunk
che:_TlsClientFinished_ProcessAsTls1_m2429863130
wNb:__Z23SetupStereoFlareElementP11FlareVertexRK8Vector2fS3_S3_RK11ColorRGBA32RK10Matrix4x4fRK8Vector3fb
sa:invoke_iiiifiiii
aUe:_InputField_EnforceContentType_m2436948794
Kvf:_String_Join_m2050845953
aPe:_ShimEnumerator_MoveNext_m2406150314_gshared
ODa:__ZL19BlitFramebufferImplRN4gles23BlitFramebufferDrawQuadER9GfxDevice9TextureIDRK8Vector4f
jcj:__ZN15dense_hashtableINSt3__24pairIK10KeyWrapperIPK10Il2CppTypeEjEES6_N6il2cpp8metadata14Il2CppTypeHashEN14dense_hash_mapIS6_jSB_NS6_14EqualsComparerINSA_26Il2CppTypeEqualityComparerEEENS0_9allocatorIS8_EEE9SelectKeyESF_SH_E4findERS7_
TOj:dynCall_viiiiiiiiiiiiii
EHc:_UNITY_FT_List_Add
k5b:__ZN14Texture2DArray11InitTextureEiii13TextureFormatb
Avi:_X509Extension__ctor_m1474351312
snh:_InvokableCall_1_Invoke_m1524307439_gshared
CLd:_Directory_CreateDirectoriesInternal_m3735342319
kYe:_LayoutUtility_GetLayoutProperty_m3731360667
fhj:__ZN15dense_hashtableINSt3__24pairIK10KeyWrapperINS1_IPK11Il2CppImageP11Il2CppClassEEEjEES9_17ReflectionMapHashIS8_EN14dense_hash_mapIS9_jSD_NS9_14EqualsComparerINS0_8equal_toIS8_EEEENS0_9allocatorISB_EEE9SelectKeyESI_SK_E14squash_deletedEv
hpf:_SHAConstants__cctor_m1699027474
gY:__ZNK6Camera26GetStereoSingleCullEnabledEv
_fb:__Z14resize_trimmedINSt3__26vectorIN4core12basic_stringIcNS2_20StringStorageDefaultIcEEEE13stl_allocatorIS6_L18MemLabelIdentifier13ELi16EEEEEvRT_j
Xob:__Z18Transfer_BlittableI14SafeBinaryReadLb0EaEvRK29SerializationCommandArgumentsR31RuntimeSerializationCommandInfo
Xvd:_CharEnumerator_System_Collections_IEnumerator_get_Current_m1328529384
aRj:_emscripten_glFrustum__wrapper
SWi:_AnimationLayerMixerPlayable__ctor_m860721801
iIc:_UNITY_FT_List_Iterate
qvd:_Char_System_IConvertible_ToUInt64_m3536560782
bdg:_EqualityComparer_1__cctor_m3452395357_gshared
bMb:__Z20SyncFenceCullResultsR11CullResults
qGa:__ZN15TextureTFMethod20IsBoneCountSupportedEi
MFf:_Double_ToString_m3828879243_AdjustorThunk
qtb:__Z22TransferField_NonArrayI17RemapPPtrTransfer27Converter_SimpleNativeClassI8GUIStyleEEvRK23StaticTransferFieldInfoR31RuntimeSerializationCommandInfoRT0_
LQd:_TextReader_Synchronized_m3004980758
Z0b:__ZNK17AnimationCurveTplIfE20EvaluateWithoutCacheEfRf
FTg:__Z67RuntimeInvoker_Boolean_t97287965_Rect_t2360479859_SByte_t1669577662PFvvEPK10MethodInfoPvPS4_
sYa:__ZN19ShaderPropertySheet10SetTextureERK23FastTexturePropertyNameP7Texture
pXd:_CustomAttributeData__ctor_m2966233049
p8c:_CanvasUpdateRegistry_PerformUpdate_m1793997159
sge:_Context_set_ClientWriteIV_m3405909624
Mac:__ZN4Mesh10SetNormalsEPK8Vector3fj
PIi:_AesManaged_CreateDecryptor_m692040246
dzj:__ZNSt3__212basic_stringIDsNS_11char_traitsIDsEENS_9allocatorIDsEEE9__grow_byEjjjjjj
ts:__ZN17AnimationCurveTplIfE8TransferI14SafeBinaryReadEEvRT_
yVf:_Array_InternalArray__set_Item_TisInt16_t2552820387_m2544074754_gshared
Kpd:_ArithmeticException__ctor_m3551809662
bMd:_MonoIO_ExistsDirectory_m2182482658
H_b:__Z29StdTemplateConversionFunctionIybEbPvR14SafeBinaryRead
C5a:__ZNSt3__26vectorIN15QualitySettings14QualitySettingENS_9allocatorIS2_EEE6assignIPS2_EENS_9enable_ifIXaasr21__is_forward_iteratorIT_EE5valuesr16is_constructibleIS2_NS_15iterator_traitsIS9_E9referenceEEE5valueEvE4typeES9_S9_
f:HEAPU32
fsh:_List_1_CheckCollection_m1671972112_gshared
FMe:_Enumerator_System_Collections_IEnumerator_get_Current_m1747693366_gshared
nYf:_UnicodeEncoding_GetPreamble_m3002287178
RMi:_AudioSource_get_spatialize_m3609701298
iTg:__Z52RuntimeInvoker_Color_t2555686324_Color32_t2600501292PFvvEPK10MethodInfoPvPS4_
sna:__ZN20GpuProgramParameters14AddVectorParamEPKcii15ShaderParamTypeiiiP16PropertyNamesSet
__c:__ZNK12HeaderHelper3GetERKN4core12basic_stringIcNS0_20StringStorageDefaultIcEEEE
Acb:__ZN9InputAxis8TransferI14SafeBinaryReadEEvRT_
zZ:__ZNK21ExecutionOrderManager30GetCustomAwakeFromLoadQueueForEPKN5Unity4TypeE
r_c:__Z27RegisterModule_UnityConnectv
uOd:_MemoryStream_Expand_m3554752073
Cfj:__ZN6il2cpp2vm10Reflection27GetCustomAttributesCacheForEP25Il2CppReflectionParameter
tzg:_ScriptableObject_CreateInstance_m2611081756
ote:_ObjectRecord_get_IsInstanceReady_m2304516395
vFe:_InternalEnumerator_1_System_Collections_IEnumerator_get_Current_m1635397542_gshared
$Od:_Path__cctor_m3273994011
pJi:_AnalyticsEventTracker__ctor_m3064238498
gNj:__ZNSt11logic_errorD2Ev
tyf:_DateTimeUtils_CountRepeat_m3396693018
q6f:_WeakReference_get_Target_m168713953
IK:__ZN10ObjectPoolIN4FMOD12ChannelGroupENS0_13ChannelGroupIEE7SetSizeEi
AIi:_SymmetricTransform_FinalDecrypt_m764004682
owj:__ZN6il2cpp2os10ThreadImpl33UnregisterCurrentThreadForCleanupEv
kBi:_Parser_ParseGroupingConstruct_m263270497
lhj:__ZN14dense_hash_mapI10KeyWrapperINSt3__24pairIPK9EventInfoP11Il2CppClassEEEj17ReflectionMapHashIS8_ENS9_14EqualsComparerINS1_8equal_toIS8_EEEENS1_9allocatorINS2_IKS9_jEEEEE15set_deleted_keyERSH_
dx:__ZN27AnimationLayerMixerPlayable22PrepareAnimationEventsEfR13dynamic_arrayI22AnimationClipEventInfoLj4EE
Hqb:__Z14resize_trimmedINSt3__26vectorI17AnimationCurveTplIfE13stl_allocatorIS3_L18MemLabelIdentifier1ELi16EEEEEvRT_j
YWb:__ZN25CameraStackRenderingState19SetupLastEyeCamerasERK11CameraStack
NPa:__Z12GUIDToStringRK9UnityGUID
Qie:_RSASslSignatureDeformatter_SetKey_m2204705853
FG:__ZN11SoundHandleC2ERKS_
ot:__ZN17AnimationPlayableC2E18DirectorPlayerType
cTe:_InputField_set_shouldHideMobileInput_m1650743574
y3i:__ZNK6il2cpp5utils11collections13ArrayValueMapIPK10Il2CppType17Il2CppInteropData26InteropDataToTypeConverterNS_8metadata14Il2CppTypeLessENS8_26Il2CppTypeEqualityComparerEE10find_firstERKS5_
YMd:_FileStream_get_CanSeek_m331583577
Qjd:_DSAParameters_t1885824122_marshal_pinvoke_back
Dz:__ZN8Animator22OnGraphTopologyChangedEP8Playablei
L7e:_Kernel_MultiplyByDword_m1266935086
zEd:_Convert_ToInt64_m3916071102
GYb:__ZN6Camera25StandaloneRenderToCubemapEP7TextureiPFvPK9SceneNodePK4AABBR9IndexListPvESA_j
Guf:_String_Trim_m3384720403
eYa:__ZN14RenderSettings18TransferDeprecatedI14SafeBinaryReadEEvRT_
IMg:__Z93RuntimeInvoker_Single_t1397266774_SingleU26_t1922108698_Single_t1397266774_Single_t1397266774PFvvEPK10MethodInfoPvPS4_
qFi:_Event__ctor_m526447123
RPg:__Z88RuntimeInvoker_RuntimeObject_RuntimeObject_RuntimeObject_RuntimeObject_Int32_t2950945753PFvvEPK10MethodInfoPvPS4_
k2f:_Type_ToString_m3975981286
rZ:__ZN12TLSAllocatorI14StackAllocatorE8AllocateEji
s$:__ZN16ScriptingManager18GetMonoScriptCacheEi
yBi:_ExpressionAssertion__ctor_m2554412824
zig:_Enumerator_System_Collections_IEnumerator_get_Current_m2237476582_gshared
cpb:__Z18Transfer_BlittableI14SafeBinaryReadLb1EyEvRK29SerializationCommandArgumentsR31RuntimeSerializationCommandInfo
rUd:_NullReferenceException__ctor_m3076065613
iqc:__ZN8JSONRead8TransferIfEEvRT_PKc17TransferMetaFlagsb
ngf:_X509SubjectKeyIdentifierExtension_Decode_m1505409124
bna:__ZL23AddGpuProgramParametersR20GpuProgramParametersRKNSt3__26vectorIN9ShaderLab20SerializedSubProgram15MatrixParameterENS1_9allocatorIS5_EEEERKNS2_INS4_15VectorParameterENS6_ISB_EEEEiiP16PropertyNamesSet
GAa:__ZN6prcoreL17RemapGenericFloatI18TexFormatARGBFloat17TexFormatRGBAHalfEEvPKNS_9InnerInfoE
mJi:_AnalyticsEventParamListContainer__ctor_m1995104893
juf:_String_System_IConvertible_ToUInt16_m2888090399
pM:__ZN11AudioSource21ApplyCachedParametersE12SoundChannel
gWd:_Assembly_InternalGetType_m3065345470
a7d:_ResourceSet__ctor_m3356376607
Y9d:_PrimeGeneratorBase_get_PrimalityTest_m2487240563
oRh:__ZL56_ParameterInfo_t489405856_CustomAttributesCacheGeneratorP21CustomAttributesCache
H4a:__ZN15SerializeTraitsI33EnlightenTerrainChunksInformationE8TransferI14SafeBinaryReadEEvRS0_RT_
Y5b:__ZNK32RendererMaterialAnimationBinding9BindValueER6ObjectRKN11UnityEngine9Animation14GenericBindingERNS3_10BoundCurveE
vQe:_Transform_1_Invoke_m1731820209_gshared
$Ya:__Z13GetIAnimationv
Pya:__ZL18stbir__support_onef
Ctf:_Single_CompareTo_m189772128
Vrc:__Z26Transfer_UnityEngineObjectI9JSONWriteLb0EEvRK29SerializationCommandArgumentsR31RuntimeSerializationCommandInfo
KHe:_DefaultComparer_Compare_m4042058291_gshared
cfd:_Image_set_overrideSprite_m3213596394
n0a:__ZNSt3__26vectorIN4core12basic_stringIcNS1_20StringStorageDefaultIcEEEE13stl_allocatorIS5_L18MemLabelIdentifier1ELi16EEE6assignINS_11__wrap_iterIPS5_EEEENS_9enable_ifIXaasr21__is_forward_iteratorIT_EE5valuesr16is_constructibleIS5_NS_15iterator_traitsISF_E9referenceEEE5valueEvE4typeESF_SF_
JPc:__ZNSt3__27__sort5IRNS_6__lessIN2UI14DepthSortEntryES3_EEPS3_EEjT0_S7_S7_S7_S7_T_
JMd:_FileLoadException_ToString_m2989457882
hNi:_AudioListener_ClearExtensionProperties_m3849891634
bzc:_UNITY_FT_DivFix
ysi:_Array_InternalArray__get_Item_TisDecimal_t2948259380_m3511003792_gshared
Xqf:_SecurityElement_IsValidAttributeValue_m948345692
Wxc:__ZN19ControllerHitReport15onControllerHitERKN5physx16PxControllersHitE
Ba:invoke_vdd
Bn:FUNCTION_TABLE_fiii
WQd:_TextWriter_Write_m2252948084
k8b:__Z19RegisterModule_Corev
mNc:__ZZ29InitializeTextRenderingModulevEN27cleanupAfterLoadRegistrator7ForwardEv
ikb:__ZNSt3__26__sortIRPFbRK23TransformAccessReadOnlyS3_EPS1_EEvT0_S8_T_
DHf:_CCFixed_FromDateTime_m3894190577
LWb:__Z29PluginsIssueRenderingExtEvent26UnityRenderingExtEventTypePv
HHg:__Z116RuntimeInvoker_RuntimeObject_RuntimeObject_Int32_t2950945753_RuntimeObject_RuntimeObject_RuntimeObject_RuntimeObjectPFvvEPK10MethodInfoPvPS4_
Ste:_MessageFormatter_ReadMethodCall_m2327590823
Z4b:__Z14RandomRotationP9Texture2DPhiiii
ESf:_Array_InternalArray__ICollection_Add_TisUInt16_t2177724958_m3981262878_gshared
ACf:_Decimal_GetBits_m453754410
Ihg:_HashSet_1_Contains_m3173358704_gshared
gLi:_ToggleEvent__ctor_m834619998
Vbe:_PKCS1_Encode_v15_m2077073129
Pxg:_RectOffset_get_left_m1232181034
QBa:__ZN4gles14UseGLSLProgramER15DeviceStateGLESjbij
YUj:_glDeleteProgram__wrapper
yfc:__Z50Register_UnityEngine_Camera_INTERNAL_get_pixelRectv
Yza:__ZN6prcoreL18BlitFloatToIntegerERK14ImageReferenceRS0_
xBf:_DBNull_System_IConvertible_ToUInt32_m3784627971
vfe:_ClientSessionCache_Add_m964342678
_Fa:__ZN13dynamic_arrayI15ComputeShaderCBLj4EE6assignEPKS0_S3_
GU:__ZN11UnityEngine15CloudWebService14RestDownloader17OnCompleteContentEv
abj:__ZN15dense_hashtableINSt3__24pairIK10KeyWrapperINS1_IPK14Il2CppAssemblyP11Il2CppClassEEEjEES9_17ReflectionMapHashIS8_EN14dense_hash_mapIS9_jSD_NS9_14EqualsComparerINS0_8equal_toIS8_EEEENS0_9allocatorISB_EEE9SelectKeyESI_SK_E15insert_noresizeERKSB_
sBg:_Transform_get_localScale_m129152068
UCf:_DivideByZeroException__ctor_m3496959969
Qa:invoke_viffi
jz:__ZN17AnimationPlayable28UpdateInternalStateRecursiveILi1ELb0EEEvPK35AnimationPlayableEvaluationConstant
Itj:__ZN6il2cpp2gcL10CleanupCCWEPvS1_
Ta:invoke_vifff
QWj:_glGetVertexAttribiv__wrapper
Qe:_emscripten_request_fullscreen
Nlh:_Predicate_1_Invoke_m851618236_gshared
RFb:__ZN20LocalFileSystemWebGL6DeleteER13FileEntryDatab
Se:_emscripten_glDisableVertexAttribArray
pNf:_Array_InternalArray__ICollection_Remove_TisSingle_t1397266774_m3361324455_gshared
Xm:FUNCTION_TABLE_iiiifiiii
Mga:__ZN4core8hash_mapINS_12basic_stringIcNS_20StringStorageDefaultIcEEEE13dynamic_arrayI4PPtrI6SpriteELj4EENS_4hashIS4_EENSt3__28equal_toIS4_EEE12delete_nodesEv
mc:invoke_fifffi
E8g:_Collection_1_System_Collections_IList_Add_m2969482770_gshared
yJ:__ZN4FMOD5Sound15getNumSubSoundsEPi
kwa:__ZN4gles23ClearCurrentFramebufferEP7ApiGLESbbbRK10ColorRGBAffi
VKe:_Enumerator_System_Collections_IDictionaryEnumerator_get_Entry_m3249874482_AdjustorThunk
Soh:_UnityEvent_1_Invoke_m3604335408_gshared
bf:_emscripten_glDeleteObjectARB
l2c:_EventSystem_RaycastComparer_m3685368675
Yf:_IMG_Load
BLg:__Z131RuntimeInvoker_Void_t1185182177_RuntimeObject_RuntimeObject_Int64_t3736567304_ObjectU26_t2146539884_SerializationInfoU26_t419328957PFvvEPK10MethodInfoPvPS4_
Gjc:__Z53Register_UnityEngine_RenderTexture_Internal_GetHeightv
Wbf:_PKCS12_RemoveCertificate_m1421555398
e3e:_Slider_FindSelectableOnLeft_m1667068522
ZAa:__ZN6prcoreL17RemapGenericFloatI17TexFormatRGBAHalf18TexFormatARGBFloatEEvPKNS_9InnerInfoE
unc:__Z14GetBuiltinSkini
Eqe:_MethodDictionary_get_Item_m1201458851
N7:___cxx_global_var_init_18
ll:_JS_SystemInfo_GetBrowserVersionString
Kjb:__ZN2UI13RectTransform23VirtualRedirectTransferER14SafeBinaryRead
kka:__ZNSt3__26vectorIN9ShaderLab20SerializedSubProgramENS_9allocatorIS2_EEE6assignIPS2_EENS_9enable_ifIXaasr21__is_forward_iteratorIT_EE5valuesr16is_constructibleIS2_NS_15iterator_traitsIS9_E9referenceEEE5valueEvE4typeES9_S9_
fuc:__Z18Transfer_BlittableI8JSONReadLb0E8BitFieldEvRK29SerializationCommandArgumentsR31RuntimeSerializationCommandInfo
yqf:_SecurityPermission_set_Flags_m1503445204
Chg:_HashSet_1_CopyTo_m2849056227_gshared
azb:__ZL17Transfer_GUIStyleI18StreamedBinaryReadILb1EELb0EEvRK29SerializationCommandArgumentsR31RuntimeSerializationCommandInfo
t7e:_ModulusRing_Multiply_m343333088
$ha:__ZN9ShaderLab14SerializedPass8TransferI14SafeBinaryReadEEvRT_
moc:__Z71Register_UnityEngine_GUILayoutUtility_INTERNAL_CALL_Internal_MoveWindowv
bP:__ZN12AudioManager16SetListenerPauseEb
Xfb:__ZNSt3__26vectorIN30RuntimeInitializeOnLoadManager9ClassInfoE13stl_allocatorIS2_L18MemLabelIdentifier13ELi16EEE6assignINS_11__wrap_iterIPS2_EEEENS_9enable_ifIXaasr21__is_forward_iteratorIT_EE5valuesr16is_constructibleIS2_NS_15iterator_traitsISC_E9referenceEEE5valueEvE4typeESC_SC_
bOf:_SetPropertyUtility_SetStruct_TisSingle_t1397266774_m2805350785_gshared
doj:__ZN6il2cpp2vm9Exception25RaiseOutOfMemoryExceptionERKNS_5utils10StringViewIDsEE
da:invoke_viiiiiiiiiii
YIj:___syscall_ret
rwi:_DeriveBytes_set_Salt_m1400945044
u4c:_PointerEventData_set_worldNormal_m1888481930
gCi:_AnchorInfo__ctor_m46784903
bee:_CipherSuiteCollection_get_Item_m4188309062
Lje:_SslHandshakeHash_HashFinal_m2573455475
Aoe:_SynchronizationAttribute_ReleaseLock_m1030353464
sVc:__Z56Register_UnityEngine_Analytics_CustomEventData_AddDoublev
F7a:__ZN11ChannelInfo8TransferI19StreamedBinaryWriteILb0EEEEvRT_
gzj:__ZN4utf88internal13validate_nextIPKcEENS0_9utf_errorERT_S5_Rj
fki:__ZL53ToggleGroup_t123837990_CustomAttributesCacheGeneratorP21CustomAttributesCache
kOb:__ZN14qsort_internal13Partition3WayIP17RODataReplacementi19ROSorterReplacementEENSt3__24pairIT_S6_EES6_S6_T0_T1_
NVe:_InputField_CreateCursorVerts_m3585916868
Ggc:__Z34Register_UnityEngine_Gradient_Initv
One:_Context_ToString_m1073616138
D6a:__ZN13ScreenManager23SetIsOrientationEnabledE18EnabledOrientationb
YSe:_InputField_EnforceTextHOverflow_m3400115777
Ecb:__ZN9InputAxis8TransferI19StreamedBinaryWriteILb0EEEEvRT_
$Gd:__Z33il2cpp_codegen_check_sub_overflowxx
SOj:dynCall_viififiii
LTe:_InputField_get_caretColor_m2973283772
Rti:_Resources_ConvertObjects_TisRuntimeObject_m1486780300_gshared
cFf:_Double_System_IConvertible_ToInt16_m3591921965_AdjustorThunk
Wjh:_Comparison_1_Invoke_m2925518770_gshared
KQa:__ZN10GameObject23VirtualRedirectTransferER18StreamedBinaryReadILb0EE
jIi:_SymmetricTransform__ctor_m2693628991
lVd:_ObjectDisposedException__ctor_m1034312941
tg:_glFrontFace
Lxg:_RectOffset__ctor_m3236153262
lZe:_MaskUtilities_IsDescendantOrSelf_m2247511982
gTb:__ZNSt3__26vectorI16ShadowCasterData13stl_allocatorIS1_L18MemLabelIdentifier2ELi16EEE21__push_back_slow_pathIKS1_EEvRT_
WNc:__Z51Register_UnityEngine_TextGenerator_GetLinesInternalv
NQe:_Enumerator_get_Current_m2250080680_AdjustorThunk
WIi:_AesManaged_set_Key_m767972181
bGd:_Int16_System_IConvertible_ToBoolean_m1656400658_AdjustorThunk
Ztd:_Byte_System_IConvertible_ToInt64_m285584218
Dta:__ZN13GfxDeviceGLES22SetScissorRectPlatformERK5RectTIiE
oAa:__ZN6prcoreL17RemapGenericFloatI17TexFormatRGBFloat18TexFormatRGBAFloatEEvPKNS_9InnerInfoE
YRf:_Array_InternalArray__ICollection_Add_TisDictionaryEntry_t3123975638_m665385049_gshared
iSd:_MissingMemberException__ctor_m2707802176
j_c:__ZN20UnityConnectSettings10InitializeEv
nVi:_Canvas_get_renderMode_m841659411
N4a:__ZN15SerializeTraitsI13dynamic_arrayI28EnlightenRendererInformationLj8EEE19ResizeSTLStyleArrayERS2_i
mgd:_SerializationInfo_GetValue_m42271953
wG:__ZN9AudioClip11CreateSoundEv
zhj:__ZN14dense_hash_mapI10KeyWrapperINSt3__24pairIPK9FieldInfoP11Il2CppClassEEEj17ReflectionMapHashIS8_ENS9_14EqualsComparerINS1_8equal_toIS8_EEEENS1_9allocatorINS2_IKS9_jEEEEEC2EjRKSB_RKSF_
Xcj:__ZNK15dense_hashtableINSt3__24pairIK10KeyWrapperINS1_IPK10MethodInfoP11Il2CppClassEEEjEES9_17ReflectionMapHashIS8_EN14dense_hash_mapIS9_jSD_NS9_14EqualsComparerINS0_8equal_toIS8_EEEENS0_9allocatorISB_EEE9SelectKeyESI_SK_E13find_positionERSA_
Ksa:__ZN13GfxDeviceGLES20CreateComputeProgramEPKhj
zZc:__ZN11UnityEngine7Connect16PersistentValues13RestoreValuesER8JSONRead
fLf:_Guid_BaseToString_m3600006650
rOa:__ZN20ArchiveStorageReader31TryToReadDirectoryFromBlockDataEyPKvj
jqj:__ZN6il2cpp2vmL11GetIdentityEP14Il2CppIUnknown
ACj:_GC_push_gc_structures
mhe:_TlsServerCertificate_ProcessAsTls1_m819212276
Bri:_Dictionary_2_Do_ICollectionCopyTo_TisRuntimeObject_m3942192587_gshared
A7i:__ZN6il2cpp6icalls8mscorlib6SystemL8IsPublicEPK9EventInfo
hae:_PrimalityTests_RabinMillerTest_m2544317101
s9d:_Kernel_DwordDivMod_m1540317819
BDh:_Enumerator_System_Collections_IEnumerator_get_Current_m1399273671_gshared
P1d:_TypeBuilder_GetPropertyImpl_m3104345782
Z7a:__ZNSt3__213__stable_sortIRNS_4lessI4PPtrI11SpriteAtlasEEENS_11__wrap_iterIPS4_EEEEvT0_SA_T_NS_15iterator_traitsISA_E15difference_typeEPNSD_10value_typeEi
pKd:_Int64_ToString_m2085073918_AdjustorThunk
ZPe:_Transform_1_Invoke_m4084479750_gshared
v2d:_FieldInfo_GetFieldOffset_m1356898082
hRf:_Array_InternalArray__IndexOf_TisTypeTag_t3541821701_m2988972362_gshared
d9:__ZN8keywords6CreateEPKc
VXi:__ZL7log2_32j
S:Math_imul
Hhe:_TlsServerKeyExchange_Update_m453798279
Q5a:__ZN11PlayerPrefs6GetIntERKN4core12basic_stringIcNS0_20StringStorageDefaultIcEEEEi
iee:_CipherSuiteCollection_System_Collections_IList_IndexOf_m1361500977
Z3e:_Text_set_fontStyle_m648756124
ENc:__Z45TextGenerator_CUSTOM_INTERNAL_get_rectExtentsP12Il2CppObjectP5RectTIfE
Nxf:_DateTime__ctor_m2135476686_AdjustorThunk
PP:__ZN11AudioSource12SetAudioClipEP9AudioClip
zyg:_RectTransform_GetLocalCorners_m823861473
lyd:_SynchronizedArrayListWrapper_GetEnumerator_m1579424644
A_:__ZN18ScriptingArguments9AddObjectE18ScriptingObjectPtr
SRc:__Z39CanvasGroup_Get_Custom_PropInteractableP12Il2CppObject
KR:__ZN11UnityEngine15CloudWebService16SessionContainerD2Ev
JZc:__ZL38InitializeUnityConnectScriptingClassesv
tXb:__ZN13ProbeRenderer8ConvolveEbijjb
PHi:_GUIUtility_set_systemCopyBuffer_m608712289
Ewa:__ZN17GenericDynamicVBOC2ER9GfxDevice13GfxBufferModejj
vmc:__ZZN10GUIManager14InitGUIManagerEvEN41PreUpdateIMGUISendQueuedEventsRegistrator7ForwardEv
qff:_ServicePointManager_get_SecurityProtocol_m966397919
iDa:__ZN13dynamic_arrayIN18GlslGpuProgramGLES9GLProgramELj4EE6insertEPS1_jRKS1_
OHf:_CCGregorianCalendar_day_from_fixed_m1674702403
bT:__ZN11UnityEngine15CloudWebService17SessionEventQueue10PurgeItemsEj
ZXb:__ZN6Camera16StandaloneRenderENS_10RenderFlagEP6ShaderRKN4core12basic_stringIcNS3_20StringStorageDefaultIcEEEE
Thf:_X509Chain_PrepareForNextCertificate_m3691934993
uyb:__Z18Transfer_BlittableI18StreamedBinaryReadILb1EELb1EtEvRK29SerializationCommandArgumentsR31RuntimeSerializationCommandInfo
zbi:__ZL58EventType_t3528516131_CustomAttributesCacheGenerator_keyUpP21CustomAttributesCache
wTh:__ZL57X509Certificate_t713131622_CustomAttributesCacheGeneratorP21CustomAttributesCache
Rab:__ZN12BoneWeights48TransferI19StreamedBinaryWriteILb0EEEEvRT_
Pqa:__ZN9GfxDevice20DeallocRenderSurfaceEP17RenderSurfaceBase
gna:__ZN20GpuProgramParameters36UpdatePrepareValuesMaximumBufferSizeEv
k5e:_SimpleCollator_GetContraction_m2205549079
Rae:_ARC4Managed_GenerateKey_m1607343060
mTf:_Array_InternalArray__ICollection_CopyTo_TisDecimal_t2948259380_m2749946216_gshared
iSa:__ZN12BaseRenderer23RendererBecameInvisibleEv
rKc:__ZN20TextRenderingPrivate8FontImpl13CharacterInfo8TransferI18StreamedBinaryReadILb0EEEEvRT_
Jvb:__Z29Transfer_Blittable_ArrayFieldI24GenerateTypeTreeTransferfEvRT_R9ArrayInfoRK23StaticTransferFieldInfo
Hba:__ZNSt3__26__treeINS_12__value_typeIN4core12basic_stringIcNS2_20StringStorageDefaultIcEEEES6_EENS_19__map_value_compareIS6_S7_NS_4lessIS6_EELb1EEE13stl_allocatorIS7_L18MemLabelIdentifier13ELi16EEE7destroyEPNS_11__tree_nodeIS7_PvEE
sqg:_UnityEvent_FindMethod_Impl_m2312362624
nZb:__ZN19CustomRenderTexture9AddParentE4PPtrIS_E
c7:__ZN8Gradient8TransferI14SafeBinaryReadEEvRT_
$lg:_Vector3_GetHashCode_m2879461828
iBi:_Parser_ParseSpecial_m1961501104
utf:_Single_System_IConvertible_ToUInt64_m3299129161_AdjustorThunk
m0a:__ZNSt3__26vectorIN4core12basic_stringIcNS1_20StringStorageDefaultIcEEEE13stl_allocatorIS5_L18MemLabelIdentifier1ELi16EEE7reserveEj
Xef:_IPv6Address_AsIPv4Int_m844941024
JVd:_Random__ctor_m3209279193
cie:_RecordProtocol__cctor_m1280873827
k8d:_Marshal__cctor_m4007734770
uBj:_GC_new_free_list_inner
cbf:_SymmetricTransform_Random_m2004892672
$Aj:_GC_err_printf
vce:_RSAManaged_DecryptValue_m1804388365
Dwe:_InternalEnumerator_1_System_Collections_IEnumerator_get_Current_m2980550840_AdjustorThunk
Vuc:__ZN8JSONRead8TransferI10RectOffsetEEvRT_PKc17TransferMetaFlagsb
LS:__ZN9JSONWrite8TransferIN11UnityEngine15CloudWebService14DataErrorEvent15FileErrorDetailEEEvRT_PKc17TransferMetaFlags
aJd:_Int32_Parse_m2087562008
cQf:_Array_compare_TisVector4_t3319028937_m1974066282_gshared
j5d:_MonoProperty_GetAccessors_m412928203
DSi:_TweenRunner_1_Start_m3757154622_gshared
CJ:__ZN12SoundManager20RegisterModifiedClipEP10SampleClip
Yke:_RemotingServices_GetClientChannelSinkChain_m1499550585
hWd:_Assembly_FillName_m1660001542
dRh:__ZL56_EventBuilder_t2558055199_CustomAttributesCacheGeneratorP21CustomAttributesCache
Jof:_SHA384Managed_processBlock_m1272529332
gM:__ZN11AudioSource4PlayEd
Uvd:_Char_ToString_m278452217_AdjustorThunk
b1i:__ZN15dense_hashtableI10KeyWrapperIPK17Il2CppGenericInstES4_N6il2cpp8metadata21Il2CppGenericInstHashEN14dense_hash_setIS4_S7_NS4_14EqualsComparerINS6_24Il2CppGenericInstCompareEEENSt3__29allocatorIS4_EEE8IdentityESB_SE_E13set_empty_keyERKS4_
iFg:__Z63RuntimeInvoker_Char_t3634460470_Int16_t2552820387_RuntimeObjectPFvvEPK10MethodInfoPvPS4_
ODd:_Convert_ToDouble_m2924063577
Nkg:_Enumerator_System_Collections_IEnumerator_get_Current_m3594024719_gshared
LXd:_CustomAttributeNamedArgument_ToString_m1488801416_AdjustorThunk
WRe:_ValueCollection_System_Collections_Generic_ICollectionU3CTValueU3E_Remove_m3673494156_gshared
O2a:__ZN7Cubemap23VirtualRedirectTransferER18StreamedBinaryReadILb0EE
Whc:__ZNSt3__27__sort4IRNS_6__lessI11KeyframeTplIfES3_EEPS3_EEjT0_S7_S7_S7_T_
UGc:_Read_CVT
m5e:_SimpleCollator_GetTailContraction_m2107754083
xub:__ZL26Transfer_SimpleNativeClassI24GenerateTypeTreeTransfer17AnimationCurveTplIfELb0EEvRK29SerializationCommandArgumentsR31RuntimeSerializationCommandInfo
zDd:_Convert_ToDecimal_m1783778724
Vvc:__ZN8JSONRead21TransferSTLStyleArrayI13dynamic_arrayI9BoundsIntLj4EEEEvRT_17TransferMetaFlags
V4a:__ZN24GenerateTypeTreeTransfer8TransferI13dynamic_arrayI33EnlightenTerrainChunksInformationLj4EEEEvRT_PKc17TransferMetaFlags
Dyf:_DateTimeFormatInfo__ctor_m3106345035
_ee:_TlsServerKeyExchange_verifySignature_m3412856769
Ucg:_EqualityComparer_1_System_Collections_IEqualityComparer_GetHashCode_m4137147946_gshared
cda:__ZN16LightmapSettings20DidChangeActiveSceneEP10UnitySceneS1_
sni:__ZL59g_AssemblyU2DCSharp_Assembly_CustomAttributesCacheGeneratorP21CustomAttributesCache
O7i:__ZN6il2cpp5utils9PathUtils8BasenameIcEENSt3__212basic_stringIT_NS3_11char_traitsIS5_EENS3_9allocatorIS5_EEEERKSA_
Kse:_RemotingProxy__cctor_m4096951805
_nc:__Z35Register_UnityEngine_Event_get_typev
ooj:__ZN6il2cpp2vm9Exception23GetInvalidCastExceptionERKNS_5utils10StringViewIDsEE
kz:__ZN8Animator28BuildControllerPlayableCacheEv
hZ:__Z63ThreadAndSerializationSafeCheckGetMonoBehaviourBeingTransferredv
CEf:_StackTrace__ctor_m206492268
fvh:_List_1_set_Item_m4224739467_gshared
G9c:_ColorTween_set_startColor_m2562993758_AdjustorThunk
BYd:_ConstructorBuilder_get_Name_m2426555260
Chc:__Z37Register_UnityEngine_Input_GetAxisRawv
jBi:_Parser_ParseCharacterClass_m4285351396
LEd:_Convert_ToSByte_m2653418303
ZAd:_SyncHashtable__ctor_m2449935938
UL:__ZN11AudioSource5ResetEv
Vnf:_RSAPKCS1SignatureFormatter_SetKey_m2935054088
KNb:__ZN12ImageFilters27SetSurfaceUseResolvedBufferEP13RenderTextureb
m8a:__ZN14Texture2DArray23VirtualRedirectTransferER18StreamedBinaryReadILb0EE
YYf:_UTF7Encoding_GetByteCount_m209415911
Bjb:__ZN2UI13RectTransform13AwakeFromLoadE17AwakeFromLoadMode
RDi:_RegularExpression_Compile_m2385682508
YHf:_CompareInfo__cctor_m1837489679
GSb:__ZN14qsort_internal30FindAndMovePivotToLastPositionIP20ShadowCasterSortDatai26ShadowCasterSortDataSorterEEvT_S4_T0_T1_
Vnb:__Z18Transfer_BlittableI14SafeBinaryReadLb1EiEvRK29SerializationCommandArgumentsR31RuntimeSerializationCommandInfo
Zhf:_X509ExtensionEnumerator_get_Current_m256207749
g8:__GLOBAL__sub_I_modules_profiler_public_0_cpp
bib:__ZN17PersistentManager13GetAllFileIDsERKN4core12basic_stringIcNS0_20StringStorageDefaultIcEEEER13dynamic_arrayIxLj8EE
rrd:_Array_Sort_m182264525
dXe:_LayoutGroup_set_padding_m282562135
dXd:_Default_IsArrayAssignable_m953489228
x3f:_UInt16_ToString_m355311020_AdjustorThunk
tld:_RC2__ctor_m1146135664
Hk:_glGetStringi
Iwf:_DecoderExceptionFallback_CreateFallbackBuffer_m1133375601
fsj:__ZNK15dense_hashtableI10KeyWrapperIP18Il2CppGenericClassES3_N6il2cpp8metadata22Il2CppGenericClassHashEN14dense_hash_setIS3_S6_NS3_14EqualsComparerINS5_25Il2CppGenericClassCompareEEENSt3__29allocatorIS3_EEE8IdentityESA_SD_E10test_emptyERK30dense_hashtable_const_iteratorIS3_S3_S6_SF_SA_SD_E
vLe:_Enumerator_get_CurrentKey_m889650866_gshared
CA:__ZN8Animator9WriteStepEy
OKe:_Enumerator_VerifyCurrent_m829026141_gshared
b9b:__ZN16PropertyAccessorC2Ev
Z5a:__ZNSt3__23mapIN4core12basic_stringIcNS1_20StringStorageDefaultIcEEEE9PrefValueNS_4lessIS5_EENS_9allocatorINS_4pairIKS5_S6_EEEEEixERSB_
x8b:__ZN15DirectorManager22ConstructPlayableGraphEv
FGh:_Collection_1_ConvertItem_m1743542180_gshared
LNc:__Z38Register_UnityEngine_Font_HasCharacterv
DWb:__Z35IntersectSpherePlaneBoundsOptimizedRKN4math7_float4EPS1_i
anf:_RNGCryptoServiceProvider__cctor_m3587754670
Vuj:__ZN6il2cpp2os5posix15PosixWaitObject13InterruptWaitEv
Bca:__Z22CleanupLODGroupManagerPv
Wnc:__Z21Event_CUSTOM_PopEventP12Il2CppObject
rl:_glUniform3fv
oHj:__ZNK6il2cpp8metadata24Il2CppGenericInstCompareclERK10KeyWrapperIPK17Il2CppGenericInstES8_
$eb:__ZNSt3__218__insertion_sort_3IRN15ResourceManager10Dependency6SorterEPS2_EEvT0_S6_T_
sif:_X509ChainElement_Set_m655180762
uYi:_CustomEventData_AddInt32_m548429697
$tg:_MonoBehaviour_StopCoroutine_m615723318
rRb:__ZNK16LightmapSettings31GetRealtimeLightmapDecodeValuesEv
WK:__ZN5audio5mixer12SetSuspendedERNS0_16AudioMixerMemoryEb
Vib:__ZN17PersistentManager21UnloadNonDirtyStreamsEv
lMg:__Z96RuntimeInvoker_Int32_t2950945753_RuntimeObject_Int32_t2950945753_RuntimeObject_Int32_t2950945753PFvvEPK10MethodInfoPvPS4_
JJi:_AnalyticsEventTracker_OnEnable_m1121905268
rEi:_Uri_get_Parser_m3737125102
wVi:_Canvas_get_overrideSorting_m2740418462
Bog:_Debug_LogFormat_m309087137
u$f:_Scheduler__ctor_m3313141270
n9a:__ZN12ImageFilters4BlitER17ShaderPassContextP7TextureP13RenderTextureiPK18SharedMaterialDataPKcP6ShaderiNS_9BlitFlagsE11CubemapFaceRK8Vector2fSH_
gvf:_String_LastIndexOf_m3451222878
fzi:_Mark_get_Index_m3048692661
yki:__ZL69CanvasScaler_t2767979955_CustomAttributesCacheGenerator_m_ScaleFactorP21CustomAttributesCache
i7f:_Dictionary_2_ToTValue_m692436965_gshared
lT:__ZN11UnityEngine15CloudWebService10RestClientINS0_23WebRequestRestHeaderMapEED2Ev
Nl:_emscripten_glDepthMask
Pke:_RemotingServices_CreateClientProxy_m3886727610
Txa:__ZN4crnd25static_huffman_data_model22prepare_decoder_tablesEv
hie:_RecordProtocol_GetMessage_m2086135164
Vmc:__Z23GUIStatePopDisplayIndexv
hda:__Znaj
wVj:_emscripten_glEnableClientState__wrapper
R9:__ZN17MessageIdentifierC2EPKcNS_7OptionsEPKN5Unity4TypeES1_
Ttg:_Mesh_SetTriangles_m1523451247
jtf:_Single_System_IConvertible_ToSByte_m1208276900
koi:_Array_InternalArray__set_Item_TisVector4_t3319028937_m757305038_gshared
EKg:__Z105RuntimeInvoker_Void_t1185182177_RuntimeObject_RuntimeObject_RuntimeObject_RuntimeObject_Int32_t2950945753PFvvEPK10MethodInfoPvPS4_
FRe:_ValueCollection_System_Collections_Generic_ICollectionU3CTValueU3E_Add_m3298059628_gshared
FFg:__Z64RuntimeInvoker_RuntimeObject_Int16_t2552820387_Int16_t2552820387PFvvEPK10MethodInfoPvPS4_
BQ:__Z55Register_UnityEngine_AudioSource_get_spatializeInternalv
hLa:__ZN14SafeBinaryRead8TransferI14ConstantStringEEvRT_PKc17TransferMetaFlags
XLb:__ZNK6Camera16GetStereoEnabledEv
mPg:__Z72RuntimeInvoker_Int32_t2950945753_TimeSpan_t881159249_TimeSpan_t881159249PFvvEPK10MethodInfoPvPS4_
Iie:_SendRecordAsyncResult_SetComplete_m153213906
Mna:__ZL24FindBelongingStructParamRPKcRNSt3__26vectorIN9ShaderLab20SerializedSubProgram14ConstantBufferENS2_9allocatorIS6_EEEE
A5b:__ZN12LightManager15InitializeClassEv
H$f:_WaitHandle__cctor_m4242752477
l$a:__ZN9ShaderLab11shaderprops16GetComputeBufferEPK19ShaderPropertySheetS3_NS_16FastPropertyNameE
rzj:__ZN6il2cpp6icalls8mscorlib6System10Reflection10MethodBase31GetMethodFromHandleInternalTypeEii
Q_:__ZN18ScriptingArgumentsC2Ev
vmg:_Vector3_op_Equality_m4231250055
$Sj:_emscripten_glBlendFuncSeparate__wrapper
lMd:_FileSystemInfo__ctor_m3769019897
fti:_Array_InternalArray__get_Item_TisContentType_t1787303396_m421427711_gshared
Wua:__Z17HasSampledTexture14GraphicsFormat13formatSupport
kNb:__ZNK25CameraStackRenderingState27GetStereoImageEffectTextureEb
Nkd:_HMACSHA384__ctor_m1677515580
Ymf:_RIPEMD160Managed_J_m1336489154
yp:__ZN8Vector3f8TransferI14SafeBinaryReadEEvRT_
k5i:__ZN6il2cpp6icalls6System6System3Net7Sockets6Socket7ReceiveEiP11Il2CppArrayiiNS4_11SocketFlagsEPi
Bo:FUNCTION_TABLE_ii
_Ra:__ZN10TagManager8TransferI18StreamedBinaryReadILb0EEEEvRT_
vrc:__Z18Transfer_BlittableI9JSONWriteLb0E8BitFieldEvRK29SerializationCommandArgumentsR31RuntimeSerializationCommandInfo
kOd:_MemoryStream_set_Capacity_m1773624579
Zjj:__ZNK15dense_hashtableINSt3__24pairIK10KeyWrapperINS1_IP11Il2CppClassjEEES4_EES6_N6il2cpp8metadata14ArrayClassHashEN14dense_hash_mapIS6_S4_SB_NS6_14EqualsComparerINSA_17ArrayClassCompareEEENS0_9allocatorIS8_EEE9SelectKeyESF_SH_E10test_emptyEj
Wia:__ZNSt3__26vectorIN9ShaderLab20SerializedSubProgram15StructParameterENS_9allocatorIS3_EEE8__appendEj
vb:invoke_diiii
GRj:b47
rRg:__Z95RuntimeInvoker_Void_t1185182177_RuntimeObject_RuntimeObject_SByte_t1669577662_SByte_t1669577662PFvvEPK10MethodInfoPvPS4_
GMa:__Z24CreateDirectoryRecursiveRKN4core12basic_stringIcNS_20StringStorageDefaultIcEEEE
sRj:b41
qla:__ZN9ShaderLab20SerializedSubProgram8TransferI18StreamedBinaryReadILb0EEEEvRT_
rRj:b40
c6h:__ZL54ContextMenu_t1295656858_CustomAttributesCacheGeneratorP21CustomAttributesCache
r9:__ZN13RuntimeStaticI21ScalableBufferManagerLb0EE13StaticDestroyEPv
rOc:__ZN2UI13CanvasManager9AddCanvasEPNS_6CanvasE
e9a:__ZN9Texture3D8TransferI19StreamedBinaryWriteILb0EEEEvRT_
PNb:__ZNK6Camera22CalculateRenderingPathEv
vEd:_Convert_ToInt64_m3758262873
lC:__ZN11UnityEngine9Animation37SetGenericRootTransformPropertyValuesERKNS0_30AnimatorGenericBindingConstantERKN7mecanim10ValueArrayER9Transformbb
eEa:__Z13ConvertMipmap14GraphicsFormatPKvS_Pviiii
dtb:__ZL12InvokeMethodI17RemapPPtrTransferEvRK29SerializationCommandArgumentsR31RuntimeSerializationCommandInfo
$df:_RemoteCertificateValidationCallback_Invoke_m3086073466
gwf:_StringComparer_Compare_m991165676
BEc:_tt_sbit_decoder_load_image
pSi:_U3CStartU3Ec__Iterator0_Dispose_m261027331_gshared
dFa:__ZN4core8hash_mapIPK17RenderSurfaceBaseP13RenderTexture19PointerHashFunctionIS3_ENSt3__28equal_toIS3_EEE6insertERKNS8_4pairIKS3_S5_EE
Pmc:__ZNSt3__24listIN10GUIManager12SortedScriptE11memory_poolIS2_EE6__sortI13OldSortScriptEENS_15__list_iteratorIS2_PvEESA_SA_jRT_
Bvh:_List_1_AddEnumerable_m3500350831_gshared
gce:_PrivateKeyInfo_get_PrivateKey_m3647771102
QXc:__ZN18UnityConnectClient12CloseServiceEv
Wmj:__ZN6il2cpp6icalls8mscorlib6System9ThreadingL11ThreadStartEPv
$ea:__ZN15DirectorManager12OnSampleTimeEv
K0d:_TypeBuilder_check_not_created_m3652863637
Q5c:_StandaloneInputModule_UpdateModule_m450861257
qTi:_Font_add_textureRebuilt_m2164317336
Cih:_ReadOnlyCollection_1_System_Collections_IList_Insert_m2928873627_gshared
Beg:_EqualityComparer_1__cctor_m314889309_gshared
n6:__ZN12CachedReader10Align4ReadEv
dxi:_X501__cctor_m2428304915
vVi:_Canvas_get_renderOrder_m1489855841
cGg:__Z50RuntimeInvoker_Void_t1185182177_Single_t1397266774PFvvEPK10MethodInfoPvPS4_
KFi:_Event_ToString_m1688862299
iKa:__ZNK9Behaviour22GetTypeVirtualInternalEv
NHf:_CCGregorianCalendar_month_from_fixed_m4268992710
VPf:_Array_compare_TisUICharInfo_t75501106_m1310495481_gshared
nXb:__Z21GetScriptingArraySize17ScriptingArrayPtr
PJc:__ZN20TextRenderingPrivate8FontImpl8TransferI14SafeBinaryReadEEvRT_
Rgh:_ReadOnlyCollection_1_System_Collections_IList_Clear_m4022532825_gshared
yWf:_Encoding_get_ASCII_m3595602635
Lra:__ZN9GfxDevice17ImmediateTexCoordEifff
zZd:_DerivedType_GetCustomAttributes_m3536779709
oWh:__ZL93Interlocked_t2273387594_CustomAttributesCacheGenerator_Interlocked_CompareExchange_m388540288P21CustomAttributesCache
M1d:_MethodBase_get_IsAbstract_m428833029
Gtb:__Z35Transfer_Blittable_FixedBufferFieldI24GenerateTypeTreeTransferhEvRK29SerializationCommandArgumentsR31RuntimeSerializationCommandInfo
UQj:_emscripten_glUniform4f__wrapper
fqh:_Enumerator_MoveNext_m2595190390_AdjustorThunk
sRf:_Array_InternalArray__IndexOf_TisColor32_t2600501292_m3783551884_gshared
uY:__ZNK6Camera16GetProjectionFarEv
Tq:__Z24InverseTransformRotationRK23TransformAccessReadOnlyRKN4math7_float4E
dyi:_X509Chain_Build_m2469702749
$L:__ZN11AudioSource6UpdateEv
E_c:__Z31GetPerformanceReportingSettingsv
o1a:__ZNK14PlayableOutput11DerivesFromE17ScriptingClassPtr
B2a:__ZN7Texture34CreateFileTextureUploadInstructionE18TextureUploadFlagsj
C8e:_BitConverterLE_ULongFromBytes_m1677445591
I0d:_TypeBuilder_DefineConstructor_m2989882735
lPa:__ZN25SingleBlockMemoryFileDataC2E10MemLabelIdPvjb
sKc:__ZN18StreamedBinaryReadILb0EE21TransferSTLStyleArrayI10vector_mapINSt3__24pairIttEEfN20TextRenderingPrivate8FontImpl14KerningCompareENS3_9allocatorINS4_IS5_fEEEEEEEvRT_17TransferMetaFlags
aWb:__ZN27IntermediateRendererManager24GetIntermediateRenderersEi
I1:__Z23AsyncReadForceCloseFileRKN4core12basic_stringIcNS_20StringStorageDefaultIcEEEE
_t:__ZN17AnimationPlayable34CollectAnimatorControllerPlayablesER13dynamic_arrayIP26AnimatorControllerPlayableLj4EE
VO:__ZN16BaseVideoTexture19UpdateVideoTexturesEv
i4d:_MonoField_GetValue_m3124733531
kWa:__Z28BuildSingleStreamChannelInfo17ShaderChannelMaskRK20VertexChannelsLayoutS_S2_P11ChannelInfo
K6a:__ZN6Sprite23VirtualRedirectTransferER19StreamedBinaryWriteILb0EE
B2c:_EventTrigger_Execute_m2453060771
Kjh:_Comparison_1_Invoke_m517083441_gshared
EMg:__Z253RuntimeInvoker_Int32_t2950945753_RuntimeObject_Int32_t2950945753_Int32_t2950945753_RuntimeObject_Int32_t2950945753_UInt32U26_t3735378166_UInt32U26_t3735378166_RuntimeObject_DecoderFallbackBufferU26_t3866396827_ByteU5BU5DU26_t4057885439_SByte_t1669577662PFvvEPK10MethodInfoPvPS4_
Zbj:__ZNK15dense_hashtableINSt3__24pairIK10KeyWrapperINS1_IPK9FieldInfoP11Il2CppClassEEEjEES9_17ReflectionMapHashIS8_EN14dense_hash_mapIS9_jSD_NS9_14EqualsComparerINS0_8equal_toIS8_EEEENS0_9allocatorISB_EEE9SelectKeyESI_SK_E5beginEv
Zna:__ZNK9ShaderLab7Program19HasMatchingVariantsERK13dynamic_arrayI16ShaderKeywordSetLj4EE
pB:__ZN15SerializeTraitsIN4math4trsXEE8TransferI8BlobSizeEEvRS1_RT_
Fva:__ZN14DataBufferGLES11CopySubDataEPKS_jjj
ie:_emscripten_glVertexPointer
tQc:__ZN2UI13PrepareOutputERNS_7BatchesEjjNS_30AdditionalCanvasShaderChannelsE
$7i:__ZN6il2cpp2vm7Runtime47RaiseExecutionEngineExceptionIfMethodIsNotFoundEPK10MethodInfo
Nzi:_PatternCompiler_GetMachineFactory_m3758869886
jTb:__Z17GetFrustumPortionPK8Vector3fffPS_
Gpj:__ZN15dense_hashtableINSt3__24pairIK10KeyWrapperIP14Il2CppIUnknownEjEES5_N6il2cpp5utils11PointerHashIS3_EEN14dense_hash_mapIS5_jSB_NS5_14EqualsComparerINS0_8equal_toIS4_EEEENS0_9allocatorIS7_EEE9SelectKeyESG_SI_E14squash_deletedEv
S2c:_EventTrigger_OnCancel_m585099428
WGi:_GUILayoutEntry_ApplyOptions_m1741659338
qhd:_RuntimeTypeHandle_Equals_m2857439487_AdjustorThunk
Cpa:__ZNK9GfxDevice27GetPlatformAdjustedViewportEv
Ydh:_ReadOnlyCollection_1_System_Collections_Generic_IListU3CTU3E_set_Item_m88350439_gshared
GKi:_StandardEventPayload_IsRequiredDataValid_m361738930
Ukh:_Func_3_Invoke_m1194147890_gshared
wCi:_Reference_Compile_m4195878675
WUi:_InputBuffer_remove_onCommandSent_m3139499669
kgh:_ReadOnlyCollection_1_System_Collections_ICollection_CopyTo_m2672196987_gshared
f9b:__ZN16StreamedResource8TransferI24GenerateTypeTreeTransferEEvRT_
byg:_RectTransform_get_anchorMin_m2928307238
dwd:_ArrayList__ctor_m3828927650
Nta:__ZThn9568_N13GfxDeviceGLES26EnableScissorRectsPlatformEv
OGa:__ZN10Matrix3x3f15InvertTransposeEv
gHi:_GUILayoutGroup_SetHorizontal_m996475327
ZGi:_GUILayoutEntry__cctor_m663865902
rLb:__Z11IsBatchmodev
Hjg:_Enumerator_System_Collections_IEnumerator_get_Current_m713684915_gshared
Frb:__Z29Transfer_Blittable_ArrayFieldI14SafeBinaryRead8Vector3fEvRT_R9ArrayInfoRK23StaticTransferFieldInfo
EKc:__ZN20TextRenderingPrivate8FontImpl18ResetCachedTextureEv
D6i:__ZN6il2cpp6icalls8mscorlib6SystemL16GetFieldFromTypeINS_5utils10functional6FilterINSt3__212basic_stringIcNS7_11char_traitsIcEENS7_9allocatorIcEEEENS4_13VmStringUtils21CaseSensitiveComparerEEEEEP21Il2CppReflectionFieldP11Il2CppClassSK_iRKT_
Skc:__Z27Screen_Get_Custom_PropWidthv
cCj:_GC_print_finalization_stats
NHi:_GUITargetAttribute_GetGUITargetAttrValue_m2954410352
bfc:__Z53Register_UnityEngine_Behaviour_get_isActiveAndEnabledv
zrd:_SimpleEnumerator_get_Current_m72361444
nq:__ZNSt3__26vectorIN4core12basic_stringIcNS1_20StringStorageDefaultIcEEEENS_9allocatorIS5_EEE8__appendEj
iP:__ZN13ProduceHelperI10SampleClipLb0EE7ProduceE10MemLabelId18ObjectCreationMode
oeb:__ZN26PlayerSettingsSplashScreen8TransferI17RemapPPtrTransferEEvRT_
m8e:_ASN1_set_Value_m2803403806
K6i:__ZN6il2cpp6icalls8mscorlib6SystemL17CollectTypeFieldsINS_5utils10functional10TrueFilterEEEvP11Il2CppClassPKS7_iRNSt3__26vectorIP9FieldInfoNSB_9allocatorISE_EEEERKT_
N1b:__Z13GetTagManagerv
cpd:_Hashtable__ctor_m1815022027
tZf:_UTF8Encoding_GetChars_m1433288684
MXi:__ZL10roundUp128PyS_
uR:__ZN11UnityEngine15CloudWebService17CloudJobSchedulerD0Ev
Mve:_ArrayReadOnlyList_1_Contains_m381552673_gshared
b1f:_TimeZone_ToUniversalTime_m2789507578
_Fg:__Z96RuntimeInvoker_Boolean_t97287965_RuntimeObject_RuntimeObject_Int32_t2950945753_Int32_t2950945753PFvvEPK10MethodInfoPvPS4_
wQf:_Array_IndexOf_TisUICharInfo_t75501106_m3198896198_gshared
POc:__ZNK2UI11CanvasGroup22GetTypeVirtualInternalEv
Age:_Context_get_Current_m2853615040
fVi:_Keyboard_WarnIfTerminalNotConneced_m1063217717
hnc:__Z21CleanupGlobalGUIStatev
f2f:_Type_IsContextfulImpl_m3693603908
zkg:_Enumerator_VerifyState_m2873941769_gshared
UAb:__Z18Transfer_BlittableI18StreamedBinaryReadILb0EELb1EN4math12int3_storageEEvRK29SerializationCommandArgumentsR31RuntimeSerializationCommandInfo
lIa:__ZN22VertexDeclarationCache5ClearEv
Yid:_CspParameters__ctor_m3852972821
o_b:__ZN17PersistentManager12SetPathRemapERKN4core12basic_stringIcNS0_20StringStorageDefaultIcEEEES6_
Dw:__Z27ProcessRootMotionEmptyMixerP35AnimationPlayableEvaluationConstantP32AnimationPlayableEvaluationInputP33AnimationPlayableEvaluationOutput
MUb:__ZN6Camera24PrepareCullingParametersERK23CameraCullingParameters13RenderingPathR11CullResults
Abc:__Z12SetIUISystemP9IUISystem
Hgb:__ZN19RuntimeSceneManager22EndIntegrateMainThreadEP10UnitySceneNS_11LoadingModeE
Wpi:_Array_Sort_TisUICharInfo_t75501106_m3474449559_gshared
ftb:__Z26Transfer_UnityEngineObjectI17RemapPPtrTransferLb0EEvRK29SerializationCommandArgumentsR31RuntimeSerializationCommandInfo
KAi:_QuickSearch_GetShiftDistance_m2542665852
Gsi:_Array_InternalArray__get_Item_TisCustomAttributeTypedArgument_t2723150157_m2639399822_gshared
D6e:_BigInteger_GenerateRandom_m3141592944
Avb:__Z29Transfer_Blittable_ArrayFieldI24GenerateTypeTreeTransfer4AABBEvRT_R9ArrayInfoRK23StaticTransferFieldInfo
gmf:_Interval_Contains_m1454846757
hdd:_Graphic_CacheCanvas_m1120385152
UIj:_emscripten_GetProcAddress
Ca:invoke_fiiifii
oKj:_modff
JYa:__ZN20SphericalHarmonicsL219AddDirectionalLightERKN4math7_float3ERKNS0_7_float4E
Sea:__Z26ScheduleJobForEachInternalR8JobFencePFvPvjES1_iPFvS1_E11JobPriority
cLb:__ZZ23InitPlayerLoopCallbacksvEN41PostLateUpdateProfilerEndFrameRegistrator7ForwardEv
Ubc:__ZN9Scripting18RaiseMonoExceptionEPKcz
pOc:__ZN2UI13UIInstruction19ClearSharedMeshDataER8JobFence
V7b:__ZN10GameObject17WillHandleMessageERK17MessageIdentifier
drf:_StrongNamePublicKeyBlob_Equals_m3655422942
asf:_SecurityContext__ctor_m1730177197
GWi:_RectTransformUtility_GetTransposed_m3952754222
Z5b:__ZN9ShaderLab16FastPropertyName15InitBy28BitHashEj
Buh:_List_1_System_Collections_IList_set_Item_m4182383657_gshared
gJg:__Z96RuntimeInvoker_Void_t1185182177_Int32_t2950945753_Single_t1397266774_RuntimeObject_RuntimeObjectPFvvEPK10MethodInfoPvPS4_
YJe:_Enumerator_System_Collections_IDictionaryEnumerator_get_Key_m195047678_AdjustorThunk
uVi:_Canvas_get_pixelPerfect_m333060872
eab:__ZN17PackedFloatVector12UnpackFloatsEPfiiii
Iz:__ZN17AnimationPlayable28UpdateInternalStateRecursiveILi3ELb0EEEvPK35AnimationPlayableEvaluationConstant
Lsa:__ZN13GfxDeviceGLES21DestroyComputeProgramER12ObjectHandleI18ComputeProgram_TagPvE
hAi:_PatternCompiler_EmitIfDefined_m2075050865
pCf:_Decimal_System_IConvertible_ToInt64_m1446427516_AdjustorThunk
Fca:__ZN17UniqueIDGenerator16DestroyPureIndexEj
mUd:_NotImplementedException__ctor_m3095902440
c0:__ZL21AppendNestedClassName17ScriptingClassPtrRN4core17string_with_labelILi1EEE
Dia:__ZN14SafeBinaryRead21TransferSTLStyleArrayINSt3__26vectorIN9ShaderLab20SerializedSubProgram12UAVParameterENS1_9allocatorIS5_EEEEEEvRT_17TransferMetaFlags
tTi:_FontTextureRebuildCallback_Invoke_m3604797831
DS:__ZN24TextDOMTransferWriteBaseI9JSONWriteE12PushMetaFlagEi
pRh:__ZL59_PropertyBuilder_t1366136710_CustomAttributesCacheGeneratorP21CustomAttributesCache
qBa:__ZN6prcoreL26RemapGenericIntegerToFloatI17TexFormatARGB888815TexFormatRFloatEEvPKNS_9InnerInfoE
c6i:__ZN6il2cpp2vm10ThreadPool10InitializeEv
Xxh:_List_1__ctor_m808270210_gshared
Y9i:__ZN6il2cpp2vm17TypeNameParseInfoD2Ev
phg:_PrimeHelper_ToPrime_m3704362632_gshared
aJ:__ZN4FMOD7Channel7setModeEj
ZBf:_Decimal_System_IConvertible_ToType_m2919262279
wCg:_Vector2_get_right_m1027081661
DX:__ZNK8Renderer8GetLayerEv
hPd:_Stream_Close_m771352034
THe:__ZN21InterfaceFuncInvoker1Ii19TimeSpan_t881159249E6InvokeEjP11Il2CppClassP12Il2CppObjectS0_
wPb:__ZNK6Camera20GetReplacementShaderEv
UAh:_List_1_System_Collections_IList_Remove_m4226673807_gshared
qGj:__ZNSt3__26__treeINS_12__value_typeINS_12basic_stringIcNS_11char_traitsIcEENS_9allocatorIcEEEEPFvvEEENS_19__map_value_compareIS7_SA_NS_4lessIS7_EELb1EEENS5_ISA_EEE4findIS7_EENS_15__tree_iteratorISA_PNS_11__tree_nodeISA_PvEEiEERKT_
Fya:__ZL23stbir__calculate_memoryP11stbir__info
zNe:_KeyCollection_System_Collections_Generic_ICollectionU3CTKeyU3E_Clear_m1261840136_gshared
qlf:_Interpreter_Close_m126356671
z9a:__ZNK6Camera18GetRenderRectangleEv
V7a:__ZN13sorted_vectorIN4core12basic_stringIcNS0_20StringStorageDefaultIcEEEENSt3__24lessIS4_EE13stl_allocatorIS4_L18MemLabelIdentifier81ELi16EEE4findIS4_EENS5_11__wrap_iterIPS4_EERKT_
aBi:_Parser_HandleExplicitNumericGroups_m1412234891
dti:_Array_InternalArray__get_Item_TisRaycastHit2D_t2279581989_m2440275162_gshared
EXd:_CustomAttributeNamedArgument_Equals_m1414002036
ouc:__ZL26Transfer_SimpleNativeClassI8JSONRead10RectOffsetLb1EEvRK29SerializationCommandArgumentsR31RuntimeSerializationCommandInfo
ysg:_Material_SetInt_m475299667
_Rc:__Z44CanvasRenderer_CUSTOM_INTERNAL_CALL_SetColorP12Il2CppObjectRK10ColorRGBAf
Wig:_Enumerator_System_Collections_IEnumerator_Reset_m959124362_AdjustorThunk
AGf:_Enum_ToObject_m121831801
wfd:_Image_get_hasBorder_m3423344180
drc:__Z18Transfer_BlittableI9JSONWriteLb1EsEvRK29SerializationCommandArgumentsR31RuntimeSerializationCommandInfo
vVc:__Z48UnityAnalyticsHandler_CUSTOM_SendCustomEventNameP12Il2CppObjectP12Il2CppString
Ccc:__ZN9Transform16SetLocalRotationERK11Quaternionf
Dcd:_FontData_set_richText_m993590067
NLb:__ZN13RenderManager37RenderCamerasWithScriptableRenderLoopEi
T$f:_TimeSpan__ctor_m3689759052
yB:__ZN7mecanim8skeleton25SkeletonPoseComputeLocalQEPKNS0_8SkeletonEPKNS0_13SkeletonPoseTIN4math4trsXEEEPS7_ii
t3g:__Z37RuntimeInvoker_Enumerator_t3123848928PFvvEPK10MethodInfoPvPS4_
Nsj:__ZN6il2cpp2os19ReleaseSocketHandleEj
gO:__ZN11AudioModule16GetDSPSampleRateEv
DIb:__ZN15InstancingProps11NewConstantERKN9ShaderLab16FastPropertyNameEj15ShaderParamTypehhjjP6Object
zTe:_InputField_get_characterValidation_m4196664041
j1f:_Type_get_Attributes_m58528356
Omd:_Array_GetUpperBound_m4018715963
Myi:_X509Store__ctor_m2736551756
Ouj:__ZN6il2cpp2os5posix15PosixWaitObjectC2ENS2_4TypeE
JNb:__ZN6Camera21PostMultiCustomRenderENS_10RenderFlagEb
DUf:_Array_InternalArray__Insert_TisMonoResource_t4103430009_m1997865927_gshared
$of:_SHA512Managed_HashFinal_m2173184560
rIb:__ZN23ShaderVariantCollection13WarmupShadersEv
a4b:__ZN13ProduceHelperI9TransformLb0EE7ProduceE10MemLabelId18ObjectCreationMode
M$:__Z25GetCommonScriptingClassesv
dhb:__Z27scripting_gc_collect_unsafei
Ibe:_MD5SHA1_HashFinal_m4115488658
_Rf:_Array_InternalArray__ICollection_Add_TisKeyValuePair_2_t71524366_m3468275433_gshared
vNi:_AudioSettings_InvokeOnAudioManagerUpdate_m4044425648
qQ:__Z59Register_UnityEngine_AudioExtensionManager_GetAudioListenerv
Tub:__Z26Transfer_UnityEngineObjectI24GenerateTypeTreeTransferLb0EEvRK29SerializationCommandArgumentsR31RuntimeSerializationCommandInfo
MDd:_Convert_ToDouble_m278900635
qBc:_UNITY_FT_GlyphLoader_CheckPoints
Xog:_DebugLogHandler_LogException_m302830419
uVe:_InputField_LineDownCharacterPosition_m2798128425
zLe:_Enumerator_System_Collections_IDictionaryEnumerator_get_Value_m684446183_AdjustorThunk
EUa:__ZN15SharedLightData7PrecalcEv
V1:__ZN10Matrix4x4fmLERKS_
Pwg:_Vector2__ctor_m3970636864
pyb:__Z35Transfer_Blittable_FixedBufferFieldI18StreamedBinaryReadILb1EEsEvRK29SerializationCommandArgumentsR31RuntimeSerializationCommandInfo
YGf:_Environment_InternalGetFolderPath_m468390978
dOa:__ZN15ArchiveReadFileD0Ev
cXc:__ZN11UnityEngine15PlatformWrapper18GetOperatingSystemEv
Ksf:_SecurityFrame_ToString_m339310712
jLh:__ZL62ParamArrayAttribute_t3664765590_CustomAttributesCacheGeneratorP21CustomAttributesCache
Suc:__ZN8GUIStyle8TransferI8JSONReadEEvRT_
r6c:_TouchInputModule_ProcessTouchPress_m3504077560
d2e:_Selectable_IsInteractable_m2611421038
VAc:_FT_MSB
dWj:_emscripten_glReadPixels__wrapper
Ghg:_HashSet_1_Add_m1971460364_gshared
GGj:__ZN6il2cpp6icalls8mscorlib4Mono8Security12Cryptography18KeyPairPersistence10_CanSecureEP12Il2CppString
eMf:_Array_InternalArray__ICollection_Contains_TisParameterModifier_t1461694466_m1000453323_gshared
q9f:_Dictionary_2_System_Collections_ICollection_CopyTo_m4047192178_gshared
F8i:__ZN6il2cpp2os4File11GetFileStatERKNSt3__212basic_stringIcNS2_11char_traitsIcEENS2_9allocatorIcEEEEPNS0_8FileStatEPi
Cmf:_RIPEMD160Managed_Initialize_m2173168986
M5b:__ZN9TransformC2E10MemLabelId18ObjectCreationMode
Xoa:__ZN13GfxDeviceGLES14SetRasterStateEPK17DeviceRasterState
mWd:_Assembly_ToString_m2053237013
btg:_Vector4_Equals_m1779210055
kDc:_otv_Coverage_get_count
Z5d:_ParameterModifier_t1461694466_marshal_pinvoke_back
M2:__ZN14SafeBinaryRead11EndTransferEv
Mfg:_EqualityComparer_1__cctor_m2741186979_gshared
Fpb:__ZN14SafeBinaryRead8TransferI8MonoPPtrEEvRT_PKc17TransferMetaFlags
qGf:_Enum_System_IConvertible_ToUInt16_m4216751959
vGa:__ZN21UniformBufferTFMethod13MapBoneBufferEj
SUi:_StringExtension_Anagram_m968226828
uUf:_Array_InternalArray__Insert_TisInt32_t2950945753_m4073217122_gshared
dnf:_RNGCryptoServiceProvider_RngClose_m3915778345
NBd:_SortedList_Remove_m2784369438
Dxa:__ZN4crnd12crn_unpacker10unpack_dxnEPPhjjj
u0:__ZN14SerializedFileD2Ev
Qnc:__Z30Event_Get_Custom_PropModifiersP12Il2CppObject
nu:__ZN7mecanim9animation16CreateClipOutputEPKNS0_4ClipERNS_6memory9AllocatorE
$Ze:_RawImage_get_mainTexture_m2396337033
LYi:_CustomEventData_Add_m1638466298
Uaj:__ZN6il2cpp2vm10Reflection17GetAssemblyObjectEPK14Il2CppAssembly
dDb:__ZNSt3__218__stable_sort_moveIRN10vector_mapI17ScriptingClassPtrPKN5Unity4TypeENS_4lessIS2_EENS_9allocatorINS_4pairIS2_S6_EEEEE13value_compareENS_11__wrap_iterIPSB_EEEEvT0_SJ_T_NS_15iterator_traitsISJ_E15difference_typeEPNSM_10value_typeE
fha:__ZN6Shader21AwakeFromLoadThreadedEv
sAa:__ZN6prcoreL17RemapGenericFloatI17TexFormatRGBFloat17TexFormatRGBAHalfEEvPKNS_9InnerInfoE
y6e:_BigInteger__ctor_m3991350270
jCg:_Vector2_GetHashCode_m3916089713_AdjustorThunk
SHj:__ZN6il2cpp2os9SemaphoreC2Eii
Hpb:__ZNSt3__26vectorI8MonoPPtr13stl_allocatorIS1_L18MemLabelIdentifier1ELi16EEE8__appendEj
mOb:__ZN14qsort_internal30FindAndMovePivotToLastPositionIP17RODataReplacementi19ROSorterReplacementEEvT_S4_T0_T1_
GGa:__ZN15UniformTFMethod20IsBoneCountSupportedEi
y5f:_UnauthorizedAccessException__ctor_m246605039
f5b:__Z12BuildTextureIA4_tPFvP9Texture2DPS0_iiiiEES2_PKcii13TextureFormatRKT0_17TextureColorSpaceb
FOj:dynCall_viidi
jNe:_KeyCollection__ctor_m1356492051_gshared
a$:__ZN24ScriptingMethodFiltering17FilterOnSignatureENS_18MethodSearchFilterE
OZb:__ZN18ScreenManagerWebGL13SetLockCursorE14CursorLockMode
Pde:_CipherSuite_DecryptRecord_m1495386860
Bxi:_X509Certificate_VerifySignature_m3538124832
lPd:_StreamAsyncResult_SetComplete_m1102187093
fDi:_CharacterClass_GetIntervalCost_m4036989868
Qki:__ZL64HorizontalLayoutGroup_t2586782146_CustomAttributesCacheGeneratorP21CustomAttributesCache
A3b:__ZN13MonoBehaviour19HandleNotificationsEPviR11MessageData
Mxg:_RectOffset_Init_m2028508611
tIj:__ZN6il2cpp2os9EventImpl5ResetEv
Tce:_Alert__ctor_m3135936936
BJd:_Int64_System_IConvertible_ToInt32_m772105781
sui:_TlsClientSettings__ctor_m3220697265
Vej:__ZNK15dense_hashtableINSt3__24pairIK10KeyWrapperINS1_IPK9EventInfoP11Il2CppClassEEEjEES9_17ReflectionMapHashIS8_EN14dense_hash_mapIS9_jSD_NS9_14EqualsComparerINS0_8equal_toIS8_EEEENS0_9allocatorISB_EEE9SelectKeyESI_SK_E23find_position_with_hashERSA_j
bSj:b58
G8f:_Dictionary_2_make_pair_m2250450206_gshared
aXf:_ForwardingDecoder_GetChars_m4228908854
Llf:_InterpreterFactory_get_GroupCount_m2226373271
WRj:b53
JRj:b50
KRj:b51
$Rj:b56
aSj:b57
XRj:b54
_Rj:b55
s5e:_SimpleCollator_IsSafe_m310268646
Zmd:_X509Certificate_get_RawData_m2387471414
ITj:_glDetachShader__wrapper
Grd:_ArrayTypeMismatchException__ctor_m3375008173
iPe:_Transform_1_BeginInvoke_m1757796657_gshared
WZg:__Z88RuntimeInvoker_Int32_t2950945753_UIVertex_t4057497605_UIVertex_t4057497605_RuntimeObjectPFvvEPK10MethodInfoPvPS4_
o7b:__ZN10GameObject12CleanupClassEv
Lpa:__ZN9GfxDevice25SetShaderPropertiesSharedERK19ShaderPropertySheet
k7c:_BaseMeshEffect_get_graphic_m1852367505
Yyd:_CaseInsensitiveHashCodeProvider_GetHashCode_m2168170016
bxa:__ZN18AsyncUploadManager19AsyncResourceUploadER9GfxDeviceii9TextureID
I6b:__ZL25InitializeDefaultMaterialv
ySc:__Z53Register_UnityEngine_CanvasRenderer_get_materialCountv
p1d:_PropertyBuilder_GetCustomAttributes_m3798356764
b6d:_PropertyInfo_get_MemberType_m2794839864
vKi:_EventTrigger_RemoveRule_m1596811726
TIe:_Comparer_1_System_Collections_IComparer_Compare_m4179495191_gshared
qMa:__ZN17PersistentManager12UnloadStreamERKN4core12basic_stringIcNS0_20StringStorageDefaultIcEEEEb
cPa:__ZN10MemoryFile4ReadEyyPvPy
$Uf:_Array_InternalArray__Insert_TisUICharInfo_t75501106_m2924156520_gshared
QRf:_MonoProperty_GetterAdapterFrame_TisRuntimeObject_TisRuntimeObject_m458718082_gshared
c6a:__ZN13ScreenManager17RequestResolutionEiibi
ajj:_il2cpp_unity_liveness_calculation_from_statics
Wx:__ZNK26AnimatorControllerPlayable11DerivesFromE17ScriptingClassPtr
hGe:_InternalEnumerator_1_System_Collections_IEnumerator_get_Current_m2649471526_gshared
g6:__ZN8Renderer8TransferI17RemapPPtrTransferEEvRT_
jpa:__ZN13GfxDeviceGLES26UpdateViewProjectionMatrixEv
UJe:_Enumerator_System_Collections_IDictionaryEnumerator_get_Entry_m522483686_gshared
taf:_PrivateKeyInfo_RemoveLeadingZero_m3921889925
B_f:_Thread_get_CurrentContext_m1695017876
MXb:__Z24LookRotationToQuaternionRK8Vector3fS1_P11Quaternionf
KXb:__ZN16ReflectionProbes9GetCameraEv
Zma:__ZL18IsGpuProgramUsable20ShaderGpuProgramTypePK6Shader
$Qc:__ZN2UI6Canvas17SetSortingLayerIDEi
Luj:__ZN6il2cpp2vm11MethodStack23CleanupForCurrentThreadEv
tbh:_Collection_1_ConvertItem_m618594517_gshared
HFd:_Convert_ToUInt64_m388601487
AVa:__ZN20TierGraphicsSettings8TransferI24GenerateTypeTreeTransferEEvRT_
E2i:__ZN15dense_hashtableINSt3__24pairIK10KeyWrapperIN6il2cpp5utils13dynamic_arrayIPK10Il2CppTypeLj4EEEEPFvvEEESA_NS3_8metadata19Il2CppSignatureHashEN14dense_hash_mapISA_SD_SG_NSA_14EqualsComparerINSF_22Il2CppSignatureCompareEEENS0_9allocatorISE_EEE9SelectKeyESK_SM_E16reset_thresholdsEv
ytg:_Mesh_get_vertices_m3585684815
urb:__ZN14SafeBinaryRead21TransferSTLStyleArrayI13dynamic_arrayI4AABBLj4EEEEvRT_17TransferMetaFlags
PAg:_TouchScreenKeyboard_get_text_m1797464608
UYb:__ZN26CustomRenderTextureManager25UpdateCustomRenderTextureEP19CustomRenderTexturei
Wfa:__ZNSt3__26__treeINS_12__value_typeIiN11TypeManager18TypeCallbackStructEEENS_19__map_value_compareIiS4_NS_4lessIiEELb1EEENS_9allocatorIS4_EEE7destroyEPNS_11__tree_nodeIS4_PvEE
_Eb:__ZN13MonoBehaviour18TransferEngineDataI24GenerateTypeTreeTransferEE4PPtrI10MonoScriptERT_
Y8b:__ZNK14PlayableOutput23GetSourcePlayableUnsafeEv
bWc:__ZN11UnityEngine7Connect17XRDeviceInfoEventD0Ev
uSh:__ZL60SoapTypeAttribute_t1750930817_CustomAttributesCacheGeneratorP21CustomAttributesCache
UWd:_Binder_ConvertArgs_m2124461494
XV:__ZN21UnityDefaultAllocatorI17LowLevelAllocatorE10DeallocateEPv
zs:__ZN15PackedIntVector8TransferI14SafeBinaryReadEEvRT_
yCg:_Vector3__ctor_m3353183577_AdjustorThunk
Xye:_InternalEnumerator_1_System_Collections_IEnumerator_get_Current_m1514266661_gshared
Hbe:_MD5SHA1_Initialize_m675470944
LSf:_Array_InternalArray__ICollection_Add_TisKeyframe_t4206410242_m442111799_gshared
xyh:_List_1_CheckMatch_m3263549496_gshared
EH:__ZN13AudioListener8DoUpdateEv
mJd:_Int32_GetTypeCode_m1648562395_AdjustorThunk
VCd:__Z13bankers_roundd
deb:__ZN14SafeBinaryRead8TransferI5RectTIfEEEvRT_PKc17TransferMetaFlags
ui:_emscripten_glGenFramebuffers
Qfa:__ZN17BaseObjectManager16StaticInitializeEPv
Yth:_List_1_CheckCollection_m2602703205_gshared
Lrc:__Z18Transfer_BlittableI9JSONWriteLb0EyEvRK29SerializationCommandArgumentsR31RuntimeSerializationCommandInfo
x_a:__ZN13RenderTexture15ThreadedCleanupEv
chf:_X509BasicConstraintsExtension__ctor_m3721156175
O1a:__ZN12CubemapArray23VirtualRedirectTransferER14SafeBinaryRead
ru:__ZN21AnimationClipPlayable16ProcessHumanPassEPK35AnimationPlayableEvaluationConstantPK32AnimationPlayableEvaluationInputP33AnimationPlayableEvaluationOutput
NLd:_Path_GetFileName_m1354558116
G8e:_BitConverterLE_ToDouble_m1601000678
FSj:_emscripten_glUniform3i__wrapper
uxg:_Rect_Contains_m1232228501_AdjustorThunk
qic:__Z43RectTransform_CUSTOM_INTERNAL_set_sizeDeltaP12Il2CppObjectRK13Vector2fIcall
KJd:_Int64_System_IConvertible_ToType_m3223988955_AdjustorThunk
Bqj:__ZN15dense_hashtableINSt3__24pairIK10KeyWrapperINS1_IPKcS4_EEEiEES6_24NamespaceAndNamePairHashN14dense_hash_mapIS6_iS9_NS6_14EqualsComparerI26NamespaceAndNamePairEqualsEENS0_9allocatorIS8_EEE9SelectKeyESD_SF_E6insertERKS8_
d6:__ZN24GenerateTypeTreeTransfer18BeginArrayTransferEPKcS1_Ri17TransferMetaFlags
bti:_Array_InternalArray__get_Item_TisPlayableBinding_t354260709_m3837494573_gshared
rm:___syscall51
Rvf:_String_CreateString_m4016935005
wzi:_MatchCollection_get_FullList_m1829231879
vm:___syscall54
vqd:_Array_GetValue_m2528415604
Cyg:_Transform_INTERNAL_CALL_TransformPoint_m4261269221
dLf:_Guid_AppendShort_m791023083
Tyh:_List_1__ctor_m4212503576_gshared
goa:__ZN9ShaderLab9SubShader19CreateFromSubShaderERKS0_
rBc:_cff_builder_add_point1
Krj:__ZN6il2cpp2vm5Image21GetCachedResourceDataEPK11Il2CppImageRKNSt3__212basic_stringIcNS5_11char_traitsIcEENS5_9allocatorIcEEEE
oob:__Z18Transfer_BlittableI14SafeBinaryReadLb0E10ColorRGBAfEvRK29SerializationCommandArgumentsR31RuntimeSerializationCommandInfo
za:invoke_iiiiiiiiii
SP:__ZN11AudioSource25GetNumExtensionPropertiesEv
XTf:_Array_InternalArray__ICollection_CopyTo_TisUILineInfo_t4195266810_m104406798_gshared
Nvd:_Char_ToLowerInvariant_m1926695830
Iog:_Debug_LogErrorFormat_m3558239521
ddd:_Graphic_get_canvas_m3320066409
TUe:_InputField_ActivateInputFieldInternal_m3360893886
jG:__ZN4FMOD7SystemI11createSoundEPKcjP22FMOD_CREATESOUNDEXINFOPPNS_5SoundE
W$b:__ZN10FileSystem19SetCurrentDirectoryERKN4core12basic_stringIcNS0_20StringStorageDefaultIcEEEE
Nng:_Component_get_gameObject_m442555142
URd:_Math_Log_m2526073084
Vec:__Z47Register_UnityEngine_Coroutine_ReleaseCoroutinev
pI:__ZN15AudioReverbZone13SetFMODValuesEv
OZ:__ZN14SafeBinaryRead4InitERK16TypeTreeIteratorxx24TransferInstructionFlags10MemLabelId
$ga:__ZL19StaticDestroyShaderPv
de:_glRenderbufferStorageMultisample
H8b:__ZN8Playable4PlayEv
nBd:_SyncHashtable_Clone_m3726939774
fz:__ZN23AnimationPlayableOutput17SetTargetAnimatorEP8Animator
gtc:__ZN9JSONWrite8TransferI13dynamic_arrayIN4math12int3_storageELj4EEEEvRT_PKc17TransferMetaFlags
CQb:__ZN22MotionVectorRenderLoopD2Ev
Kog:_Debug_LogException_m2207318968
URf:_Array_InternalArray__ICollection_Add_TisClientCertificateType_t1004704908_m2622721177_gshared
Hs:__ZN17PackedFloatVector8TransferI18StreamedBinaryReadILb0EEEEvRT_
P2a:__ZN7Cubemap23VirtualRedirectTransferER17RemapPPtrTransfer
Vkc:__Z37Register_UnityEngine_Screen_get_widthv
mYi:_UnityAnalyticsHandler_SendCustomEvent_m1223269116
MEi:_Uri_get_Authority_m3816772302
W9b:__ZN22BlockMemoryCacheWriter11GetPathNameEv
xgf:_X509BasicConstraintsExtension__ctor_m1244152959
GAg:_Touch_get_position_m3109777936
m5d:_ParameterInfo__ctor_m3269320476
dkf:_X509SubjectKeyIdentifierExtension_FromHexChars_m3244835916
vtf:_Single_CompareTo_m2785801815
kwi:_PKCS12_MAC_m3355614022
ep:stackAlloc
nfc:__Z44Camera_CUSTOM_INTERNAL_CALL_ScreenPointToRayP12Il2CppObjectRK8Vector3fR3Ray
oPa:__ZN25SingleBlockMemoryFileData4LockEPPv
iXj:_glProgramParameteri__wrapper
JZ:__ZN17PersistentManager23PostReadActivationQueueEiPK8TypeTreeb
Sgc:__Z32RectOffset_Get_Custom_PropBottomP12Il2CppObject
Dog:_Debug_LogError_m2850623458
x8g:_Collection_1_CheckWritable_m3225530705_gshared
IXj:_emscripten_glGetObjectParameterivARB__wrapper
wKj:_stat
y4:__ZN9ShaderLab10SubProgram7CompileEv
FIb:__ZN15InstancingProps14CombineBuiltinEN10Instancing11BuiltinPropES1_S1_
i1d:_PropertyBuilder_get_CanRead_m3783190070
x0:__ZN14SerializedFile14SerializedTypeD2Ev
$Rf:_Array_InternalArray__ICollection_Add_TisKeyValuePair_2_t3699644050_m4052349323_gshared
aee:_CipherSuiteCollection_System_Collections_IList_get_Item_m2175128671
kSa:__ZN6CameraD2Ev
la:invoke_iiiiiiiiiiii
Lyf:_DateTime_System_IConvertible_ToType_m1242864300_AdjustorThunk
rFe:_InternalEnumerator_1_get_Current_m2446410893_AdjustorThunk
jWa:__Z29CalculateDefaultChannelsToAdd17ShaderChannelMaskS_
PRa:__ZN10TagManager13RegisterLayerEjRKN4core12basic_stringIcNS0_20StringStorageDefaultIcEEEE
sIa:__ZNSt3__26__treeI20DeviceBlendStateGLES14MemoryCompLessI16DeviceBlendStateENS_9allocatorIS1_EEE7destroyEPNS_11__tree_nodeIS1_PvEE
eWi:_CanvasRenderer_SetMaterial_m633746949
lL:__ZN10AudioMixer12RebindOutputEv
vkj:__ZNK15dense_hashtableINSt3__24pairIK10KeyWrapperIP11Il2CppClassES4_EES5_N6il2cpp8metadata16SZArrayClassHashEN14dense_hash_mapIS5_S4_SA_NS5_14EqualsComparerINS9_19SZArrayClassCompareEEENS0_9allocatorIS7_EEE9SelectKeyESE_SG_E5beginEv
XXe:_LayoutRebuilder_PerformLayoutControl_m4241054021
c_i:__ZN6il2cpp2vm17SetupFieldsLockedEP11Il2CppClassRKNS_2os12FastAutoLockE
rHb:__ZNK9GfxDevice20IsViewportFullscreenEv
fDa:__ZN18GlslGpuProgramGLES13SwitchProgramEj
aQa:__ZN20ArchiveStorageReaderC2E10MemLabelId
yFg:__Z132RuntimeInvoker_Int32_t2950945753_RuntimeObject_Int32_t2950945753_Int32_t2950945753_RuntimeObject_Int32_t2950945753_Int32_t2950945753PFvvEPK10MethodInfoPvPS4_
Hmb:__ZN16MemoryFileSystem4NameEv
Usf:_Single_System_IConvertible_ToBoolean_m1716619219_AdjustorThunk
Qkc:__Z13SetCopyBufferRKN4core12basic_stringIcNS_20StringStorageDefaultIcEEEE
Kui:_TlsException__ctor_m818940807
lnd:_X509CertificateEnumerator_System_Collections_IEnumerator_get_Current_m418791713
QLc:_UNITY_FT_New_Size
ldc:__Z42ScriptingGetComponentsOfTypeFromGameObjectRK26ScriptingGetComponentsArgs
i7h:__ZL73ArgumentCache_t2187958399_CustomAttributesCacheGenerator_m_ObjectArgumentP21CustomAttributesCache
zqi:_Array_swap_TisRaycastResult_t3360306849_TisRaycastResult_t3360306849_m3400922624_gshared
_Mi:_AudioListener_ReadExtensionName_m929423100
aMc:_raccess_guess_vfat
X0a:__ZNSt3__27__sort4IRPFbRKNS_4pairIN9ShaderLab16FastPropertyNameEN18UnityPropertySheet11UnityTexEnvEEES8_EPS6_EEjT0_SD_SD_SD_T_
pAc:_cf2_hintmap_build
qAg:_Texture_get_width_m888163864
yJc:_Line_Up
ke:_emscripten_glBufferSubData
tvf:_String_ReplaceUnchecked_m1381393810
Xp:__Z17CalculateGlobalRS23TransformAccessReadOnly
dFj:__ZNSt3__210__list_impIPN6il2cpp5utils10MemoryPool6RegionENS_9allocatorIS5_EEE5clearEv
qrb:__ZN14SafeBinaryRead21TransferSTLStyleArrayI13dynamic_arrayI9BoundsIntLj4EEEEvRT_17TransferMetaFlags
Zib:__ZN22MemoryCacherReadBlocks14LockCacheBlockEjPPhS1_
H9i:__ZN6il2cpp2vm14TypeNameParser17ParseAssemblyNameEv
u9a:__ZNK9GfxDevice26GetSinglePassStereoEyeMaskEv
Uog:_DebugLogHandler_Internal_Log_m4175774469
lzj:__ZN4utf88internal15increase_safelyIPKcEENS0_9utf_errorERT_S5_
d_i:__ZN6il2cpp2vmL21SetupPropertiesLockedEP11Il2CppClassRKNS_2os12FastAutoLockE
dLc:__ZN20TextRenderingPrivate8FontImpl16CacheFontForTextEPtiifjPK13dynamic_arrayINS_16TextFormatChangeELj4EE
Yvd:_CharEnumerator_get_Current_m525608209
U1c:__Z21ArrayElementTypeCheckP11Il2CppArrayPv
nWj:_emscripten_glTexSubImage2D__wrapper
DEf:_StackTrace_init_frames_m641783388
Rgf:_PublicKey_DecodeRSA_m1824703659
sMj:__ZNSt3__212basic_stringIcNS_11char_traitsIcEENS_9allocatorIcEEE6appendEjc
VCb:__Z13TransferFieldI18StreamedBinaryReadILb0EELb0E16Converter_StringEvRK23StaticTransferFieldInfoR31RuntimeSerializationCommandInfoRT1_
ETc:__Z42Register_UnityEngine_Canvas_get_rootCanvasv
Uwd:_ArrayListWrapper_set_Item_m3849584877
Te:_TTF_RenderText_Solid
ush:_List_1__ctor_m3947764094_gshared
DDi:_Parser_IsIgnorePatternWhitespace_m2107132682
bef:_HttpRequestCreator_Create_m400548686
b_c:__ZN11UnityEngine7Connect16PersistentValuesC2Ev
_hh:_ReadOnlyCollection_1_System_Collections_IList_Insert_m134149130_gshared
prc:__Z18Transfer_BlittableI9JSONWriteLb0E5RectTIiEEvRK29SerializationCommandArgumentsR31RuntimeSerializationCommandInfo
C6e:_BigInteger_get_Rng_m4216817480
yzc:_cf2_getStdVW
WMf:_Array_InternalArray__ICollection_Remove_TisDateTime_t3738529785_m2250893026_gshared
xDa:__Z15IsIEEE754Format14GraphicsFormat
ktb:__Z19TransferField_ArrayI17RemapPPtrTransfer27Converter_UnityEngineObjectEvRK23StaticTransferFieldInfoR31RuntimeSerializationCommandInfoRT0_
Za:invoke_iifiii
Lzd:_KeyNotFoundException__ctor_m541499307
qOf:_SetPropertyUtility_SetStruct_TisSpriteState_t1362986479_m665096788_gshared
UFg:__Z61RuntimeInvoker_Single_t1397266774_RuntimeObject_RuntimeObjectPFvvEPK10MethodInfoPvPS4_
aNf:_Array_InternalArray__ICollection_Remove_TisIntPtr_t_m3807208150_gshared
DSg:__Z71RuntimeInvoker_Void_t1185182177_Vector3_t3722313464_Vector3_t3722313464PFvvEPK10MethodInfoPvPS4_
$Be:_InternalEnumerator_1_get_Current_m2316281569_AdjustorThunk
Oxf:_DateTime__ctor_m1095105629
era:__ZN13GfxDeviceGLES15UploadTexture2DE9TextureID16TextureDimensionPKhiii14GraphicsFormati18TextureUploadFlags16TextureUsageMode
rFi:_Event_Cleanup_m2477919477
hK:__ZN4FMOD6System9createDSPEP20FMOD_DSP_DESCRIPTIONPPNS_3DSPE
FWh:__ZL87Thread_t2300836069_CustomAttributesCacheGenerator_Thread_GetCompressedStack_m2923422412P21CustomAttributesCache
jje:_SslClientStream_get_ClientCertificates_m998716871
hG:__ZN4FMOD8ChannelI11EndCallbackEv
tnc:__ZN8GUIStyle14SetDefaultFontEPN13TextRendering4FontE
w5a:__ZN15QualitySettings23VirtualRedirectTransferER24GenerateTypeTreeTransfer
nue:_ObjectReader_ReadValue_m3145979203
$7c:_CanvasScaler_OnDisable_m3424669401
Yii:__ZL68Scrollbar_t1494447233_CustomAttributesCacheGenerator_m_NumberOfStepsP21CustomAttributesCache
T0i:__ZN30dense_hashtable_const_iteratorINSt3__24pairIK10KeyWrapperIPK19Il2CppGenericMethodEPK26Il2CppGenericMethodIndicesEES6_N6il2cpp8metadata23Il2CppGenericMethodHashEN14dense_hash_mapIS6_SA_SE_NS6_14EqualsComparerINSD_26Il2CppGenericMethodCompareEEENS0_9allocatorISB_EEE9SelectKeyESI_SK_EppEv
czc:_UNITY_FT_Request_Metrics
wpj:__ZN6il2cpp6icalls8mscorlib6System10Reflection10MonoMethod29get_IsGenericMethodDefinitionEP22Il2CppReflectionMethod
Rlj:__ZN6il2cpp2vm6Thread21AllocThreadStaticDataEi
ZWd:_Default_SelectMethod_m469311730
yrg:_Input_get_mousePosition_m1616496925
hyj:__ZN30dense_hashtable_const_iteratorINSt3__24pairIK10KeyWrapperIPK19Il2CppGenericMethodEP10MethodInfoEES6_N6il2cpp8metadata23Il2CppGenericMethodHashEN14dense_hash_mapIS6_S9_SD_NS6_14EqualsComparerINSC_26Il2CppGenericMethodCompareEEENS0_9allocatorISA_EEE9SelectKeyESH_SJ_EppEv
v4f:_UInt32_ToString_m2066897296_AdjustorThunk
dP:__Z13RegisterClassI13AudioListenerEvv
vjb:__ZN24GenerateTypeTreeTransfer19TransferSTLStyleMapINSt3__23mapI4PPtrI6ShaderEN4core12basic_stringIcNS6_20StringStorageDefaultIcEEEENS1_4lessIS5_EENS1_9allocatorINS1_4pairIKS5_SA_EEEEEEEEvRT_17TransferMetaFlags
aAd:_Enumerator_Reset_m4274366540
Oqc:__Z18Transfer_BlittableI9JSONWriteLb0E8Vector3fEvRK29SerializationCommandArgumentsR31RuntimeSerializationCommandInfo
Sf:_emscripten_glUniform4i
mDc:_otv_FeatureList_validate
cf:_emscripten_glUniform4f
Bj:___unlock
uCc:_otv_validate
q_b:__ZN13sorted_vectorINSt3__24pairIN4core12basic_stringIcNS2_20StringStorageDefaultIcEEEES6_EEN10vector_mapIS6_S6_27compare_tstring_insensitiveIS6_E13stl_allocatorIS7_L18MemLabelIdentifier38ELi16EEE13value_compareESD_E9erase_oneIS6_EEjRKT_
uqf:_X509Certificate_Equals_m3784196370
DCh:_List_1__ctor_m3376067838_gshared
BM:__ZN20SoundChannelInstance19setReverbPropertiesEP29FMOD_REVERB_CHANNELPROPERTIES
Fkg:_Enumerator_MoveNext_m1446151600_gshared
iof:_SHA1Internal_ProcessFinalBlock_m1403775421
xkc:__Z40Register_UnityEngine_Transform_IsChildOfv
xse:_RemotingServices_GetOrCreateClientIdentity_m648299611
tHe:_InternalEnumerator_1_get_Current_m2356858238_AdjustorThunk
bgc:__Z45Register_UnityEngine_Display_GetSystemExtImplv
Jaf:_RSAManaged_ImportParameters_m1844641996
$Je:_Enumerator_System_Collections_IDictionaryEnumerator_get_Value_m3325938730_AdjustorThunk
rv:__ZN7mecanim9animation23TransformValuesFromClipEiiiRKNS_10ValueArrayERKNS0_10ClipOutputERKNS0_12ClipBindingsERS1_RNS_14ValueArrayMaskEb
oSe:_ValueCollection_System_Collections_ICollection_get_SyncRoot_m1114275063_gshared
SXi:__ZL17log2withScale_128yyi
VKf:_Guid_Equals_m1866984197
KPc:__ZNSt3__218__insertion_sort_3IRNS_6__lessIN2UI14DepthSortEntryES3_EEPS3_EEvT0_S7_T_
GVd:_PlatformNotSupportedException__ctor_m1787918017
Oda:__ZN13RuntimeStaticI15DirectorManagerLb0EE16StaticInitializeEPv
efh:_ReadOnlyCollection_1_System_Collections_ICollection_CopyTo_m2643246984_gshared
Rcb:__ZN11TimeManager6UpdateEv
wqh:_Enumerator_System_Collections_IEnumerator_get_Current_m209407522_gshared
U7c:_CanvasScaler_get_fallbackScreenDPI_m2811935689
Eyf:_DateTimeFormatInfo_ReadOnly_m890935083
HKj:_fflush
O3:__ZN17LightProbeContext4InitERK16LightmapSettingsRK14RenderSettings
JTb:__ZN18DeferredRenderLoop14RenderLightingER21ActiveLightingContextP13RenderTexture9TextureIDPS3_iRK8Vector4fRK14LightingLayersR10MinMaxAABBb12ObjectHandleI17RenderSurface_TagP17RenderSurfaceBaseE
mzg:_SceneManager_Internal_ActiveSceneChanged_m3676176255
bFf:_Double_System_IConvertible_ToInt16_m3591921965
F8a:__ZN9Texture3DD2Ev
e9g:_Collection_1_set_Item_m4280581817_gshared
lDd:_Convert_ToChar_m2796006345
_Uf:_Array_InternalArray__Insert_TisContentType_t1787303396_m3566390691_gshared
nxd:_ArrayListWrapper_GetEnumerator_m2336495952
$Vb:__Z34ProcessIndexListIsNodeVisibleStep2RK22SceneCullingParametersPK9SceneNodePK4AABBR9IndexList
iFb:__ZN10MonoScriptD2Ev
tHa:__ZN19ConstantBuffersGLES8UpdateCBE5CbKeyPKvj
EMi:_AudioSource_get_spatializeInternal_m2117549793
nhc:__Z39Input_CUSTOM_INTERNAL_get_mousePositionP8Vector3f
rqd:_SimpleEnumerator__ctor_m353509656
$Ec:_tt_cmap13_char_next
eei:__ZL117EventSystem_t1003666588_CustomAttributesCacheGenerator_EventSystem_t1003666588____lastSelectedGameObject_PropertyInfoP21CustomAttributesCache
doa:__ZN9ShaderLab4Pass16SetupPassOptionsEv
gh:_JS_Sound_ReleaseInstance
bqa:__ZN13GfxDeviceGLES19DrawBuffersIndirectEP9GfxBufferPK18VertexStreamSourceiP17VertexDeclaration17ShaderChannelMask16GfxPrimitiveType15ComputeBufferIDj
HKf:_Guid_CheckArray_m921056615
ome:_ConfigHandler_ReadLifetine_m208994800
K2f:_UInt16_System_IConvertible_ToByte_m3185614807_AdjustorThunk
_wg:_Rect_get_max_m350137314_AdjustorThunk
Fm:FUNCTION_TABLE_diddi
cmj:__ZN6il2cpp6icalls8mscorlib6System5Array8FastCopyEP11Il2CppArrayiS5_ii
Hic:__Z26Material_CUSTOM_SetIntImplP12Il2CppObjectii
dhc:__Z42Register_UnityEngine_RectOffset_get_bottomv
iKj:_newlocale
rrb:__ZN9BoundsInt8TransferI14SafeBinaryReadEEvRT_
$Fj:__GLOBAL__sub_I_Runtime_cpp_39599
oOj:dynCall_di
Fpg:_BaseInvokableCall_AllowInvoke_m878393606
vqc:__Z28RegisterModule_JSONSerializev
Pjb:__ZN2UI13RectTransform8TransferI14SafeBinaryReadEEvRT_
Hrc:__Z35Transfer_Blittable_FixedBufferFieldI9JSONWriteaEvRK29SerializationCommandArgumentsR31RuntimeSerializationCommandInfo
Ulg:_Behaviour_get_enabled_m753527255
ubc:__Z20IsHumanControllingUsv
MW:__ZNK20DynamicHeapAllocatorI17LowLevelAllocatorE10GetPtrSizeEPKv
vNh:__ZL51TextInfo_t3810425522_CustomAttributesCacheGeneratorP21CustomAttributesCache
FMa:__ZN10systeminfo21GetPersistentDataPathEv
Qpa:__ZN13GfxDeviceGLES17DestroyGpuProgramEPK10GpuProgram
Zni:_Array_InternalArray__set_Item_TisRaycastResult_t3360306849_m730888808_gshared
Nnb:__Z44InitializeTransferFunctionScriptingTraitsForI18StreamedBinaryReadILb0EEEvR31TransferFunctionScriptingTraits
dSb:__ZNSt3__218__insertion_sort_3IR23CompareReflectionProbesP31RuntimeReflectionProbeBlendInfoEEvT0_S5_T_
utb:__ZN12NativeBufferI27Converter_SimpleNativeClassI8GradientEE15SetupForWritingER9ArrayInfo
i7e:_Kernel_RightShift_m2207393597
wga:__ZNSt3__213__stable_sortIRNS_4lessIN4core12basic_stringIcNS2_20StringStorageDefaultIcEEEEEENS_11__wrap_iterIPS6_EEEEvT0_SC_T_NS_15iterator_traitsISC_E15difference_typeEPNSF_10value_typeEi
bmi:__ZL48Shadow_t773074319_CustomAttributesCacheGeneratorP21CustomAttributesCache
q8:__ZN12_GLOBAL__N_113StaticDestroyEPv
fYj:_glUnmapBuffer__wrapper
nvc:__ZN8JSONRead21TransferSTLStyleArrayINSt3__26vectorI8Gradient13stl_allocatorIS3_L18MemLabelIdentifier1ELi16EEEEEEvRT_17TransferMetaFlags
mdb:__ZNSt3__218__insertion_sort_3IRNS_6__lessINS_4pairIPKN5Unity4TypeE7Hash128EES8_EEPS8_EEvT0_SC_T_
XTe:_InputField_set_onValueChanged_m3658917578
cvb:__ZN10RectOffset8TransferI24GenerateTypeTreeTransferEEvRT_
ZKd:_BinaryReader__ctor_m2266204403
Ode:__ZN21InterfaceFuncInvoker5IiP22ByteU5BU5D_t4116647657iiS1_iE6InvokeEjP11Il2CppClassP12Il2CppObjectS1_iiS1_i
mjg:_Enumerator_VerifyState_m3047769867_AdjustorThunk
oub:__Z18Transfer_BlittableI24GenerateTypeTreeTransferLb1E5RectTIiEEvRK29SerializationCommandArgumentsR31RuntimeSerializationCommandInfo
inc:__ZN16GUIKeyboardStateD2Ev
uPc:__ZN2UI13CanvasManager19RemoveDirtyRendererEPNS_6CanvasEPNS_14CanvasRendererE
kJj:_isspace
Wse:_BinaryFormatter__ctor_m2620705134
QWc:__ZN11UnityEngine15PlatformWrapper25GetGraphicsRendererStringEv
OYf:_UTF7Encoding_InternalGetBytes_m797138468
tV:__ZN11UnityEngine15CloudWebService17WebFileDownloaderINS0_20WebRequestRestClientENS0_23WebRequestRestHeaderMapEED2Ev
ub:invoke_vi
Pnd:_SmallXmlParser_HandleWhitespaces_m549588711
Wsc:__ZN9JSONWrite8TransferI13dynamic_arrayI9BoundsIntLj4EEEEvRT_PKc17TransferMetaFlags
Qb:invoke_vd
rb:invoke_vf
szi:_Regex_get_RightToLeft_m2317867572
x3:__ZNK10GameObject8IsActiveEv
Kfc:__Z34Component_Get_Custom_PropTransformP12Il2CppObject
rci:__ZL67g_UnityEngine_PhysicsModule_Assembly_CustomAttributesCacheGeneratorP21CustomAttributesCache
WCa:__ZN18GfxFramebufferGLES23SetupDefaultFramebufferEPP17RenderSurfaceBaseS2_N2gl6HandleILNS3_10ObjectTypeE9EEE
Lad:_DefaultControls_CreateDropdown_m3286664171
A6a:__ZN13ScreenManager18RequestOrientationE17ScreenOrientation
B_i:__ZN6il2cpp2vm5Class12SetupMethodsEP11Il2CppClass
Mcc:__Z39DeleteLastPathNameComponentWithAnySlashRKN4core12basic_stringIcNS_20StringStorageDefaultIcEEEE
tmc:__ZN10GUIManager14InitGUIManagerEv
k3f:_UInt16_Equals_m642257745
Xpd:_Array_System_Collections_IList_IndexOf_m3301661616
wWd:_AssemblyFileVersionAttribute__ctor_m3720707642
q7d:_RuntimeResourceSet_CloneDisposableObjectIfPossible_m2725520898
Coc:__Z37Register_UnityEngine_GUIStyle_Cleanupv
Ma:invoke_iiifii
t2e:_SliderEvent__ctor_m3149452941
hmd:_DeriveBytes__cctor_m1212925033
tdd:_Graphic_OnDisable_m1097930217
u7i:__ZN6il2cpp6icalls8mscorlib6System8MonoType13IsPointerImplEP20Il2CppReflectionType
Ti:_emscripten_glFramebufferRenderbuffer
OUb:__ZN19CullingGroupManager17CullAndSendEventsERK22SceneCullingParametersiRK13CullingOutputRK8JobFence
mRa:__ZN9Transform30EnsureTransformHierarchyExistsEv
g1f:_Type_FilterName_impl_m2651733559
Lqd:_Array_GetValue_m116098292
Eec:__Z46Register_UnityEngine_Application_get_isPlayingv
e_b:__ZNSt3__26vectorINS_4pairIN4core12basic_stringIcNS2_20StringStorageDefaultIcEEEEPK17MessageIdentifierEENS_9allocatorISA_EEE12__move_rangeEPSA_SE_SE_
nOb:__ZN14qsort_internal17MedianOfThreeSwapIP17RODataReplacement19ROSorterReplacementEEvT_S4_S4_T0_
uuf:_String_Split_m3646115398
_xg:_RectOffset_ToString_m2007443979
rZi:__ZNK15dense_hashtableINSt3__24pairIK10KeyWrapperIPK22Il2CppGenericParameterEP11Il2CppClassEES6_N6il2cpp5utils11PointerHashIS4_EEN14dense_hash_mapIS6_S9_SE_NS6_14EqualsComparerINS0_8equal_toIS5_EEEENS0_9allocatorISA_EEE9SelectKeyESJ_SL_E3endEv
Hcc:__ZN17TransformInternal36OnScaleChangedCalculateTransformTypeE15TransformAccess
rNa:__ZN17ArchiveFileSystem10ToAbsoluteEPKc
CXc:__ZN19UnityConnectService15GetPlayerUserIdEv
iRf:_Array_InternalArray__IndexOf_TisSByte_t1669577662_m4156538463_gshared
or:__ZN7mecanim6CRCKeyENS_7eStringE
oac:__ZL12SetPrefValueRKN4core12basic_stringIcNS_20StringStorageDefaultIcEEEERK9PrefValue
h9a:__ZN19ShaderPropertySheet20ReservePropertyCountEj
Tyj:__ZN6il2cpp5utils11StringUtils6PrintfEPKcz
Lkj:__ZNSt3__26vectorIN6il2cpp8metadata18GenericArrayMethodENS_9allocatorIS3_EEE7reserveEj
Jma:__ZN15NameToObjectMapI6ShaderNSt3__23mapI4PPtrIS0_EN4core12basic_stringIcNS5_20StringStorageDefaultIcEEEENS1_4lessIS4_EENS1_9allocatorINS1_4pairIKS4_S9_EEEEEENS1_8multimapIS9_S4_NSA_IS9_EENSC_INSD_IKS9_S4_EEEEEEE4FindERSK_
m2a:__ZN24GenerateTypeTreeTransfer21TransferResourceImageE19ActiveResourceImagePKcR13StreamingInfoPvjiPKN5Unity4TypeE
hqi:_Array_Sort_TisVector3_t3722313464_m1030213405_gshared
luj:__ZN6il2cpp2vm6Object5CloneEP12Il2CppObject
EGj:__ZN6il2cpp6icalls8mscorlib6System9Threading5Mutex20CreateMutex_internalEbP12Il2CppStringPb
sVj:_emscripten_glLinkProgram__wrapper
aog:_Coroutine_Finalize_m1957108547
hIi:_KeyBuilder_Key_m2503211157
PXa:__ZNSt3__212__deque_baseI18ReflectionProbeJobNS_9allocatorIS1_EEED2Ev
Kz:__ZN11UnityEngine9Animation27DestroyAnimationSetBindingsEPNS0_20AnimationSetBindingsERN7mecanim6memory9AllocatorE
sia:__ZN15dense_hashtableINSt3__24pairIKiN4core17string_with_labelILi1EEEEEi18SInt32HashFunctionN14dense_hash_mapIiS5_S7_NS0_8equal_toIiEE13stl_allocatorIS6_L18MemLabelIdentifier1ELi16EEE9SelectKeyESA_SD_E13set_empty_keyERKS6_
Qng:_Component_GetComponentInChildren_m388868270
Rgg:_GenericEqualityComparer_1_Equals_m1705889345_gshared
sE:__ZN8Animator12CleanupClassEv
lvc:__Z13TransferFieldI8JSONReadLb0E27Converter_SimpleNativeClassI10RectOffsetEEvRK23StaticTransferFieldInfoR31RuntimeSerializationCommandInfoRT1_
Zdf:_FtpWebRequest__cctor_m699542155
Nrj:__GLOBAL__sub_I_GenericMetadata_cpp
Ycf:_NameObjectCollectionBase_GetEnumerator_m3677320185
CVb:__Z24CalculateSpotLightBoundsffRK10Matrix4x4fR15SpotLightBounds
Z7f:_Dictionary_2_TryGetValue_m3495031886_gshared
GZa:__ZNK13RenderTexture21GetShadowSamplingModeEv
CR:__ZN23CloudWebServicesManager23VirtualRedirectTransferER14SafeBinaryRead
_bf:_PKCS12_AddCertificate_m3857004455
QEb:__Z19ShouldTransferFieldR32SerializationCommandQueueBuilder17ScriptingClassPtriR18TransferField_InfoRK20CoreScriptingClasses
Mrf:_SecurityElement_IsValidText_m1346599242
THa:__ZN26SinglePassStereoSupportExt21SetStereoMatrixCommonE21MonoOrStereoscopicEye24BuiltinShaderMatrixParamRK10Matrix4x4f
Vae:_ARC4Managed_TransformBlock_m1687647868
pyc:__ZL21InitializeCachedStripPv
q8f:_Dictionary_2_System_Collections_Generic_ICollectionU3CSystem_Collections_Generic_KeyValuePairU3CTKeyU2CTValueU3EU3E_Add_m3652125112_gshared
Zmj:__ZN6il2cpp6icalls8mscorlib6System9Threading6Thread23GetCachedCurrentCultureEP12Il2CppThread
oY:__ZNK6Camera22GetWorldToCameraMatrixEv
zNj:runPostSets
Buj:__ZN6il2cpp2vm12GenericClass11IsValueTypeEP18Il2CppGenericClass
LDb:__ZN13MonoBehaviour7SetNameEPKc
Dqe:_MethodDictionary_IsOverridenKey_m946843558
mNd:_FileStream_BeginRead_m2419864669
sSi:_U3CStartU3Ec__Iterator0_MoveNext_m4270440387_gshared
n2i:__ZN10KeyWrapperIN6il2cpp5utils13dynamic_arrayIPK10Il2CppTypeLj4EEEEC2ERKS7_
GIb:__ZN17InstancingBatcher22FindCBUpperBoundKonstsEv
c8:__GLOBAL__sub_I_runtime_shaders_shaderimpl_0_cpp
Kgb:__ZN18AwakeFromLoadQueue5ClearEv
KNd:_FileStream_SetLength_m99749826
dUb:__ZNSt3__27__sort5IR15ReflProbeSorterPP15ReflectionProbeEEjT0_S6_S6_S6_S6_T_
Bea:__ZN8Playable10DisconnectEPS_i
xk:_glGenTransformFeedbacks
hMa:__ZN13LoadOperationD2Ev
wGd:_Int16_System_IConvertible_ToType_m3672347013
$1f:_Type_GetProperty_m4206634422
wod:_AttrListImpl_GetValue_m3657391095
BHb:__Z21PlayerStartFirstSceneb
iDh:_List_1_CheckIndex_m3933537097_gshared
Y0a:__ZNSt3__27__sort5IRPFbRKNS_4pairIN9ShaderLab16FastPropertyNameEN18UnityPropertySheet11UnityTexEnvEEES8_EPS6_EEjT0_SD_SD_SD_SD_T_
hva:__ZNK7ApiGLES18GetExtensionStringEv
KCh:_List_1_System_Collections_IList_IndexOf_m2444653486_gshared
uTj:_emscripten_glVertexAttrib1f__wrapper
Qkb:__ZNK12HandlerChain4SizeERK13FileEntryData
cp:FUNCTION_TABLE_iiiiiiiii
Dfh:_ReadOnlyCollection_1_System_Collections_Generic_ICollectionU3CTU3E_Remove_m4177779688_gshared
Dvd:_Char_IsLetter_m3996985877
_Dh:_Queue_1_Peek_m2302800625_gshared
DBj:_GC_allochblk
Ugb:__Z15UnloadGameScenev
QTf:_Array_InternalArray__ICollection_CopyTo_TisKeyframe_t4206410242_m2132255743_gshared
aYj:_glCheckFramebufferStatus__wrapper
$ed:_Image__ctor_m2551076292
J6f:_Dictionary_2_System_Collections_ICollection_CopyTo_m3143696177_gshared
THg:__Z103RuntimeInvoker_Void_t1185182177_Int32_t2950945753_Int32_t2950945753_Int32_t2950945753_SByte_t1669577662PFvvEPK10MethodInfoPvPS4_
$kc:__Z36Renderer_Get_Custom_PropSortingOrderP12Il2CppObject
pcj:__ZNK15dense_hashtableINSt3__24pairIK10KeyWrapperIPK10Il2CppTypeEjEES6_N6il2cpp8metadata14Il2CppTypeHashEN14dense_hash_mapIS6_jSB_NS6_14EqualsComparerINSA_26Il2CppTypeEqualityComparerEEENS0_9allocatorIS8_EEE9SelectKeyESF_SH_E13find_positionERS7_
wZa:__ZN7Texture5ResetEv
Qtb:__Z18Transfer_BlittableI24GenerateTypeTreeTransferLb0E8Vector2fEvRK29SerializationCommandArgumentsR31RuntimeSerializationCommandInfo
Gne:_Context_get_HasDynamicSinks_m3952434387
cXf:_Latin1Encoding_GetByteCount_m1145650505
Ftb:__Z18Transfer_BlittableI24GenerateTypeTreeTransferLb1EhEvRK29SerializationCommandArgumentsR31RuntimeSerializationCommandInfo
Umc:__ZN8GUIState18CycleKeyboardFocusERNSt3__26vectorIP6IDListNS0_9allocatorIS3_EEEEb
zAb:__Z13TransferFieldI18StreamedBinaryReadILb1EELb0E16Converter_StringEvRK23StaticTransferFieldInfoR31RuntimeSerializationCommandInfoRT1_
nec:__ZNK16TypeTreeIterator10ByteOffsetEv
JOj:dynCall_iiifii
xda:__ZnwjRKSt9nothrow_t
UC:__ZN8Animator11ClearObjectEv
olh:_Nullable_1_GetHashCode_m4232053575_gshared
qpd:_ApplicationException__ctor_m2557611022
R$a:__ZN14SafeBinaryRead19TransferSTLStyleMapINSt3__23mapI39DeprecatedFastPropertyNameSerializationN18UnityPropertySheet11UnityTexEnvENS1_4lessIS3_EENS1_9allocatorINS1_4pairIKS3_S5_EEEEEEEEvRT_17TransferMetaFlags
pAh:_List_1_CheckMatch_m579516778_gshared
Btd:_Buffer_ByteLengthInternal_m1388208719
qTf:_Array_InternalArray__ICollection_CopyTo_TisInt64_t3736567304_m2845057751_gshared
iec:__Z35UnregisterSerializationCacheBuilderPFv17ScriptingClassPtrR23CachedSerializationDataRbE
OJd:_Int64_System_IConvertible_ToUInt32_m109903525_AdjustorThunk
f4:__Z30GetBuiltinVectorParamArraySize24BuiltinShaderVectorParam
WTf:_Array_InternalArray__ICollection_CopyTo_TisUICharInfo_t75501106_m4268526610_gshared
pZa:__ZN13RenderTextureC2E10MemLabelId18ObjectCreationMode
MGd:_Int32_GetFormatException_m519586683
MVh:__ZL46StringBuilder_t_CustomAttributesCacheGeneratorP21CustomAttributesCache
Pig:_Enumerator_MoveNext_m1131351993_gshared
kti:_Array_InternalArray__get_Item_TisVector2_t2156229523_m2502961026_gshared
F6:__ZN21RendererUpdateManager11AddRendererER8Renderer
O2b:__Z13RegisterClassI15ResourceManagerEvv
uNi:_AudioConfigurationChangeHandler_Invoke_m1233557945
wob:__Z35Transfer_Blittable_FixedBufferFieldI14SafeBinaryReadsEvRK29SerializationCommandArgumentsR31RuntimeSerializationCommandInfo
kab:__ZN14SafeBinaryRead21TransferSTLStyleArrayI13dynamic_arrayIfLj4EEEEvRT_17TransferMetaFlags
pDd:_Convert_ToDateTime_m3802186295
Uyj:__ZN6il2cpp5utils11StringUtils11Utf16ToUtf8EPKDs
tfb:__ZN18StreamedBinaryReadILb0EE21TransferSTLStyleArrayINSt3__26vectorIN15ResourceManager10DependencyE13stl_allocatorIS5_L18MemLabelIdentifier52ELi16EEEEEEvRT_17TransferMetaFlags
d5f:_UInt64_CompareTo_m1614517204_AdjustorThunk
fXc:__ZN11UnityEngine15PlatformWrapper20IsRootedOrJailbrokenEv
kLb:__ZZ23InitPlayerLoopCallbacksvEN52PreLateUpdateScriptRunBehaviourLateUpdateRegistrator7ForwardEv
xVb:__Z33IntersectAABBPlaneBoundsOptimizedRK4AABBPKN4math7_float4Ei
fqa:__ZN9GfxDevice19EndGeometryJobFrameEv
dGi:_GUILayoutUtility_Layout_m1159951704
eTe:_InputField_get_shouldActivateOnSelect_m3055465770
ztb:__ZN27Converter_SimpleNativeClassI17AnimationCurveTplIfEE17ScriptingToNativeER18ScriptingObjectPtrPS1_
f1f:_Type__cctor_m2371893800
pHj:__ZN6il2cpp8metadata24Il2CppGenericInstCompare7CompareERK10KeyWrapperIPK17Il2CppGenericInstES8_
Q0i:__ZNK15dense_hashtableINSt3__24pairIK10KeyWrapperIPK19Il2CppGenericMethodEPK26Il2CppGenericMethodIndicesEES6_N6il2cpp8metadata23Il2CppGenericMethodHashEN14dense_hash_mapIS6_SA_SE_NS6_14EqualsComparerINSD_26Il2CppGenericMethodCompareEEENS0_9allocatorISB_EEE9SelectKeyESI_SK_E5beginEv
X2c:_ExecuteEvents_Execute_m3049310229
Dt:__ZN27AnimationLayerMixerPlayable21UpdateLayerParametersEv
hw:__ZN7mecanim9animation16CopyMotionOutputEPKNS0_18AnimationNodeStateEPS1_bbRKNS_6bitsetILj83EEE
X0b:__ZNK17AnimationCurveTplIfE8EvaluateEfPNS0_5CacheE
oKb:__Z31ManagerContextInitializeClassesv
Mfh:_ReadOnlyCollection_1_System_Collections_IList_Contains_m2650112051_gshared
zLf:_Array_get_swapper_TisVector3_t3722313464_m1221246401_gshared
DGc:_UNITY_FT_List_Finalize
qPb:__Z20LightAttenuateApproxRKfS0_
v7:__ZN9Scripting30SetCachedPtrOnScriptingWrapperE18ScriptingObjectPtrP6Object
ylf:_RepeatContext_get_IsMinimum_m3640286252
Yue:_ObjectRecord_ChainFixup_m1889316362
SUa:__ZN18BlockRangeInternal16PopLastNodeIndexEP10BlockRangeji
nAj:__ZN6il2cpp2vm13CachedCCWBaseINS0_13ManagedObjectEE6AddRefEv
k6c:_TouchInputModule_UpdateModule_m2582897964
G9a:__ZN4MeshD0Ev
r0c:__ZL42RequestRecreateEyeTexturesBeforeNextUpdatev
NEa:__ZNK6Camera20IsCurrentlyRenderingEv
qv:__ZN21AnimationClipPlayable23ProcessRootMotionNoClipEPK35AnimationPlayableEvaluationConstantPK32AnimationPlayableEvaluationInputP33AnimationPlayableEvaluationOutput
hSc:__Z36CanvasRenderer_CUSTOM_SetPopMaterialP12Il2CppObjectS0_i
Orc:__Z18Transfer_BlittableI9JSONWriteLb0EdEvRK29SerializationCommandArgumentsR31RuntimeSerializationCommandInfo
dDc:_otv_u_O_O_u_O_O
LSa:__ZN6Camera8TransferI19StreamedBinaryWriteILb0EEEEvRT_
tBf:_DBNull_System_IConvertible_ToSByte_m3533624679
FJj:_wctomb
tvd:_Char_CompareTo_m42489266
R$g:__Z67RuntimeInvoker_Void_t1185182177_Int32_t2950945753_Double_t594665363PFvvEPK10MethodInfoPvPS4_
qfc:__Z27Camera_CUSTOM_GetAllCamerasP11Il2CppArray
Zc:___cxa_rethrow
S5d:_ParameterInfo_GetCustomAttributes_m2376494592
rtc:__Z18Transfer_BlittableI8JSONReadLb1EhEvRK29SerializationCommandArgumentsR31RuntimeSerializationCommandInfo
ldd:_Graphic_get_canvasRenderer_m315509948
J5g:_Collection_1_System_Collections_IList_Contains_m3397768605_gshared
kTg:__Z90RuntimeInvoker_Void_t1185182177_Int64_t3736567304_Int32_t2950945753_RuntimeObject_IntPtr_tPFvvEPK10MethodInfoPvPS4_
BTj:_glBindRenderbuffer__wrapper
lJf:_CultureInfo_construct_internal_locale_from_name_m3254739477
Oie:_RSASslSignatureDeformatter_VerifySignature_m1061897602
zaf:_RSAManaged_remove_KeyGenerated_m2046909903
rld:_RandomNumberGenerator_Create_m4162970280
BUf:_Array_InternalArray__Insert_TisLabelFixup_t858502054_m171542753_gshared
NGe:_InternalEnumerator_1_System_Collections_IEnumerator_get_Current_m3539708496_AdjustorThunk
Elb:__ZN20LocalFileSystemPosix4ReadER13FileEntryDatayyPvPy
OSb:__ZNSt3__211__sift_downIRN23ForwardShaderRenderLoop18RenderObjectSorterILb0EEEP21ForwardRenderPassDataEEvT0_S7_T_NS_15iterator_traitsIS7_E15difference_typeES7_
xqf:_SecurityPermission__ctor_m1462427327
ZPj:dynCall_iiiiiiffiiiiiiiiiffffiiii
$Db:__ZN13MonoBehaviour5DoGUIENS_13GUILayoutTypeEii
ule:_ChannelData_get_ClientProviders_m594662942
JAi:_QuickSearch_GetChar_m1297698557
ZKa:__ZNK12TLSAllocatorI14StackAllocatorE8ContainsEPKv
Tcb:__ZN11TimeManager8TransferI18StreamedBinaryReadILb0EEEEvRT_
jEg:__Z68RuntimeInvoker_Boolean_t97287965_Int16_t2552820387_SByte_t1669577662PFvvEPK10MethodInfoPvPS4_
Szf:_DateTime__ParseEnum_m253019513
uFd:_Convert_ToUInt32_m2194577773
U6:__ZN15dense_hashtableINSt3__24pairIKyP17VertexDeclarationEEy14GfxGenericHashIyEN14GfxDoubleCacheIyS4_S7_NS0_8equal_toIyEEN31GfxDoubleCacheConcurrencyPolicy11LocklessGetE42GfxDoubleCacheDefaultEmptyDeletedGeneratorIyEE9SelectKeyESA_13stl_allocatorIS5_L18MemLabelIdentifier24ELi16EEE12resize_deltaEjj
uAd:_Hashtable_Remove_m4032631466
wuc:__Z18Transfer_BlittableI8JSONReadLb1EyEvRK29SerializationCommandArgumentsR31RuntimeSerializationCommandInfo
_1a:__ZN7Texture25ReloadFromStorageIfNeededEPvb
EQf:_Array_InternalArray__IndexOf_TisBoolean_t97287965_m1161209222_gshared
gGj:__ZN6il2cpp2os12Cryptography24OpenCryptographyProviderEv
$xd:_SynchronizedArrayListWrapper_Clear_m2191301493
FHc:_Update_Max
lmj:__ZN6il2cpp6icalls8mscorlib6SystemL15ThrowNoWideningEv
g1b:__ZNK23TransformChangeDispatch24GetChangeMaskForInterestENS_12InterestTypeE
I8b:__ZN8Playable5PauseEv
bkc:__Z45Transform_CUSTOM_INTERNAL_CALL_TransformPointP12Il2CppObjectRK8Vector3fRS1_
l$d:_GenericTypeParameterBuilder_InvokeMember_m1647304778
Yed:_HorizontalOrVerticalLayoutGroup_set_childControlWidth_m3261460516
g0a:__ZNSt3__26__treeINS_12__value_typeI39DeprecatedFastPropertyNameSerializationfEENS_19__map_value_compareIS2_S3_NS_4lessIS2_EELb1EEENS_9allocatorIS3_EEE7destroyEPNS_11__tree_nodeIS3_PvEE
zFc:_tt_cmap4_char_index
T6c:_AspectRatioFitter_GetParentSize_m3159144324
Hsf:_SecurityFrame_get_Assembly_m2874566710
zDh:_Enumerator_System_Collections_IEnumerator_Reset_m1487823313_gshared
_kb:__ZNK12HandlerChain8IsHiddenERK13FileEntryData
Psb:__ZL26Transfer_SimpleNativeClassI17RemapPPtrTransfer10RectOffsetLb0EEvRK29SerializationCommandArgumentsR31RuntimeSerializationCommandInfo
zMc:__Z14ValidateFormatR13dynamic_arrayIN20TextRenderingPrivate16TextFormatChangeELj4EE
lJd:_Int32_ToString_m2507389746_AdjustorThunk
CDf:_Decimal_op_Explicit_m438967917
mXi:_AnimatorControllerPlayable_SetHandle_m2260644454_AdjustorThunk
Mja:__ZNSt3__26vectorIN9ShaderLab20SerializedSubProgram13BufferBindingENS_9allocatorIS3_EEEC2ERKS6_
RTe:_InputField_set_selectionColor_m2084640295
b4:__ZNK9ShaderLab20ShaderBlendStateDesc15ToGfxBlendStateEPK19ShaderPropertySheetS3_R13GfxBlendState
GMe:_Enumerator_System_Collections_IEnumerator_get_Current_m1747693366_AdjustorThunk
oz:__ZN11UnityEngine9AnimationL22GenericBindingCallbackEPvS1_i
kHc:_Compute_Point_Displacement
loa:__ZN9ShaderLab9IntShaderC2Ev
B7i:__ZN6il2cpp6icalls8mscorlib6SystemL9IsPrivateEPK9EventInfo
ZFj:__ZN6il2cpp6icalls8mscorlib6System10Reflection4Emit11TypeBuilder20setup_internal_classEP27Il2CppReflectionTypeBuilderS7_
Zac:__Z18TransformPoints3x4RK10Matrix4x4fPK8Vector3fjPS2_ji
bRf:_Array_InternalArray__IndexOf_TisILTokenInfo_t2325775114_m2602704009_gshared
TXf:_StringBuilder_AppendFormat_m3255666490
CVd:_OverflowException__ctor_m4029085969
a2d:_TypeBuilder_GetGenericArguments_m2872156836
bZi:__ZN13Il2CppHashMapIPK22Il2CppGenericParameterP11Il2CppClassN6il2cpp5utils11PointerHashIS1_EENSt3__28equal_toIS2_EENS9_9allocatorINS9_4pairIK10KeyWrapperIS2_ES4_EEEEEC2EjRKS8_RKSB_
O9e:_KeyPairPersistence_Remove_m1876145547
HMa:__Z15CreateDirectoryRKN4core12basic_stringIcNS_20StringStorageDefaultIcEEEE
EYa:__Z21CalculateGlobalMatrix23TransformAccessReadOnly
b2d:_TypeBuilder_GetGenericTypeDefinition_m1632720438
OLf:_Array_InternalArray__ICollection_Contains_TisLink_t544317964_m163190451_gshared
JAf:_DateTimeOffset_System_IComparable_CompareTo_m176229495_AdjustorThunk
isg:_ManagedStreamHelpers_ValidateLoadFromStream_m580138133
Ycb:__ZNK13BuildSettings22GetTypeVirtualInternalEv
YWh:__ZL56AppDomainSetup_t123196401_CustomAttributesCacheGeneratorP21CustomAttributesCache
qBh:_List_1_CheckIndex_m2250397830_gshared
M2b:__Z13RegisterClassI14RenderSettingsEvv
z:tempBigIntI
Xlf:_Interval_get_Empty_m3617514670
iWd:_Assembly_GetName_m981771927
Fx:__ZN7mecanim12statemachine24CreateStateMachineOutputEPKNS0_20StateMachineConstantEjRNS_6memory9AllocatorE
zuj:__ZN6il2cpp2vm12GenericClass8GetClassEP18Il2CppGenericClass
Gqa:__ZNK9GfxDevice27GetActiveRenderSurfaceWidthEv
Ufi:__ZL114StandaloneInputModule_t2760469101_CustomAttributesCacheGenerator_StandaloneInputModule_ForceAutoSelect_m2837047882P21CustomAttributesCache
SWc:__ZN11UnityEngine15PlatformWrapper28GetCleanGraphicsFixedVersionEv
qZe:_MaskableGraphic_RecalculateClipping_m1772937317
yRd:_UnmanagedMemoryStream_SetLength_m3752964620
xaj:__ZN6il2cpp2vm4Type7GetTypeEPK10Il2CppType
KLc:_open_face_PS_from_sfnt_stream
HBe:_InternalEnumerator_1_get_Current_m165106323_AdjustorThunk
DYf:_UTF32Encoding_GetByteCount_m3610769032
zAa:__ZN6prcoreL17RemapGenericFloatI18TexFormatRGBAFloat17TexFormatRGBAHalfEEvPKNS_9InnerInfoE
OLb:__Z16FindCameraStacksRKNSt3__24listI4PPtrI6CameraENS_9allocatorIS3_EEEERNS_6vectorI11CameraStackNS4_ISA_EEEE
Bzi:_MatchCollection_CopyTo_m3807326147
x4a:__ZN10GISettings8TransferI14SafeBinaryReadEEvRT_
xn:FUNCTION_TABLE_vifff
bki:__ZL54Text_t1901882714_CustomAttributesCacheGenerator_m_TextP21CustomAttributesCache
gld:_MD5CryptoServiceProvider__ctor_m3271163125
jZb:__ZN19CustomRenderTexture12ClearGPUDataEv
FZa:__ZN13RenderTexture13ApplySettingsEv
Zte:_ObjectReader_RegisterObject_m1853376334
O0d:_ModuleBuilderTokenGenerator_GetToken_m2588853565
Msd:_Boolean_System_IConvertible_ToDecimal_m3176932461_AdjustorThunk
Xe:_JS_Sound_SetListenerPosition
pn:FUNCTION_TABLE_fiffi
b1e:_ScrollRect_OnInitializePotentialDrag_m3139711961
Gfh:_ReadOnlyCollection_1_System_Collections_Generic_IListU3CTU3E_set_Item_m711370667_gshared
iXd:_Default_check_arguments_with_score_m3467814020
bWj:_glGetActiveUniform__wrapper
aQd:_StreamWriter_LowLevelWrite_m1081676583
Xda:__ZZN15DirectorManager15InitializeClassEvEN45FixedUpdateDirectorFixedSampleTimeRegistrator7ForwardEv
Qib:__ZNK8Material16MarkDependenciesER27GarbageCollectorThreadState
A2e:_Slider_set_handleRect_m1101657556
XAf:_DateTimeOffset_ToString_m3985341516_AdjustorThunk
Rrc:__ZL17Transfer_GUIStyleI9JSONWriteLb0EEvRK29SerializationCommandArgumentsR31RuntimeSerializationCommandInfo
iQb:__Z28GetHaloVertexPositionsStereoP8Vector3fRKS_S2_f
oBa:__ZN6prcoreL27StretchGenericFloatBilinearI15TexFormatRGHalfEEvPKNS_9InnerInfoE
_7:__GLOBAL__sub_I_runtime_misc_0_cpp
tKf:_SortKey_GetHashCode_m3547067087
eBb:__Z18Transfer_BlittableI18StreamedBinaryReadILb0EELb1E9BoundsIntEvRK29SerializationCommandArgumentsR31RuntimeSerializationCommandInfo
Zji:__ZL71SpriteState_t1362986479_CustomAttributesCacheGenerator_m_DisabledSpriteP21CustomAttributesCache
Sgf:_PublicKey_DecodeDSA_m3490622362
Fic:__Z49Register_UnityEngine_Resources_GetBuiltinResourcev
X1f:_Type_GetMethod_m1479779718
mFc:_tt_cmap10_char_index
Lui:_TlsException__ctor_m3242533711
Bae:_BitConverterLE_GetUIntBytes_m795219058
sBd:_SortedList__ctor_m3676552745
FZi:__ZN15dense_hashtableINSt3__24pairIK10KeyWrapperIPK22Il2CppGenericParameterEP11Il2CppClassEES6_N6il2cpp5utils11PointerHashIS4_EEN14dense_hash_mapIS6_S9_SE_NS6_14EqualsComparerINS0_8equal_toIS5_EEEENS0_9allocatorISA_EEE9SelectKeyESJ_SL_E3endEv
lqb:__Z35Transfer_Blittable_SingleValueFieldI14SafeBinaryReadjEvRT_R17GeneralMonoObjectRK23StaticTransferFieldInfo
WP:__ZN11AudioSource24ClearExtensionPropertiesE12PropertyName
Sla:__ZN9ShaderLab22SerializedBindChannels8TransferI19StreamedBinaryWriteILb0EEEEvRT_
$qb:__ZN15SerializeTraitsI5RectTIiEE8TransferI14SafeBinaryReadEEvRS1_RT_
wnc:__ZN5IMGUI20MoveWindowFromLayoutER8GUIStateiRK5RectTIfE
SBc:_UNITY_FT_Stream_ReadUShort
hhc:__Z51Register_UnityEngine_GUILayer_INTERNAL_CALL_HitTestv
Xha:__ZNSt3__26__treeINS_12__value_typeIN4core12basic_stringIcNS2_20StringStorageDefaultIcEEEES6_EENS_19__map_value_compareIS6_S7_NS_4lessIS6_EELb1EEE13stl_allocatorIS7_L18MemLabelIdentifier1ELi16EEE7destroyEPNS_11__tree_nodeIS7_PvEE
Y_f:_Thread_get_ManagedThreadId_m1068113671
owa:__Z13IsDepthFormat14GraphicsFormat
jeb:__ZN12AspectRatios8TransferI24GenerateTypeTreeTransferEEvRT_
rTd:_MonoType_GetFields_m4176012508
Pxc:__Z12FormatBufferPciPKcz
yxf:_CurrentSystemTimeZone_GetTimeZoneData_m2641861607
_dg:_EqualityComparer_1_System_Collections_IEqualityComparer_GetHashCode_m3423304513_gshared
SZi:__ZN6il2cpp2vm5Class13GetArrayClassEP11Il2CppClassj
E5c:_StandaloneInputModule_set_inputActionsPerSecond_m4057208843
NHb:__ZN19RuntimeSceneManager18LoadSceneAsyncIntoER10UnitySceneRKN4core12basic_stringIcNS2_20StringStorageDefaultIcEEEENS_11LoadingModeEb
krc:__Z35Transfer_Blittable_FixedBufferFieldI9JSONWritetEvRK29SerializationCommandArgumentsR31RuntimeSerializationCommandInfo
Dnc:__ZN11IMGUIModule12AddGUIScriptER8ListNodeI13MonoBehaviourE
pb:invoke_difi
aGi:_GUILayoutUtility_BeginWindow_m2240221150
$Tj:_glDeleteSamplers__wrapper
lcf:_HybridDictionary_set_Item_m2997363718
dMa:__ZNSt3__26__treeIiNS_4lessIiEE13stl_allocatorIiL18MemLabelIdentifier1ELi16EEE7destroyEPNS_11__tree_nodeIiPvEE
jHe:_InternalEnumerator_1_get_Current_m1477715453_AdjustorThunk
X4f:_UInt64_System_IConvertible_ToUInt32_m2784653358
Vva:__ZN21GLESGpuProgramApplier11ApplyVectorERKN20GpuProgramParameters14ValueParameterEPK8Vector4ft
TUb:__Z17PrepareSceneNodesP11CullResults
Ahd:_SByte_System_IConvertible_ToDecimal_m2548745278
Syc:_cff_size_done
sVb:__ZN29ExtractProjectionPlanesHelperILb1EE5ApplyERK10Matrix4x4fP5Plane
r7b:__ZN13ProduceHelperI7CubemapLb0EE7ProduceE10MemLabelId18ObjectCreationMode
BZb:__ZN6Camera34UpdatePreviousViewProjectionMatrixEv
Mma:__ZN9ShaderLab11ShaderState25RemoveUnsupportedProgramsEPK6Shader
xNc:__Z28Font_Get_Custom_PropMaterialP12Il2CppObject
Dsg:_Mathf_Abs_m3281243566
BQd:_SynchronizedWriter_WriteLine_m1552352268
bcc:__Z26scripting_class_has_parent17ScriptingClassPtrS_
Zba:__ZN13RuntimeStaticI21AssetReferenceStorageLb0EE16StaticInitializeEPv
rId:_Int32_System_IConvertible_ToByte_m3832391412_AdjustorThunk
GQ:__Z71Register_UnityEngine_AudioSource_INTERNAL_CALL_ClearExtensionPropertiesv
EC:__ZNK8Animator20IsInMatchTargetStateEv
tDe:_InternalEnumerator_1_System_Collections_IEnumerator_get_Current_m4088805473_gshared
ioc:__Z36Register_UnityEngine_GUI_set_changedv
Pne:_Context_GetServerContextSinkChain_m3154465897
UGi:_GUIStyle_get_fixedHeight_m2868324709
xEd:_Convert_ToInt64_m2075293963
zGj:__GLOBAL__sub_I_Il2CppCodeRegistration_cpp
ax:__ZN27AnimationLayerMixerPlayable18SetInputConnectionEP8Playablei
Lw:__ZN7mecanim28TransformValueArrayBlendNodeEiiiRKNS_10ValueArrayERKNS_14ValueArrayMaskERS0_RS3_RNS_16ValueArrayWeightEf
erh:_List_1_GetIndex_m3112872964_gshared
nbd:_Dropdown_set_value_m1048320169
IYi:_CustomEventData_Finalize_m1724721833
HVa:__ZN20TierGraphicsSettings8TransferI18StreamedBinaryReadILb0EEEEvRT_
QId:_Int32_System_IConvertible_ToUInt64_m2502338186_AdjustorThunk
Gfa:__Z33CleanupCubemapGPUUtilityMaterialsPv
Y$a:__ZN14SafeBinaryRead8TransferINSt3__24pairIN9ShaderLab16FastPropertyNameE10ColorRGBAfEEEEvRT_PKc17TransferMetaFlags
IXi:__ZL9rshift128PyS_
gkg:_Enumerator_VerifyState_m169680537_AdjustorThunk
shj:__ZN14dense_hash_mapI10KeyWrapperINSt3__24pairIPK12PropertyInfoP11Il2CppClassEEEj17ReflectionMapHashIS8_ENS9_14EqualsComparerINS1_8equal_toIS8_EEEENS1_9allocatorINS2_IKS9_jEEEEE13set_empty_keyERSH_
ik:_glRenderbufferStorage
Nhc:__Z45Register_UnityEngine_Input_get_touchSupportedv
WWc:__ZN11UnityEngine15PlatformWrapper28GetTextureFormatSupportFlagsEv
WL:__ZN11AudioSource23VirtualRedirectTransferER19StreamedBinaryWriteILb0EE
t_b:__ZNSt3__26vectorINS_4pairIN4core12basic_stringIcNS2_20StringStorageDefaultIcEEEES6_EE13stl_allocatorIS7_L18MemLabelIdentifier38ELi16EEE26__swap_out_circular_bufferERNS_14__split_bufferIS7_RSA_EEPS7_
cEi:_Uri_EscapeString_m3864445955
Fzc:_cf2_setError
X9a:__ZN14SafeBinaryRead21TransferSTLStyleArrayI13dynamic_arrayI12BoneWeights4Lj16EEEEvRT_17TransferMetaFlags
DKe:_Enumerator_MoveNext_m465222849_AdjustorThunk
LKb:__ZZ23InitPlayerLoopCallbacksvEN35PreUpdateSendMouseEventsRegistrator7ForwardEv
PEa:__ZNK6Camera25GetNormalizedViewportRectEP13RenderTextureb
obd:_Dropdown_Awake_m3140021404
bh:_glDisable
a_a:__ZN13RenderTexture8TransferI24GenerateTypeTreeTransferEEvRT_
nCg:_Vector2_get_sqrMagnitude_m837837635
nzj:__ZN6il2cpp5utils11StringUtils15StringDuplicateEPKDsj
wE:__ZZN8Animator15InitializeClassEvEN37FunctorImpl_417kDidModifyOverrideClip4CallEPviR11MessageData
SBi:_Regex_Match_m4145799399
Jv:__ZN17AnimationPlayable17ProcessRootMotionEP35AnimationPlayableEvaluationConstantP32AnimationPlayableEvaluationInputP33AnimationPlayableEvaluationOutput
mvf:_String_IsNullOrEmpty_m2969720369
kUi:_TextGenerator_GetPreferredHeight_m3514897836
N6e:_BigInteger_LowestSetBit_m3082714978
MYj:b118
NYj:b119
JLb:__ZNK8Material12GetPassCountEv
Bnf:_RSAParameters_t1728406613_marshal_pinvoke
emf:_Interval_IsDisjoint_m1532171337_AdjustorThunk
GYj:b112
DNj:_bitshift64Ashr
IYj:b114
JYj:b115
KYj:b116
LYj:b117
$Oj:dynCall_diii
qYe:_LayoutUtility_GetFlexibleWidth_m22831835
Jte:_BinaryFormatter__ctor_m971003555
xwe:_ArrayReadOnlyList_1_ReadOnlyError_m865416608_gshared
izd:_CollectionBase_System_Collections_IList_get_Item_m3743372945
NYi:_CustomEventData_Add_m3993893123
Oxa:__ZN4crnd12crn_unpacker22decode_alpha_endpointsEv
TDh:_Queue_1__ctor_m2068090025_gshared
ZVb:__Z23CullDynamicObjectsUmbraPK4AABBPKN5Umbra15OcclusionBufferER9IndexList
AFc:_tt_cmap4_char_next
g_:__ZN4core8hash_mapIi17ThreadedAwakeDataNS_4hashIiEENSt3__28equal_toIiEEE4growEi
WEg:__Z50RuntimeInvoker_Boolean_t97287965_Int16_t2552820387PFvvEPK10MethodInfoPvPS4_
GDd:_Convert_ToDecimal_m1233667008
f_:__ZN4core8hash_mapIi17ThreadedAwakeDataNS_4hashIiEENSt3__28equal_toIiEEE4growEv
E7:__GLOBAL__sub_I_runtime_assetbundles_1_cpp
OI:__ZN4FMOD7Channel11setPositionEjj
Vh:_glBindSampler
ICj:_GC_reclaim_block
Sde:_ClientContext_get_ClientHelloProtocol_m1654639078
Zh:_glGetVertexAttribiv
$Qe:_Enumerator_System_Collections_IEnumerator_get_Current_m1975949486_gshared
iAi:_PatternCompiler_EmitSub_m193323684
ROc:__ZN2UI11CanvasGroup23VirtualRedirectTransferER18StreamedBinaryReadILb0EE
pJd:_Int64_System_IConvertible_ToByte_m375085029
Wuc:__ZN8JSONRead8TransferIbEEvRT_PKc17TransferMetaFlagsb
N0f:_TimeSpan_ToString_m1128692466
SIi:_AesManaged_CreateEncryptor_m2294080233
IFi:_Event_GetHashCode_m3559153592
zma:__ZN9ShaderLab9SubShaderD2Ev
lBj:_GC_promote_black_lists
oDd:_Convert_ToChar_m3757390865
Kvc:__Z29Transfer_Blittable_ArrayFieldI8JSONRead8Vector4fEvRT_R9ArrayInfoRK23StaticTransferFieldInfo
Xn:FUNCTION_TABLE_vf
WWd:_Binder_GetDerivedLevel_m3216810447
vo:FUNCTION_TABLE_vd
Y8:__ZN13RuntimeStaticI37UnityShaderCompilerExtPluginConfigureLb0EE16StaticInitializeEPv
pYc:__ZN11UnityEngine7Connect17DeviceStatusEvent20SetDeviceAspectRatioEf
UXf:_StringBuilder_AppendFormat_m2403596038
Ujd:_DSASignatureDeformatter_SetHashAlgorithm_m3186995552
ndh:_ReadOnlyCollection_1_System_Collections_Generic_ICollectionU3CTU3E_Clear_m2772202961_gshared
Zsc:__ZN9JSONWrite8TransferI13dynamic_arrayI4AABBLj4EEEEvRT_PKc17TransferMetaFlags
XE:__ZNK8Animator17HasBoundPlayablesEv
l7d:_ResourceSet_ReadResources_m3663669011
v_f:_SynchronizationContext_SetSynchronizationContext_m1249070039
dBh:_List_1_AddEnumerable_m1267044261_gshared
_Ec:_tt_cmap13_char_index
T7i:__ZN6il2cpp2vm7Runtime9SetConfigEPKc
Lpc:__ZN5Unity9rapidjson12PrettyWriterI16TempBufferWriterNS0_4UTF8IcEES4_13JSONAllocatorE10StartArrayEv
ta:invoke_iiifiii
syg:_RectTransform_INTERNAL_get_pivot_m2970933031
aoh:_UnityAction_1_Invoke_m927447181_gshared
joj:__ZN6il2cpp2vm9Exception11FromNameMsgEPK11Il2CppImagePKcS6_S6_
fn:FUNCTION_TABLE_fiiifii
_ea:__Z14GetTimeManagerv
Ing:_Color32_op_Implicit_m213813866
Uxg:_RectOffset_set_top_m713260669
K_c:__ZN19TransportJavaScript7CleanupEv
OPa:__Z12GUIDToStringRK9UnityGUIDPc
Xba:__ZN15FileSystemEntry4LockE12FileLockModeP12FileAccessor
KXj:_emscripten_glDrawArrays__wrapper
D7i:__ZN6il2cpp6icalls8mscorlib6SystemL16CheckMemberMatchI9EventInfoNS_5utils10functional6FilterINSt3__212basic_stringIcNS8_11char_traitsIcEENS8_9allocatorIcEEEENS5_13VmStringUtils23CaseInsensitiveComparerEEEEEbPKT_PK11Il2CppClassSN_iRKT0_
ZId:_Int32_Equals_m2976157357
VRg:__Z110RuntimeInvoker_Int32_t2950945753_Int32_t2950945753_Int32_t2950945753_Int32U26_t1369213839_Int32U26_t1369213839PFvvEPK10MethodInfoPvPS4_
lM:__ZN11AudioSource22UnmuteActiveVideoSinksEv
Jui:_TlsException__ctor_m3717683709
kzj:__ZN4utf88internal20is_overlong_sequenceIiEEbjT_
O1i:__ZN6il2cpp2vm13MetadataCache8RegisterEPK22Il2CppCodeRegistrationPK26Il2CppMetadataRegistrationPK20Il2CppCodeGenOptions
sRa:__Z9SetLocalR15TransformAccessRKN4math7_float4Ey
WRb:__Z30SetupBakedOcclusionForGeometrybRK26SharedLightmapSettingsDataRK15LightmapIndicesR17ShaderPassContext
Vfc:__Z41Register_UnityEngine_Cursor_get_lockStatev
sRb:__Z14SetupLightmapsRK8Vector4fS1_R17ShaderPassContext
Sfj:__ZN14dense_hash_mapI10KeyWrapperIPK14Il2CppAssemblyEPK22Il2CppMonoAssemblyNameN6il2cpp5utils11PointerHashIS2_EENS4_14EqualsComparerINSt3__28equal_toIS3_EEEENSD_9allocatorINSD_4pairIKS4_S7_EEEEE13set_empty_keyERSJ_
V_a:__ZL20InitializeGUIShadersv
SKf:_Guid_CompareTo_m243656946
q1b:__Z20DestroyObjectDelayedP6Objectf
GW:__ZN20DynamicHeapAllocatorI17LowLevelAllocatorED0Ev
o4b:__ZN11TimeManagerC2E10MemLabelId18ObjectCreationMode
QOb:__ZN9DepthPassD2Ev
GH:__ZN11AudioFilter6GetDSPEv
Anf:_RSACryptoServiceProvider_OnKeyGenerated_m863837376
v$e:_Scrollbar_OnDrag_m4289602768
Kaa:__ZN19RuntimeSceneManager14CanUnloadSceneEP10UnityScene
SOb:__Z22ExtractRenderNodeQueueRK11CullResults15ExtractionFlagsR15RenderNodeQueue
LG:__ZN24AudioScriptBufferManagerC2Ev
Swc:__ZN11UnityEngine9Analytics18SceneLoadTimeEvent12ToJsonStringER9JSONWrite
jLc:__ZNSt3__26vectorIh13stl_allocatorIhL18MemLabelIdentifier1ELi16EEE8__appendEj
nFe:_InternalEnumerator_1_System_Collections_IEnumerator_get_Current_m3854084659_AdjustorThunk
hTe:_OnValidateInput_Invoke_m1009124904
Ave:_U3CGetEnumeratorU3Ec__Iterator0_System_Collections_IEnumerator_get_Current_m283764921_gshared
lLc:__ZN20TextRenderingPrivate8FontImpl16ResetPackingDataEv
VHf:_CultureInfo_get_IcuName_m2258611679
Jqc:__Z18Transfer_BlittableI9JSONWriteLb0EfEvRK29SerializationCommandArgumentsR31RuntimeSerializationCommandInfo
$wa:__Z21GetAsyncUploadManagerv
Mj:_emscripten_glDetachShader
lYi:_CustomEventData_Add_m2564314129
Hyg:_Vector2_op_Subtraction_m73004381
Pwa:__ZN17GenericDynamicVBO20ReleaseChunkInternalERK21DynamicVBOChunkHandlejj
wNc:__ZL27CleanupModule_TextRenderingv
eKj:_fmodl
Yaf:_SymmetricTransform_OFB_m3842617151
SHb:__ZN19RuntimeSceneManager11CreateSceneEv
lng:_Color__ctor_m286683560
Rzi:_PatternCompiler_Emit_m1540115729
KDc:_ps_get_standard_strings
VRb:__Z27SetupBakedOcclusionForLightbRK15SharedLightDataR17ShaderPassContext
QGj:__ZN6il2cpp2os5Mutex6UnlockEv
FVf:_EncoderFallbackException__ctor_m1051987327
V6e:_BigInteger_ToString_m3278248272
$Bf:_Decimal_System_IConvertible_ToBoolean_m1123794670
TZg:__Z98RuntimeInvoker_Int32_t2950945753_RaycastResult_t3360306849_RaycastResult_t3360306849_RuntimeObjectPFvvEPK10MethodInfoPvPS4_
$aa:__Z17CommitBatchDeleteR11BatchDelete
BYe:_Mask__ctor_m1269055150
NWh:__ZL99WaitHandle_t1743403487_CustomAttributesCacheGenerator_WaitHandle_t1743403487____Handle_PropertyInfoP21CustomAttributesCache
Rff:_WebRequest_AddPrefix_m3187775913
mMb:__Z18RenderImageFiltersR10RenderLoopb
dSc:__Z43CanvasRenderer_Get_Custom_PropMaterialCountP12Il2CppObject
eSb:__ZNSt3__227__insertion_sort_incompleteIR23CompareReflectionProbesP31RuntimeReflectionProbeBlendInfoEEbT0_S5_T_
Jxh:_List_1_Remove_m1457733883_gshared
dwc:__ZN8JSONRead21TransferSTLStyleArrayI13dynamic_arrayI11QuaternionfLj4EEEEvRT_17TransferMetaFlags
K3d:_MonoEventInfo_GetEventInfo_m873645389
xbe:_MD4Managed_Encode_m386285215
oca:__ZN10InputEventD2Ev
R$c:__ZN22UnityWebRequestManagerD2Ev
wFi:_Event_get_character_m1666742088
LJj:_isalpha
kDd:_Convert_ToChar_m1442101407
Hje:_SslClientStream_OnLocalPrivateKeySelection_m1934775249
ZAf:_DateTimeOffset_get_Offset_m2040541042_AdjustorThunk
P5i:__ZN6il2cpp2vmL17IsSocketAsyncCallEP14Il2CppDelegate
XAd:_Slot_t3975888750_marshal_pinvoke_back
Kyj:__ZN6il2cpp2vm6String6NewLenEPKcj
g5:__Z25GetBuiltinTexEnvParamNamei
MFb:__ZN17PersistentManager9AddStreamEv
bl:_time
v9c:_ContentSizeFitter_set_verticalFit_m1831566876
Ypf:_TripleDESCryptoServiceProvider_CreateDecryptor_m740960117
YVg:__Z122RuntimeInvoker_Void_t1185182177_Color_t2555686324_Single_t1397266774_SByte_t1669577662_SByte_t1669577662_SByte_t1669577662PFvvEPK10MethodInfoPvPS4_
vsg:_Material_EnableKeyword_m329692301
sAc:_cf2_stack_free
Uof:_SHA512Managed_HashCore_m2377807474
ZJd:_Int64_Parse_m3309897583
AIf:_CompareInfo_IndexOf_m667936183
xv:__ZN7mecanim9animation19EvaluateFloatValuesEPKNS0_18ClipMuscleConstantEPKNS_18ValueArrayConstantEPKNS0_12ClipBindingsEPKNS0_10ClipOutputEPNS0_18AnimationNodeStateEfbb
iD:__ZN8Animator31ClearInternalControllerPlayableEv
_Ha:__ZN26SinglePassStereoSupportExt18AfterSetViewMatrixEv
Zlg:_Bounds__ctor_m1937678907_AdjustorThunk
Lzg:_SetupCoroutine_InvokeMember_m2661944898
rhg:_HashSet_1__ctor_m620629637_gshared
sgf:_X509EnhancedKeyUsageExtension_ToString_m350388564
Ebj:__ZN15dense_hashtableINSt3__24pairIK10KeyWrapperINS1_IPK9FieldInfoP11Il2CppClassEEEjEES9_17ReflectionMapHashIS8_EN14dense_hash_mapIS9_jSD_NS9_14EqualsComparerINS0_8equal_toIS8_EEEENS0_9allocatorISB_EEE9SelectKeyESI_SK_E4findERSA_
Oxd:_SimpleEnumerator_MoveNext_m3113120129
RHb:__ZN13LoadOperationC2E10MemLabelId
jTe:_InputField_SendOnValueChanged_m2560301445
AXb:__ZN13RenderTexture19SetAutoGenerateMipsEb
vya:__Z20GetTextureFormatInfo13TextureFormat
rYi:_CustomEventData_AddByte_m3440715081
Ddf:_TypeConverterAttribute_Equals_m1580461255
Bce:_RSAManaged_ToXmlString_m2369501989
iy:__ZN26AnimatorControllerPlayable8GetFloatEiRf
kyf:_DateTime_System_IConvertible_ToSingle_m2193708681_AdjustorThunk
dmf:_Interval_get_Size_m4163671410_AdjustorThunk
hPc:__ZN2UI14CanvasRenderer13AwakeFromLoadE17AwakeFromLoadMode
lIh:__ZL64String_t_CustomAttributesCacheGenerator_String_Split_m3580120853P21CustomAttributesCache
Lqf:_String_memcpy4_m979367827
gFj:__ZN6il2cpp5utils10MemoryPool6MallocEj
dG:__ZN11SoundHandle8InstanceD2Ev
X6d:_ResourceEnumerator_Reset_m3754276504
Cfa:__ZN31CanvasBatchIntermediateRenderer13StaticDestroyEPv
r$:__ZNSt3__23mapIiP15MonoScriptCacheNS_4lessIiEE13stl_allocatorINS_4pairIKiS2_EEL18MemLabelIdentifier78ELi16EEEixERS7_
hTa:__Z26scripting_method_get_class18ScriptingMethodPtr
yUj:_emscripten_glBindProgramARB__wrapper
Sfc:__Z41Register_UnityEngine_CullingGroup_Disposev
mAi:_PatternCompiler_EmitRepeat_m697083858
N2a:__ZN7Cubemap23VirtualRedirectTransferER19StreamedBinaryWriteILb0EE
zOa:__ZN25MultiBlocksMemoryFileData5WriteEyyPKv
A6d:_ResourceReader_Read7BitEncodedInt_m3568166465
Kad:_DefaultControls_CreateInputField_m1003102365
QVi:_CanvasGroup_set_alpha_m4032573
fqd:_Array_get_LongLength_m978104875
dCa:__ZL17ProgramUniform2fvPK7ApiGLESjiihPKv
hWj:b83
fLc:__ZN20TextRenderingPrivate8FontImpl21HasCharacterInTextureEjijfPj
lkb:__ZNSt3__227__insertion_sort_incompleteIRPFbRK23TransformAccessReadOnlyS3_EPS1_EEbT0_S8_T_
FBg:_Transform_SetAsFirstSibling_m253439912
Nyf:_DateTime_System_IConvertible_ToUInt16_m4182197229_AdjustorThunk
Ylf:_Interval_get_IsDiscontiguous_m3016063288
Xje:_SslStreamBase_get_CheckCertRevocationStatus_m2739906607
gLj:_htonl
dua:__Z20GetBufferManagerGLESv
gWj:b82
cpf:_SHA512Managed_Sigma1_m922902398
aCb:__ZN18StreamedBinaryReadILb0EE21TransferSTLStyleArrayI31ArrayOfManagedObjectsTransfererEEvRT_17TransferMetaFlags
Hua:__ZNSt3__26__treeI22DeviceStencilStateGLES14MemoryCompLessI18DeviceStencilStateENS_9allocatorIS1_EEE12__find_equalIS1_EERPNS_16__tree_node_baseIPvEESD_RKT_
Utc:__Z18Transfer_BlittableI8JSONReadLb0EtEvRK29SerializationCommandArgumentsR31RuntimeSerializationCommandInfo
LZ:__Z16GenerateTypeTreeRK6ObjectR8TypeTree24TransferInstructionFlags
qJf:_CultureInfo_CreateCulture_m1493441763
Qpf:_TripleDES_IsWeakKey_m2147489852
Wy:__ZN34AnimationStateMachineMixerPlayable13EndTransitionEv
oI:__ZN12AudioManager21FixMasterGroupRoutingEv
v9a:__ZNK19ShaderPropertySheet11HasPropertyERKN9ShaderLab16FastPropertyNameE
PPj:dynCall_viffffii
gC:__ZN15AllocatorTraitsIN8Animator11AnimatorJobELb0EE13CopyConstructEPS1_RKS1_10MemLabelId
QYg:__Z81RuntimeInvoker_Boolean_t97287965_NavigationU26_t1807167253_Navigation_t3049316579PFvvEPK10MethodInfoPvPS4_
BXj:_emscripten_glUniform1fv__wrapper
Fed:_GridLayoutGroup_SetLayoutHorizontal_m2838109254
Nad:_Dropdown_RefreshShownValue_m2806045241
rob:__Z18Transfer_BlittableI14SafeBinaryReadLb1E4AABBEvRK29SerializationCommandArgumentsR31RuntimeSerializationCommandInfo
Yuj:__ZN6il2cpp6icalls8mscorlib6System4Enum12get_hashcodeEP12Il2CppObject
jEj:_GC_set_no_dls
Q8c:_ColorBlock_set_normalColor_m254595671_AdjustorThunk
GIj:__ZN6il2cpp8metadata26Il2CppGenericMethodCompare6EqualsEPK19Il2CppGenericMethodS4_
qEe:_InternalEnumerator_1_get_Current_m1007906068_gshared
J$i:__ZN15dense_hashtableINSt3__24pairIK10KeyWrapperIPK11Il2CppClassEPKcEES6_N6il2cpp5utils11PointerHashIS3_EEN14dense_hash_mapIS6_S9_SE_NS6_14EqualsComparerINS0_8equal_toIS5_EEEENS0_9allocatorISA_EEE9SelectKeyESJ_SL_E15set_deleted_keyERKSA_
Qxd:_SimpleEnumerator_Reset_m1520014659
TG:__ZN9AudioClip7WWWOpenEPKciPjPPvS4_
iob:__Z18Transfer_BlittableI14SafeBinaryReadLb0E8Vector2fEvRK29SerializationCommandArgumentsR31RuntimeSerializationCommandInfo
Tfe:_Context_set_ProtocolNegotiated_m2904861662
Cqj:__ZN15dense_hashtableINSt3__24pairIK10KeyWrapperINS1_IPKcS4_EEEiEES6_24NamespaceAndNamePairHashN14dense_hash_mapIS6_iS9_NS6_14EqualsComparerI26NamespaceAndNamePairEqualsEENS0_9allocatorIS8_EEE9SelectKeyESD_SF_E12resize_deltaEjj
tse:_RemotingServices_GetRemoteObject_m2117098022
fWi:_CanvasRenderer_SetTexture_m1600559835
SZc:__ZN13dynamic_arrayIiLj4EE6insertEPiPKiS3_
H8g:_Collection_1_System_Collections_IList_IndexOf_m4256072926_gshared
gIg:__Z132RuntimeInvoker_Boolean_t97287965_RuntimeObject_Int32_t2950945753_Int32_t2950945753_RuntimeObject_Int32_t2950945753_Int32_t2950945753PFvvEPK10MethodInfoPvPS4_
Hhc:__Z53Register_UnityEngine_Input_INTERNAL_get_mousePositionv
Yta:__ZN7ApiGLES12DrawElementsE16GfxPrimitiveTypePKvjjjj
naf:_EncryptedPrivateKeyInfo_get_Salt_m3453455261
Uzf:_DateTime__ParseNumber_m1240316250
mtf:_Single_System_IConvertible_ToSingle_m1939829239_AdjustorThunk
GAe:_InternalEnumerator_1_get_Current_m3839250771_gshared
ukc:__Z66Register_UnityEngine_Transform_INTERNAL_CALL_InverseTransformPointv
UIf:_CultureInfo_get_TextInfo_m2342840448
lRf:_Array_InternalArray__IndexOf_TisMark_t3471605523_m2905388260_gshared
id:_SDL_GetTicks
Adj:__ZN15dense_hashtableINSt3__24pairIK10KeyWrapperINS1_IPK11Il2CppImageP11Il2CppClassEEEjEES9_17ReflectionMapHashIS8_EN14dense_hash_mapIS9_jSD_NS9_14EqualsComparerINS0_8equal_toIS8_EEEENS0_9allocatorISB_EEE9SelectKeyESI_SK_E6insertERKSB_
EVb:__Z21CreateShadowCullerJobP30CreateUmbraShadowCullerJobData
Jgh:_ReadOnlyCollection_1_System_Collections_Generic_ICollectionU3CTU3E_Remove_m4072504734_gshared
XBa:__ZL18ProgramUniform2uivPK7ApiGLESjiihPKv
z7c:_U3COnFinishSubmitU3Ec__Iterator0_MoveNext_m2729496168
bXj:_glUniform4iv__wrapper
ESb:__Z33GenerateShadowCasterPartsSortDataRK16ShadowCasterDatajRK15RenderNodeQueueRKNSt3__26vectorI20ShadowCasterPartData13stl_allocatorIS7_L18MemLabelIdentifier2ELi16EEEERK10Matrix4x4fRjP20ShadowCasterSortData
_Kb:__ZZ23InitPlayerLoopCallbacksvEN51PostLateUpdateTriggerEndOfFrameCallbacksRegistrator7ForwardEv
q0f:_TimeSpan_Compare_m753151303
prb:__Z29Transfer_Blittable_ArrayFieldI14SafeBinaryRead9BoundsIntEvRT_R9ArrayInfoRK23StaticTransferFieldInfo
zzc:_cf2_computeDarkening
TWi:_AnimationLayerMixerPlayable__ctor_m860721801_AdjustorThunk
b5d:_MonoPropertyInfo_get_property_info_m1599555644
rjd:_DESTransform_CipherFunct_m3527261721
HBj:_GC_expand_hp_inner
tsj:__ZNK15dense_hashtableI10KeyWrapperIP18Il2CppGenericClassES3_N6il2cpp8metadata22Il2CppGenericClassHashEN14dense_hash_setIS3_S6_NS3_14EqualsComparerINS5_25Il2CppGenericClassCompareEEENSt3__29allocatorIS3_EEE8IdentityESA_SD_E12test_deletedEj
Ukc:__Z25Screen_Get_Custom_PropDpiv
wqg:_UnityEventBase_RebuildPersistentCallsIfNeeded_m216788690
$yj:__ZN4utf812find_invalidIPKcEET_S3_S3_
dVe:_InputField_OnEndDrag_m4127187089
gjh:_ReadOnlyCollection_1_System_Collections_IList_RemoveAt_m2555465054_gshared
yLh:__ZL72RuntimeCompatibilityAttribute_t1169614002_CustomAttributesCacheGeneratorP21CustomAttributesCache
rEf:_StackFrame__ctor_m343464319
AT:__ZN11UnityEngine15CloudWebService20WebRequestRestClient7PrepareEv
k4d:_MonoField_CheckGeneric_m453069507
UKc:__ZN20TextRenderingPrivate19NativeTextGenerator23FixLineHorizontalOffsetEiii
bCb:__Z19TransferField_ArrayI18StreamedBinaryReadILb0EE27Converter_UnityEngineObjectEvRK23StaticTransferFieldInfoR31RuntimeSerializationCommandInfoRT0_
lue:_ObjectReader_ReadArrayOfString_m3550800559
rSd:_MonoCustomAttrs_GetCustomAttributesInternal_m648304078
gA:__ZN7mecanim9animation19DestroyAnimationSetEPNS0_12AnimationSetERNS_6memory9AllocatorE
cRj:_emscripten_glDepthRange__wrapper
q0:__ZN14SerializedFile7ReleaseEv
smb:__ZN16MemoryFileSystem4OpenER13FileEntryData14FilePermission16FileAutoBehavior
vIf:_CompareInfo_GetSortKey_m1915852346
jIc:_ft_var_load_avar
rfa:__ZN13RuntimeStaticI13RendererSceneLb0EE13StaticDestroyEPv
HHe:_DefaultComparer_Compare_m1297750557_gshared
IW:__ZN20DynamicHeapAllocatorI17LowLevelAllocatorE10ReallocateEPvji
wub:__Z18Transfer_BlittableI24GenerateTypeTreeTransferLb1E12PropertyNameEvRK29SerializationCommandArgumentsR31RuntimeSerializationCommandInfo
uLi:_Toggle_OnEnable_m1421694809
edb:__ZN14SafeBinaryRead21TransferSTLStyleArrayI10vector_mapIPKN5Unity4TypeE7Hash128NSt3__24lessIS5_EENS7_9allocatorINS7_4pairIS5_S6_EEEEEEEvRT_17TransferMetaFlags
B5e:_SortKeyBuffer_AppendLevel5_m3963841125
jNc:__ZN20TextRenderingPrivate21TextMeshGeneratorImpl14GarbageCollectEv
zac:__ZNK9Texture2D17CheckHasPixelDataEv
jwb:__Z18Transfer_BlittableI19StreamedBinaryWriteILb0EELb0E9BoundsIntEvRK29SerializationCommandArgumentsR31RuntimeSerializationCommandInfo
zOb:__Z18SetShadowsKeywordsR17ShaderPassContext9LightType10ShadowType16ShadowProjectionbb
Jdd:_Graphic_GetPixelAdjustedRect_m3729397999
rhj:__ZN14dense_hash_mapI10KeyWrapperINSt3__24pairIPK12PropertyInfoP11Il2CppClassEEEj17ReflectionMapHashIS8_ENS9_14EqualsComparerINS1_8equal_toIS8_EEEENS1_9allocatorINS2_IKS9_jEEEEEC2EjRKSB_RKSF_
E6b:__ZN17CollisionMeshDataC2Ev
fme:_ConfigHandler_CheckPath_m3079311646
m8d:_Marshal_Copy_m1222846562
o4a:__ZN16LightmapSettings23VirtualRedirectTransferER19StreamedBinaryWriteILb0EE
bLb:__ZZ23InitPlayerLoopCallbacksvEN47PostLateUpdateMemoryFrameMaintenanceRegistrator7ForwardEv
_ta:__ZN7ApiGLES20SetVertexArrayAttribEjj12VertexFormathjPKv
Ao:FUNCTION_TABLE_viiififii
sCj:_GC_push_next_marked
Ohb:__ZN18IDCollectorFunctor18GenerateInstanceIDEi17TransferMetaFlags
uti:_GameObject_GetComponent_TisRuntimeObject_m2049753423_gshared
ITi:_TextGenerationSettings_Equals_m3618607189_AdjustorThunk
adf:_NameObjectCollectionBase_BaseAdd_m3437748750
J1f:_Type_internal_from_handle_m3156085815
Yeh:_ReadOnlyCollection_1_System_Collections_Generic_ICollectionU3CTU3E_Add_m69722965_gshared
CD:__ZN8Animator8TransferI19StreamedBinaryWriteILb0EEEEvRT_
N1:__ZNSt3__27__sort4IRNS_6__lessI14ObjectLoadDataS2_EEPS2_EEjT0_S6_S6_S6_T_
gNb:__ZNK25CameraStackRenderingState16GetCurrentCameraEv
q0e:_ScrollRect_get_rectTransform_m2442061719
C8b:__Z22PlayableValidityChecksRK9HPlayableb
Keb:__ZN15ResourceManagerD2Ev
Hfc:__Z41Register_UnityEngine_Camera_GetAllCamerasv
Mpg:_InvokableCall__ctor_m2158562079
CBi:_Assertion__ctor_m2128950829
$Yc:__ZN28PerformanceReportingSettings8TransferI14SafeBinaryReadEEvRT_
fjb:__ZN15CacheWriterBase18GetAddressOfMemoryEv
pmd:_Buffer_BlockCopy_m2884209081
auc:__Z18Transfer_BlittableI8JSONReadLb1E5RectTIiEEvRK29SerializationCommandArgumentsR31RuntimeSerializationCommandInfo
Nmj:__ZN6il2cpp2vm22EmbeddedResourceRecordC2ERKS1_
wIb:__ZL20DrawVBOChunkWithPassP6ShaderPN9ShaderLab4PassER17ShaderPassContextR10DynamicVBORK21DynamicVBOChunkHandle
S4g:_Collection_1__ctor_m825528237_gshared
I2a:__ZN9Texture2D13AwakeFromLoadE17AwakeFromLoadMode
eOf:_SetPropertyUtility_SetStruct_TisColorBlock_t2139031574_m1748367426_gshared
lug:_PlayerConnection_get_instance_m1750121257
quj:__ZN6il2cpp2vm3RCW14QueryInterfaceILb0EEEP14Il2CppIUnknownP15Il2CppComObjectRK10Il2CppGuid
jri:_Dictionary_2_Do_CopyTo_TisRuntimeObject_TisRuntimeObject_m2341992100_gshared
Zxi:_X509Store_get_Certificates_m56224934
bAa:__ZN6prcoreL17RemapGenericFloatI15TexFormatRFloat18TexFormatARGBFloatEEvPKNS_9InnerInfoE
KLg:__Z85RuntimeInvoker_Void_t1185182177_Int64_t3736567304_Int32_t2950945753_Int64_t3736567304PFvvEPK10MethodInfoPvPS4_
lde:_CipherSuite__ctor_m2440635082
Fnf:_RSAPKCS1KeyExchangeFormatter_SetRSAKey_m1477802943
yrf:_EvidenceEnumerator_get_Current_m1264365535
$Zc:__ZN11UnityEngine15PlatformWrapper20GetPlayerPrefsUInt64ERKN4core12basic_stringIcNS1_20StringStorageDefaultIcEEEEy
l8d:_Marshal_copy_from_unmanaged_m2834266824
EPj:dynCall_iiiifii
iSb:__ZN20ReflectionProbeCacheC2ER13BatchRendererR15RenderLoopStats
oxg:_Rect_set_xMax_m1720695099_AdjustorThunk
wOg:__Z59RuntimeInvoker_Int32_t2950945753_DateTimeOffset_t3229287507PFvvEPK10MethodInfoPvPS4_
qlb:__ZNK12HandlerChain6ExistsERK13FileEntryData
AHf:_Calendar__ctor_m106290643
USb:__Z30FindDirectAttenuationFromProbeP18ForwardLightsBlockbiRK10RenderNodeRK23FindForwardLightsParamsf
Sac:__ZNSt3__26vectorIj13stl_allocatorIjL18MemLabelIdentifier1ELi16EEE6assignIPKjEENS_9enable_ifIXaasr21__is_forward_iteratorIT_EE5valuesr16is_constructibleIjNS_15iterator_traitsIS9_E9referenceEEE5valueEvE4typeES9_S9_
rcb:__ZN12InputManager23VirtualRedirectTransferER24GenerateTypeTreeTransfer
vkb:__ZN9Transform23VirtualRedirectTransferER24GenerateTypeTreeTransfer
qmc:__ZN12GUIClipState10BeginOnGUIER10InputEvent
Ina:__ZNSt3__26vectorIN9ShaderLab20SerializedSubProgram12UAVParameterENS_9allocatorIS3_EEE21__push_back_slow_pathIKS3_EEvRT_
$Pg:__Z87RuntimeInvoker_RuntimeObject_Byte_t1134296376_RuntimeObject_RuntimeObject_RuntimeObjectPFvvEPK10MethodInfoPvPS4_
Wee:_HandshakeMessage_Process_m810828609
EGc:_UNITY_tt_size_ready_bytecode
EJc:__ZN13TextRendering4FontD2Ev
cwg:_Quaternion_Inverse_m1311579081
lMc:_UNITY_FT_Stream_Open
yvb:__Z29Transfer_Blittable_ArrayFieldI24GenerateTypeTreeTransfer9BoundsIntEvRT_R9ArrayInfoRK23StaticTransferFieldInfo
ped:_GraphicRegistry__cctor_m1805310505
cmg:_Bounds_Equals_m3920299735
iXa:__ZN8keywords18KeywordSetToStringERK16ShaderKeywordSetRN4core12basic_stringIcNS3_20StringStorageDefaultIcEEEE
B$d:_GenericTypeParameterBuilder_GetGenericArguments_m2988765390
CCc:_otv_MATH_validate
UKg:__Z77RuntimeInvoker_Void_t1185182177_Int64_t3736567304_ResourceInfoU26_t1611441338PFvvEPK10MethodInfoPvPS4_
krh:_List_1_CheckCollection_m1717250693_gshared
sF:__ZN4FMOD3DSP12setParameterEif
hGb:__ZN13MemoryManager16StaticInitializeEv
WIf:_CultureInfo_Equals_m1360976324
avc:__ZN8JSONRead21TransferSTLStyleArrayI13dynamic_arrayIyLj8EEEEvRT_17TransferMetaFlags
of:___cxa_free_exception
x7h:__ZL69PersistentCall_t3407714124_CustomAttributesCacheGenerator_m_CallStateP21CustomAttributesCache
wJ:__ZN4FMOD22FakeModChannelCallbackEPv
$0c:_BaseInput_get_compositionString_m1887614380
uf:_emscripten_glValidateProgram
WVa:__ZN4Mesh10CreateMeshEv
Qld:_RijndaelManagedTransform__ctor_m1033522223
rzf:_DateTime_CompareTo_m3889078633
aAc:_cf2_stack_clear
nHd:_NumberFormatter_set_CurrentCulture_m1358228087
BXb:__ZN7Texture13SetAnisoLevelEi
OR:__ZNSt3__26__treeINS_12__value_typeIN4core12basic_stringIcNS2_20StringStorageDefaultIcEEEEjEENS_19__map_value_compareIS6_S7_NS_4lessIS6_EELb1EEE13stl_allocatorIS7_L18MemLabelIdentifier88ELi16EEE7destroyEPNS_11__tree_nodeIS7_PvEE
S6:__ZN19EndOfFrameCallbacks7EnqueueEP18EndOfFrameCallbackb
Nrg:_Input_set_compositionCursorPos_m1909373301
Fwc:__ZN27PerformanceReportingManager23VirtualRedirectTransferER24GenerateTypeTreeTransfer
Xid:_CspParameters__ctor_m2741097571
JMg:__Z78RuntimeInvoker_IntPtr_t_SByte_t1669577662_RuntimeObject_BooleanU26_t4125257963PFvvEPK10MethodInfoPvPS4_
kTc:__Z44Canvas_CUSTOM_GetETC1SupportedCanvasMaterialv
kDf:_Decimal_decimalSetExponent_m3707787243
u9:__ZN33InstancedMeshIntermediateRenderer13StaticDestroyEPv
Cpj:__ZN14dense_hash_mapI10KeyWrapperIP14Il2CppIUnknownEjN6il2cpp5utils11PointerHashIS1_EENS3_14EqualsComparerINSt3__28equal_toIS2_EEEENS9_9allocatorINS9_4pairIKS3_jEEEEE13set_empty_keyERSF_
Pva:__ZN15dense_hashtableINSt3__24pairIK9TextureIDiEES2_14GfxGenericHashIS2_EN14GfxDoubleCacheIS2_iS6_NS0_8equal_toIS2_EEN31GfxDoubleCacheConcurrencyPolicy11LocklessGetE42GfxDoubleCacheDefaultEmptyDeletedGeneratorIS2_EE9SelectKeyES9_13stl_allocatorIS4_L18MemLabelIdentifier24ELi16EEE12resize_deltaEjj
WTa:__Z21DestroyShadowMapCacheP14ShadowMapCache
Ex:__ZN7mecanim9animation25CreateControllerWorkspaceEPKNS0_18ControllerConstantERNS_6memory9AllocatorE
Isi:_Array_InternalArray__get_Item_TisLabelFixup_t858502054_m3276643490_gshared
Rgj:__ZN15dense_hashtableINSt3__24pairIK10KeyWrapperIPK10Il2CppTypeEjEES6_N6il2cpp8metadata14Il2CppTypeHashEN14dense_hash_mapIS6_jSB_NS6_14EqualsComparerINSA_26Il2CppTypeEqualityComparerEEENS0_9allocatorIS8_EEE9SelectKeyESF_SH_E14squash_deletedEv
Lnj:__ZN6il2cpp2vm13LivenessState5ResetEv
kqc:__ZN9JSONWrite8TransferI11KeyframeTplIfEEEvRT_PKc17TransferMetaFlags
DBd:_SortedList_GetImpl_m3689246167
Aeh:_ReadOnlyCollection_1_System_Collections_Generic_IListU3CTU3E_set_Item_m3209059215_gshared
_wa:__ZN24BuiltinShaderParamValuesC2Ev
jwi:_PKCS12_Decode_m163534693
zqc:__ZL41CreateJSONTransferFunctionScriptingTraitsv
nha:__ZN6Shader23VirtualRedirectTransferER14SafeBinaryRead
Vyc:_cff_glyph_load
sDg:_WaitForSecondsRealtime_get_keepWaiting_m846832224
kTi:_ObjectPool_1_get_countActive_m807006650_gshared
jEb:__Z23GetLateBehaviourManagerv
HJg:__Z33RuntimeInvoker_Single_t1397266774PFvvEPK10MethodInfoPvPS4_
xqb:__ZN14SafeBinaryRead21TransferSTLStyleArrayINSt3__26vectorI8Gradient13stl_allocatorIS3_L18MemLabelIdentifier1ELi16EEEEEEvRT_17TransferMetaFlags
$X:__ZN10MemoryPool10DeallocateEPv
Emc:__ZN8GUIState8SetEventERK10InputEvent
jUg:__Z80RuntimeInvoker_Void_t1185182177_ScriptableRenderContext_t274343796_RuntimeObjectPFvvEPK10MethodInfoPvPS4_
hPj:dynCall_vif
iPj:dynCall_vid
OEd:_Convert_ToSByte_m4075629912
kPj:dynCall_vii
L9e:_KeyPairPersistence_FromXml_m746585742
Bwf:_Decoder__ctor_m4046021500
RBb:__Z18Transfer_BlittableI18StreamedBinaryReadILb0EELb0EdEvRK29SerializationCommandArgumentsR31RuntimeSerializationCommandInfo
A7c:_ColorBlock_get_fadeDuration_m121071467
I6i:__ZN6il2cpp6icalls8mscorlib6System8MonoType18GetFields_internalEP20Il2CppReflectionTypeiS5_
y2:__ZN5Unity9Component16CheckConsistencyEv
U4d:_MonoMethod_get_ContainsGenericParameters_m3860345224
Z4:__ZN19ShaderPropertySheet37CreateTextureAuxPropertyUninitializedEN9ShaderLab16FastPropertyNameES1_PKc
Nwb:__ZL26Transfer_SimpleNativeClassI19StreamedBinaryWriteILb0EE10RectOffsetLb1EEvRK29SerializationCommandArgumentsR31RuntimeSerializationCommandInfo
kYc:__ZN11UnityEngine7Connect17DeviceStatusEventD2Ev
WYj:b128
kcj:__ZN15dense_hashtableINSt3__24pairIK10KeyWrapperIPK10Il2CppTypeEjEES6_N6il2cpp8metadata14Il2CppTypeHashEN14dense_hash_mapIS6_jSB_NS6_14EqualsComparerINSA_26Il2CppTypeEqualityComparerEEENS0_9allocatorIS8_EEE9SelectKeyESF_SH_E3endEv
nsa:__ZN13GfxDeviceGLES17SetGpuProgramNameEP10GpuProgramPKc
NT:__ZNK11UnityEngine15CloudWebService25WebRequestDownloadHandler11GetProgressEv
NWa:__Z43IsVertexFormatCompatibleWithDynamicBatchingRK14VertexDataInfo
tSf:_Array_InternalArray__ICollection_Add_TisMonoResource_t4103430009_m2699164149_gshared
W4i:__ZN6il2cpp2vm13MetadataCache28GetMethodDefinitionFromIndexEi
Dxj:__ZN6il2cpp2os20FileErrnoToErrorCodeEi
T$a:__ZN14SafeBinaryRead19TransferSTLStyleMapINSt3__23mapI39DeprecatedFastPropertyNameSerialization10ColorRGBAfNS1_4lessIS3_EENS1_9allocatorINS1_4pairIKS3_S4_EEEEEEEEvRT_17TransferMetaFlags
OBf:_Decimal_ThrowAtPos_m1170269346
P2h:__ZL98GameObject_t1113636619_CustomAttributesCacheGenerator_GameObject_SendMessage_m3720186693____value1P21CustomAttributesCache
dh:_atexit
a2e:_Selectable_set_image_m3625164794
KEe:_InternalEnumerator_1_get_Current_m1232221964_gshared
qih:_ReadOnlyCollection_1_System_Collections_Generic_IListU3CTU3E_Insert_m1818924748_gshared
sfj:__ZN6il2cpp2vmL31GetObjectForMissingDefaultValueEj
dxf:_DecoderReplacementFallbackBuffer_GetNextChar_m2858228391
O6c:_AspectRatioFitter__ctor_m2468506840
hWc:__ZN11UnityEngine15PlatformWrapper30GetVRPlayAreaBoundaryDimensionEv
opi:_Array_Sort_TisBoolean_t97287965_TisBoolean_t97287965_m2753381653_gshared
ixi:_X509Certificate_get_Hash_m410033711
dka:__ZN9ShaderLab14SerializedPassC2ERKS0_
Iqc:__Z35Transfer_Blittable_FixedBufferFieldI9JSONWritehEvRK29SerializationCommandArgumentsR31RuntimeSerializationCommandInfo
l:STACKTOP
gCc:_cff_get_name_index
F4a:__ZN21EnlightenSceneMapping16BuildRemapTablesEv
C9b:__ZN17TransformInternal27UpdateDeepChildCountUpwardsER18TransformHierarchyii
_2c:_ExecuteEvents_Execute_m3613826831
Cad:_Image_set_type_m2038193736
A:tempBigIntD
ZWb:__ZNK25CameraStackRenderingState25CalculateCameraTargetTypeEv
u1d:_PropertyBuilder_GetSetMethod_m128670376
y:tempBigIntR
x:tempBigIntS
w:tempBigIntP
un:FUNCTION_TABLE_viffi
vOd:_MemoryStream_SetLength_m974389318
R1:__ZN6Object18RegisterInstanceIDEPS_
bub:__Z18Transfer_BlittableI24GenerateTypeTreeTransferLb1EsEvRK29SerializationCommandArgumentsR31RuntimeSerializationCommandInfo
Otj:__ZN15dense_hashtableINSt3__24pairIK10KeyWrapperIP12Il2CppObjectEN6il2cpp2gc9CachedCCWEEES5_NS7_5utils11PointerHashIS3_EEN14dense_hash_mapIS5_S9_SD_NS5_14EqualsComparerINS0_8equal_toIS4_EEEENS0_9allocatorISA_EEE9SelectKeyESI_SK_E11set_deletedER30dense_hashtable_const_iteratorISA_S5_SD_SM_SI_SK_E
tpa:__ZNK9GfxDevice18GetWorldViewMatrixEv
eXg:__Z70RuntimeInvoker_Single_t1397266774_Single_t1397266774_Int32_t2950945753PFvvEPK10MethodInfoPvPS4_
xNb:__Z20LookRotationToMatrixRK8Vector3fS1_P10Matrix3x3f
jFd:_Convert_ToUInt16_m3902921832
bWd:_Assembly_GetTypes_m1724781913
KOh:__ZL54TypeBuilder_t1073948154_CustomAttributesCacheGeneratorP21CustomAttributesCache
Zzj:__ZN6il2cpp6icalls8mscorlib6System7Convert17Base64ToByteArrayEPDsib
Rub:__ZL12InvokeMethodI24GenerateTypeTreeTransferEvRK29SerializationCommandArgumentsR31RuntimeSerializationCommandInfo
Trh:_List_1_AddEnumerable_m376418521_gshared
eQg:__Z79RuntimeInvoker_Void_t1185182177_Byte_t1134296376_Byte_t1134296376_RuntimeObjectPFvvEPK10MethodInfoPvPS4_
b2i:__ZNSt3__218__insertion_sort_3IRN6il2cpp5utils11collections13ArrayValueMapIPK10Il2CppType17Il2CppInteropData26InteropDataToTypeConverterNS1_8metadata14Il2CppTypeLessENSA_26Il2CppTypeEqualityComparerEE12SortComparerEPS8_EEvT0_SH_T_
xpa:__ZNK9GfxDevice25GetDeviceProjectionMatrixEv
ma:invoke_iidiii
hub:__Z18Transfer_BlittableI24GenerateTypeTreeTransferLb1EtEvRK29SerializationCommandArgumentsR31RuntimeSerializationCommandInfo
NP:__ZN12AudioManager33GetCurrentAmbisonicDefinitionNameE31UnityAudioEffectDefinitionFlags
Ucc:__ZN11UTF16StringC2EPKc10MemLabelId
ecc:__ZN10systeminfo24GetRuntimePlatformStringEv
sMd:_MonoIO_DeleteFile_m3839141322
QQ:__ZN5physx14PxLightCpuTask15removeReferenceEv
mvj:__ZN6il2cpp6icalls8mscorlib6System6String22RedirectToCreateStringEv
xOh:__ZL99ILGenerator_t1388622344_CustomAttributesCacheGenerator_ILGenerator_Mono_GetCurrentOffset_m993338688P21CustomAttributesCache
QXe:_LayoutRebuilder_ReapplyDrivenProperties_m2581469389
Yvg:_PropertyName_op_Implicit_m1633828199
n5:__ZN9ShaderLab6TexEnvC2ERKNS_25SerializedTexturePropertyE
EVe:_InputField_Append_m687033660
pRa:__ZN9Transform32SetLocalScaleWithoutNotificationERKN4math7_float3Ey
d$a:__ZN19ShaderPropertySheet38CopyTextureWithAuxiliaryPropertiesFromERKN9ShaderLab16FastPropertyNameERKS_
SKc:__ZN20TextRenderingPrivate19NativeTextGeneratorD2Ev
z5i:__ZN6il2cpp2vm19SocketPollingThread14DequeueRequestEv
jxj:__ZL10RevealLinkPv
Lxf:_DateTime__ctor_m12900168_AdjustorThunk
Ffe:_ClientSessionCache_FromContext_m343076119
Ji:___cxa_end_catch
Kpf:_ToBase64Transform_TransformBlock_m2497349397
rdf:_NameValueCollection_Add_m2418530856
yre:_ReturnMessage_get_MethodSignature_m399735125
sTc:__Z43Register_UnityEngine_Canvas_set_scaleFactorv
KDi:_PositionAssertion_Compile_m2500980346
txd:_ArrayListWrapper_ToArray_m3192696690
bMc:_raccess_guess_linux_cap
hQ:__Z36AudioSource_Get_Custom_PropIsPlayingP12Il2CppObject
Wxd:_SynchronizedArrayListWrapper_get_IsFixedSize_m3396437476
Srd:_Attribute_GetCustomAttribute_m4034845276
haa:__Z33InitializeBuiltinShaderParamNamesv
h2f:_Type_GetConstructor_m2219014380
x8c:_CanvasUpdateRegistry_SortLayoutList_m471948466
Y2:__ZNK16TypeTreeIterator4TypeEv
bKb:__ZN10FileSystem25MountDataFolderFileSystemERKN4core12basic_stringIcNS0_20StringStorageDefaultIcEEEES6_
rmd:_ArgumentOutOfRangeException__ctor_m282481429
iGi:_GUILayoutUtility_Internal_MoveWindow_m3463958180
sj:_glGetUniformLocation
Qqa:__ZN13GfxDeviceGLES32CreateColorRenderSurfacePlatformEP17RenderSurfaceBase19RenderTextureFormat
zG:__ZN12AudioManager24CreateFMODSoundFromMovieEP9AudioClip
V3i:__ZN6il2cpp2vm13MetadataCache24GetGenericInstanceMethodEPK10MethodInfoPK20Il2CppGenericContext
RBj:_GC_hblk_fl_from_blocks
$3d:_MonoField_GetParentType_m2478933781
e1:__Z24ConvertSeparatorsToUnityPc
Kej:__ZN6il2cpp2gc19AppendOnlyGCHashMapINSt3__24pairIPK9EventInfoP11Il2CppClassEEP21Il2CppReflectionEvent17ReflectionMapHashIS9_ENS2_8equal_toIS9_EEE3AddERKS9_SB_
bGh:_Collection_1_System_Collections_ICollection_CopyTo_m46221116_gshared
ylj:__ZN6il2cpp2vm6Thread20FreeThreadStaticDataEP12Il2CppThread
DQf:_Array_InternalArray__IndexOf_TisClientCertificateType_t1004704908_m3457772631_gshared
GDg:__Z28RuntimeInvoker_RuntimeObjectPFvvEPK10MethodInfoPvPS4_
qAc:_cf2_glyphpath_finalize
NUh:__ZL56SecurityAction_t569814076_CustomAttributesCacheGeneratorP21CustomAttributesCache
oqf:_X509Certificate_GetPublicKey_m4184729161
Xwd:_ArrayListWrapper_set_Capacity_m2373297383
ZUe:_Text_get_cachedTextGenerator_m2506989875
HPj:dynCall_viififi
Kig:_Enumerator_System_Collections_IEnumerator_Reset_m502339360_AdjustorThunk
tMh:__ZL58DictionaryEntry_t3123975638_CustomAttributesCacheGeneratorP21CustomAttributesCache
VTi:_TextGenerator_GetVerticesInternal_m3222977969
Dzh:_List_1_RemoveAt_m4279084788_gshared
SFc:_UNITY_FT_Stream_Free
llj:__ZN15dense_hashtableINSt3__24pairIK10KeyWrapperINS1_IP11Il2CppClassjEEES4_EES6_N6il2cpp8metadata14ArrayClassHashEN14dense_hash_mapIS6_S4_SB_NS6_14EqualsComparerINSA_17ArrayClassCompareEEENS0_9allocatorIS8_EEE9SelectKeyESF_SH_E12maybe_shrinkEv
Dpc:__ZNK5Unity9rapidjson12GenericValueINS0_4UTF8IcEE13JSONAllocatorE6AcceptINS0_12PrettyWriterI16TempBufferWriterS3_S3_S4_EEEEbRT_
Oid:_CryptoConfig_EncodeLongNumber_m4127306320
_Vg:__Z87RuntimeInvoker_Void_t1185182177_Single_t1397266774_Single_t1397266774_SByte_t1669577662PFvvEPK10MethodInfoPvPS4_
Kde:_CipherSuite_createEncryptionCipher_m2533565116
WR:__ZN11UnityEngine15CloudWebService14DataDispatcher25OnDataBlockConsumedStaticEPv
Cyh:_List_1_CheckIndex_m3044940639_gshared
wDg:_GenericStack__ctor_m933681517
nAb:__Z29Transfer_Blittable_ArrayFieldI18StreamedBinaryReadILb1EE11QuaternionfEvRT_R9ArrayInfoRK23StaticTransferFieldInfo
ORd:_Math_Max_m482125436
Hke:_ActivatedServiceTypeEntry_ToString_m1591455874
Grf:_SecurityElement_ToXml_m3664345083
FUf:_Array_InternalArray__Insert_TisParameterModifier_t1461694466_m3664994573_gshared
H:Math_pow
Atg:_Mesh_get_tangents_m3279676290
Gia:__Z14resize_trimmedINSt3__26vectorIN9ShaderLab20SerializedSubProgram16SamplerParameterENS0_9allocatorIS4_EEEEEvRT_j
zvg:_PlayableHandle_GetPlayableType_Injected_m686992718
Wnd:_SmallXmlParser_ReadUntil_m2715581630
xMj:__ZNSt3__212basic_stringIcNS_11char_traitsIcEENS_9allocatorIcEEE6insertEjPKcj
Bqc:__Z44InitializeTransferFunctionScriptingTraitsForI8JSONReadEvR31TransferFunctionScriptingTraits
RIb:__ZNSt3__27__sort4IRNS_4lessIN22BuiltinResourceManager8ResourceEEEPS3_EEjT0_S7_S7_S7_T_
Icf:_ListDictionary_Add_m3918308031
Dtj:__ZNK15dense_hashtableINSt3__24pairIK10KeyWrapperIP12Il2CppObjectEN6il2cpp2gc9CachedCCWEEES5_NS7_5utils11PointerHashIS3_EEN14dense_hash_mapIS5_S9_SD_NS5_14EqualsComparerINS0_8equal_toIS4_EEEENS0_9allocatorISA_EEE9SelectKeyESI_SK_E23find_position_with_hashERS6_j
GUe:_Selectable_OnDisable_m3225138518
zHc:_UNITY_tt_face_get_location
_Ii:_AesManaged_CreateEncryptor_m1611897367
zrc:__ZL26Transfer_SimpleNativeClassI9JSONWrite17AnimationCurveTplIfELb0EEvRK29SerializationCommandArgumentsR31RuntimeSerializationCommandInfo
qYb:__ZN10GameObject34AddFirstTransformComponentInternalEP9Transform
Ufc:__Z31Cursor_Get_Custom_PropLockStatev
C8:__ZNSt3__26__treeINS_12__value_typeINS_4pairIPcS3_EENS_3setIS3_15compare_tstringIPKcENS_9allocatorIS3_EEEEEENS_19__map_value_compareIS4_SD_20smaller_tstring_pairIS8_ELb1EEENSA_ISD_EEE7destroyEPNS_11__tree_nodeISD_PvEE
ZM:__ZN12AudioManager29GetCurrentAmbisonicDefinitionE31UnityAudioEffectDefinitionFlags
tgc:__Z52Register_UnityEngine_GameObject_GetComponentInParentv
pdb:__ZN15SerializeTraitsINSt3__24pairIPKN5Unity4TypeE7Hash128EEE8TransferI14SafeBinaryReadEEvRS7_RT_
mBj:_GC_number_stack_black_listed
oDf:_Decimal_ToString_m4018746482_AdjustorThunk
DVb:__Z37GenerateCombinedDynamicVisibleListJobP11CullResults
a8f:_Dictionary_2_ToTKey_m2055624458_gshared
s6a:__ZNK13ScreenManager21GetCursorInsideWindowEv
vXd:_CustomAttributeData_GetCustomAttributes_m1033457578
u8d:_SafeHandle_DangerousAddRef_m614714386
DSb:__Z20IntersectAABBFrustumRK4AABBPK5Planej
e1e:_ScrollRect_OnDrag_m688583138
i7b:__ZN13RenderManager15InitializeClassEv
Qqb:__ZN15SerializeTraitsI12PropertyNameE8TransferI14SafeBinaryReadEEvRS0_RT_
qch:_ReadOnlyCollection_1_System_Collections_IList_IndexOf_m3120991897_gshared
Qpe:_Header__ctor_m1921907550
g3e:_Slider_FindSelectableOnUp_m4062600878
gvd:_Convert_ToSByte_m1350241137
ssg:_Material_SetIntImpl_m724477324
F7:__GLOBAL__sub_I_runtime_baseclasses_2_cpp
Isc:__ZN9JSONWrite8TransferI11ColorRGBA32EEvRT_PKc17TransferMetaFlags
ovc:__Z22TransferField_NonArrayI8JSONRead27Converter_SimpleNativeClassI8GradientEEvRK23StaticTransferFieldInfoR31RuntimeSerializationCommandInfoRT0_
lFb:__ZN10MonoScript13AwakeFromLoadE17AwakeFromLoadMode
Vlf:_Interval__ctor_m4022869013
dtd:_Boolean_System_IConvertible_ToUInt16_m3465173538
YPa:__ZN10MemoryFile21CreateFileSystemEntryE10MemLabelId14FilePermissionPvjb
LFa:__ZNK18GfxFramebufferGLES15DiscardContentsER12ObjectHandleI17RenderSurface_TagP17RenderSurfaceBaseE
Mae:_ARC4Managed_KeySetup_m2449315676
Q4i:__ZN6il2cpp2vm13MetadataCache27GetEventDefinitionFromIndexEi
BFd:_Convert_ToUInt64_m92315402
Prc:__Z18Transfer_BlittableI9JSONWriteLb1EdEvRK29SerializationCommandArgumentsR31RuntimeSerializationCommandInfo
NTj:_glGetIntegerv__wrapper
fxf:_EncoderExceptionFallback__ctor_m3745979420
hBe:_InternalEnumerator_1_System_Collections_IEnumerator_get_Current_m435848551_gshared
w3:__ZN10GameObject28FinalizeAddComponentInternalEPN5Unity9ComponentE
Ihi:__ZL57Image_t2670269651_CustomAttributesCacheGenerator_m_SpriteP21CustomAttributesCache
I3a:__ZN9Texture2DD2Ev
pNi:_AudioExtensionManager_GetReadyToPlay_m1557263244
YEd:_Convert_ToSingle_m164367433
Jsi:_Array_InternalArray__get_Item_TisILTokenInfo_t2325775114_m3110830457_gshared
FDd:_Convert_ToDecimal_m1284410333
eng:_Camera_INTERNAL_CALL_RaycastTry2D_m3172975827
oAf:_DateTime_CheckStyle_m1392838900
m2e:_Shadow_set_effectColor_m3910676693
Qcf:_NameObjectCollectionBase__ctor_m2090733912
Mkf:_Group__cctor_m2230627219
TLf:_Array_InternalArray__ICollection_Contains_TisDouble_t594665363_m1696010878_gshared
Po:FUNCTION_TABLE_viiiffi
xce:_RSAManaged_EncryptValue_m4149543654
Vq:__ZN13dynamic_arrayIhLj1EE18resize_initializedEjRKh12ResizePolicy
Cda:__ZN27IntermediateRendererManagerD2Ev
Xhb:__ZN17PersistentManager27GetLoadErrorMessageFromPathERKN4core12basic_stringIcNS0_20StringStorageDefaultIcEEEE
$vi:_NetscapeCertTypeExtension_ToString_m1800688476
fm:_glGenRenderbuffers
pnj:__ZN6il2cpp6icalls8mscorlib6System2IO6MonoIO19GetCurrentDirectoryEPi
Wyg:_Renderer_get_sortingOrder_m344607889
qTb:__Z21IntersectSegmentPlaneRK8Vector3fS1_RK5PlanePS_
YLg:__Z81RuntimeInvoker_Void_t1185182177_Int64_t3736567304_RuntimeObject_Int32_t2950945753PFvvEPK10MethodInfoPvPS4_
$li:__ZL50Outline_t2536100125_CustomAttributesCacheGeneratorP21CustomAttributesCache
Rdb:__ZN14PlayerSettings23VirtualRedirectTransferER17RemapPPtrTransfer
OEi:_Uri_get_IsFile_m2450018824
Sba:__ZN14CachingManager7DisposeEv
PM:__ZN12AudioManager31GetCurrentSpatializerDefinitionEv
ocf:_HybridDictionary_Add_m912320053
ubb:__ZN12MeshRenderer16UpdateCachedMeshEv
iIi:_KeyBuilder_IV_m3340234014
wqb:__Z19TransferField_ArrayI14SafeBinaryRead27Converter_SimpleNativeClassI8GradientEEvRK23StaticTransferFieldInfoR31RuntimeSerializationCommandInfoRT0_
Yag:_DefaultComparer_Equals_m1163494476_gshared
MMf:_Array_InternalArray__ICollection_Remove_TisDictionaryEntry_t3123975638_m3699186409_gshared
cVd:_Object_Equals_m1397037629
bz:__ZNK27StateMachineBehaviourPlayer25FireStateMachineBehaviourEiiN7mecanim12statemachine19StateMachineMessageE
Dlg:_AsyncOperation_t1445031843_marshal_pinvoke_back
e8:__GLOBAL__sub_I_runtime_utilities_4_cpp
Rwg:_Rect_get_center_m138276653
VXb:__ZN6Camera15SetOrthographicEb
ZBc:_UNITY_FT_Stream_GetUShort
Epa:__ZN13GfxDeviceGLES14DisableScissorEv
SPg:__Z240RuntimeInvoker_RuntimeObject_Int16_t2552820387_RuntimeObject_Int32_t2950945753_Int32_t2950945753_Int32_t2950945753_SByte_t1669577662_SByte_t1669577662_SByte_t1669577662_SByte_t1669577662_Int16_t2552820387_SByte_t1669577662_SByte_t1669577662PFvvEPK10MethodInfoPvPS4_
jmg:_Bounds_get_size_m1178783246_AdjustorThunk
wIc:_tt_get_var_blend
dJg:__Z64RuntimeInvoker_Double_t594665363_RuntimeObject_Int32_t2950945753PFvvEPK10MethodInfoPvPS4_
Fye:_InternalEnumerator_1_System_Collections_IEnumerator_get_Current_m2141782011_AdjustorThunk
SCf:_Decimal_decimalMult_m3812462972
eie:_RecordProtocol_BeginSendRecord_m615249746
Fc:_glVertexAttrib4f
xqh:_Enumerator_System_Collections_IEnumerator_get_Current_m209407522_AdjustorThunk
epg:_Display_get_systemHeight_m730809466
Csh:_List_1_System_Collections_IList_Insert_m4074493513_gshared
Y0e:_ScrollRect_EnsureLayoutHasRebuilt_m3415112783
iUc:__ZN21UnityAnalyticsManagerD0Ev
KEi:_Uri_GetOpaqueWiseSchemeDelimiter_m1909471550
QCj:_GC_set_hdr_marks
nWa:__Z17SetupObjectMatrixRK10Matrix4x4fi
R8f:_Dictionary_2_OnDeserialization_m1254782141_gshared
F8:__ZN13RuntimeStaticINSt3__23mapINS0_4pairIPcS3_EEPFbPvR14SafeBinaryReadE20smaller_tstring_pairIPKcENS0_9allocatorINS2_IKS4_S9_EEEEEELb0EE13StaticDestroyES5_
$Md:_FileStream_FlushBufferIfDirty_m4249802951
fIe:_DefaultComparer_Compare_m1916473435_gshared
MEd:_Convert_ToSByte_m2653811524
JLc:_open_face
S5b:__ZZL31RegisterOtherRendererPropertiesR22GenericPropertyBindingEN30Wrapper_RendererReceiveShadows13SetFloatValueEPvf
MRc:__Z17RegisterModule_UIv
yA:__ZN8Animator24SortJobsBasedOnHierarchyERK13dynamic_arrayINS_11AnimatorJobELj8EERS0_IS2_Lj4EE
wSd:_MonoCustomAttrs_GetCustomAttributes_m1347331976
Wtg:_Mesh_Clear_m2630385472
xJg:__Z46RuntimeInvoker_RuntimeObject_Int16_t2552820387PFvvEPK10MethodInfoPvPS4_
vqa:__ZN9GfxDevice24CreateRenderDepthSurfaceE9TextureIDiiii16TextureDimension17DepthBufferFormat18SurfaceCreateFlags
zoe:_SynchronizationAttribute_set_Locked_m2760363037
GGd:_Int16_Equals_m82811458
fce:_PrivateKeyInfo_Decode_m986145117
Txg:_RectOffset_get_top_m2855347295
rG:__ZN4FMOD5Sound11setUserDataEPv
Jha:__ZN14SafeBinaryRead21TransferSTLStyleArrayINSt3__26vectorIN9ShaderLab19SerializedSubShaderENS1_9allocatorIS4_EEEEEEvRT_17TransferMetaFlags
m3c:_ExecuteEvents_Execute_m533210008
wIg:__Z137RuntimeInvoker_Void_t1185182177_Int32_t2950945753_RuntimeObject_RuntimeObject_RuntimeObject_RuntimeObject_RuntimeObject_SByte_t1669577662PFvvEPK10MethodInfoPvPS4_
mLf:_Guid_op_Equality_m4289903222
Xw:__ZN27AnimationLayerMixerPlayable13SetInputCountEi
tPa:__ZNK25SingleBlockMemoryFileData4SizeEv
Yic:__ZNK21ScriptingObjectOfTypeI9Texture2DEptEv
iB:__ZN9BlobWrite8TransferIN7mecanim12statemachine18StateMachineMemoryEEEvRT_PKc17TransferMetaFlags
pK:__ZL50UnityAudioEffect_InternalSetFloatParameterCallbackP14FMOD_DSP_STATEif
ktj:__ZNK15dense_hashtableINSt3__24pairIK10KeyWrapperIP12Il2CppObjectEN6il2cpp2gc9CachedCCWEEES5_NS7_5utils11PointerHashIS3_EEN14dense_hash_mapIS5_S9_SD_NS5_14EqualsComparerINS0_8equal_toIS4_EEEENS0_9allocatorISA_EEE9SelectKeyESI_SK_E3endEv
Oyf:_DateTime_System_IConvertible_ToUInt32_m3781235049
vFg:__Z92RuntimeInvoker_Int32_t2950945753_RuntimeObject_RuntimeObject_SByte_t1669577662_RuntimeObjectPFvvEPK10MethodInfoPvPS4_
JJd:_Int64_System_IConvertible_ToType_m3223988955
xUb:__ZN14qsort_internal5QSortIP16RenderObjectDatai25RenderPrePassObjectSorterEEvT_S4_T0_T1_
mpf:_SymmetricAlgorithm_Dispose_m1120980942
Jba:__ZL19StaticCleanupPlayerPv
xSd:_MonoCustomAttrs_RetrieveAttributeUsage_m2717094301
OLd:_DirectoryInfo_Initialize_m1389772934
K8b:__ZN13PlayableGraph4StopEv
_kg:_AnimationCurve_Init_m425927913
mL:__ZN12AudioManager37RebindAudioSourcesAndSubMixersToMixerEP10AudioMixer
YJa:__ZN9Behaviour10DeactivateE19DeactivateOperation
vXe:_LayoutGroup_DelayedSetDirty_m2562435574
h2a:__ZN13StreamingInfo8TransferI14SafeBinaryReadEEvRT_
kia:__ZN15dense_hashtableINSt3__24pairIKiN4core17string_with_labelILi1EEEEEi18SInt32HashFunctionN14dense_hash_mapIiS5_S7_NS0_8equal_toIiEE13stl_allocatorIS6_L18MemLabelIdentifier1ELi16EEE9SelectKeyESA_SD_E15insert_noresizeERKS6_
Swj:__ZN6il2cpp2vmL22RaiseOverflowExceptionEv
Vp:__Z23CalculateGlobalRotation23TransformAccessReadOnly
Pma:__ZNK9ShaderLab7Program11IsSupportedEPK6Shader
U$:__ZNK4core8hash_mapIPKcPK4RTTIN11TypeManager23ConstCharPtrHashFunctorENS6_19ConstCharPtrEqualToEE6lookupERKS2_
O1d:_TypeBuilder_GetMethodImpl_m3583143647
dli:__ZL54LayoutGroup_t2436138090_CustomAttributesCacheGeneratorP21CustomAttributesCache
HLj:_strcat
P5b:__Z43InitializeRendererAnimationBindingInterfacev
_aa:__ZL26DestroyGameObjectRecursiveR10GameObjectR11BatchDelete
fDj:_GC_allochblk_nth
k1c:_BaseInput_get_touchSupported_m2634027966
k1e:_ScrollRect_get_vScrollingNeeded_m1717136831
zIi:_SymmetricTransform_FinalEncrypt_m748885414
b5b:__Z7HaloTexP9Texture2DPhiiii
sQj:dynCall_i
zIj:__ZNK6il2cpp8metadata23Il2CppGenericMethodHashclEPK19Il2CppGenericMethod
hrb:__ZN14SafeBinaryRead21TransferSTLStyleArrayI13dynamic_arrayIxLj8EEEEvRT_17TransferMetaFlags
FPj:dynCall_f
Fcf:_ListDictionary_GetEnumerator_m3395631195
Iub:__Z35Transfer_Blittable_FixedBufferFieldI24GenerateTypeTreeTransferjEvRK29SerializationCommandArgumentsR31RuntimeSerializationCommandInfo
M9e:_KeyPairPersistence_Save_m3111435398
XOj:dynCall_v
WDa:__ZN7ApiGLES14TextureSamplerEjjRK24GfxTextureSamplingParams17TextureColorSpace
uBd:_SortedList_System_Collections_IEnumerable_GetEnumerator_m2738760439
Qlj:__ZN6il2cpp2vm6Thread8SetStateEP12Il2CppThreadNS0_11ThreadStateE
vSa:__ZN6Camera23VirtualRedirectTransferER14SafeBinaryRead
glg:_Application_get_isEditor_m857789090
HXc:__ZN11UnityEngine7Connect13ConnectConfig11ConfigValueD2Ev
TEa:__ZNSt3__26__treeINS_12__value_typeIjP14DataBufferGLESEENS_19__map_value_compareIjS4_NS_4lessIjEELb1EEENS_9allocatorIS4_EEE7destroyEPNS_11__tree_nodeIS4_PvEE
Dae:_ASN1Convert_ToInt32_m2228176117
Alg:_AssetBundleRequest_t699759206_marshal_pinvoke_back
X8b:__ZN13PlayableGraph15SetPrepareStageE13DirectorStage
zb:invoke_viiiiiiii
hGd:_Int16_System_IConvertible_ToDateTime_m3080274979_AdjustorThunk
mFh:_Collection_1_ConvertItem_m1760499239_gshared
YEa:__ZN18GfxFramebufferGLES24UpdateDefaultFramebufferEP17RenderSurfaceBaseS1_N2gl6HandleILNS2_10ObjectTypeE9EEE
cPg:__Z74RuntimeInvoker_RuntimeObject_RuntimeObject_Double_t594665363_RuntimeObjectPFvvEPK10MethodInfoPvPS4_
sXi:_Animator_ResetTrigger_m2321267720
reb:__ZN18StreamedBinaryReadILb0EE21TransferSTLStyleArrayI13dynamic_arrayIiLj4EEEEvRT_17TransferMetaFlags
m4a:__ZN16LightmapSettings5ResetEv
UMa:__ZN12FileAccessor4ReadEyPvPy
lFg:__Z67RuntimeInvoker_Void_t1185182177_Int16_t2552820387_Int32_t2950945753PFvvEPK10MethodInfoPvPS4_
coc:__Z42Register_UnityEngine_Event_get_commandNamev
v8g:_Collection_1_IsValidItem_m714924194_gshared
Epc:__ZN5Unity9rapidjson12PrettyWriterI16TempBufferWriterNS0_4UTF8IcEES4_13JSONAllocatorE12PrettyPrefixENS0_4TypeE
iYf:_UnicodeEncoding_GetString_m332467280
oec:__ZN8TypeTreeC2E10MemLabelId
M1:__ZNK15FileSystemEntry6ExistsEv
Ubb:__ZNK9Transform21GetLocalToWorldMatrixER10Matrix4x4f
nBg:_Transform_INTERNAL_get_rotation_m2413441996
l6c:_TouchInputModule_IsModuleSupported_m384818291
rAf:_DateTime_ToString_m884486936
tbe:_MD4Managed_HashCore_m3384203071
uH:__ZN13AudioListener23VirtualRedirectTransferER19StreamedBinaryWriteILb0EE
Oee:_ClientRecordProtocol_createClientHandshakeMessage_m3325677558
mra:__ZN13GfxDeviceGLES11CopyTextureE9TextureIDS0_
IBd:_SortedList_get_Capacity_m919184864
Bag:_Dictionary_2_ContainsKey_m2278349286_gshared
XSj:_emscripten_glViewport__wrapper
YT:__ZN11UnityEngine15CloudWebService23WebRequestUploadHandler13GetUploadDataERj
Kng:_Color32_ToString_m403383053_AdjustorThunk
Kmf:_RIPEMD160Managed_GG_m3020389474
yVi:_Canvas_get_sortingOrder_m1860900812
pme:_ConfigHandler_ReadChannel_m781299361
Xwg:_Rect_get_max_m350137314
RQg:__Z99RuntimeInvoker_Void_t1185182177_Int32_t2950945753_Int32_t2950945753_SByte_t1669577662_RuntimeObjectPFvvEPK10MethodInfoPvPS4_
xGc:_tt_size_select
Hme:_InternalRemotingServices_GetCachedSoapAttribute_m1042302982
mS:__ZN11UnityEngine15CloudWebService17SessionEventQueue15RestoreFromFileER12FileAccessorPvy
FYd:_ConstructorBuilder_GetILGenerator_m1421260830
coj:__ZN6il2cpp2vm9Exception25RaiseOutOfMemoryExceptionEv
Idb:__ZN14PlayerSettingsD2Ev
gZe:_RectMask2D_RemoveClippable_m773604960
yHh:__ZL51Attribute_t861562559_CustomAttributesCacheGeneratorP21CustomAttributesCache
LRd:_Math_Ceiling_m625148210
VBj:_GC_reclaim_all
vea:__ZN13PlayableGraph14DestroyOutputsEv
pEh:_Enumerator_System_Collections_IEnumerator_get_Current_m3895111131_gshared
nf:___syscall122
JDd:_Convert_ToDecimal_m2858622624
rVd:_OperatingSystem__ctor_m1545635730
Kxh:_List_1_RemoveAll_m2406195485_gshared
mnb:__ZNK17InstancingBatcher25FillInstanceBufferWithJobIN10Instancing11DrawAPIArgsEEEvR8JobFenceR13dynamic_arrayIPvLj4EEjjRKT_
LO:__ZN9AudioClip16EnableLegacyModeEv
$ne:_Context_DoCallBack_m749197451
cWi:_CanvasRenderer_set_materialCount_m4286588063
Ifc:__Z52Register_UnityEngine_Camera_INTERNAL_CALL_RaycastTryv
oLj:_mkdir
fMi:_VerticalLayoutGroup_SetLayoutHorizontal_m84550911
ief:_HttpWebRequest_get_ServicePoint_m3916606901
IFj:__GLOBAL__sub_I_MemoryMappedFile_cpp
Skg:_Enumerator_MoveNext_m29052175_AdjustorThunk
wzg:_SendMouseEvents_SetMouseMoved_m2822596724
Rdc:__ZN18ScriptingArguments13CopyFromOtherERKS_
Fbf:_PKCS12_ReadSafeBag_m1585166574
GIc:_ps_hints_close
w7b:__Z16CreateRenderLoopR6Camera
vEb:__ZN32SerializationCommandQueueBuilder3AddERK20SerializationCommand
aX:_tlsf_create
Pgh:_ReadOnlyCollection_1_System_Collections_IEnumerable_GetEnumerator_m2505713430_gshared
Veb:__ZN14SafeBinaryRead21TransferSTLStyleArrayINSt3__26vectorIN15ResourceManager10DependencyE13stl_allocatorIS4_L18MemLabelIdentifier52ELi16EEEEEEvRT_17TransferMetaFlags
ODb:__ZN13MonoBehaviour23VirtualRedirectTransferER18StreamedBinaryReadILb0EE
Jja:__ZN9ShaderLab20SerializedSubProgramC2ERKS0_
FMd:_FileLoadException__ctor_m3879680456
psi:_Array_InternalArray__get_Item_TisKeyValuePair_2_t71524366_m252172060_gshared
pNj:__ZNK10__cxxabiv121__vmi_class_type_info27has_unambiguous_public_baseEPNS_19__dynamic_cast_infoEPvi
dUd:_MulticastDelegate_CombineImpl_m2857239134
g6f:_Version_op_Inequality_m1696193441
o8d:_Marshal_ReadByte_m1960935664
t5a:__ZN15QualitySettings23VirtualRedirectTransferER19StreamedBinaryWriteILb0EE
FQb:__Z20RenderFullScreenQuadR9GfxDeviceRK6Camera17ShaderChannelMaskRK5RectTIfEf21MonoOrStereoscopicEye
lxd:_ArrayListWrapper_CopyTo_m3756520478
Y6d:_ResourceInfo_t2872965302_marshal_pinvoke
a6b:__ZN8Material8GetFloatEN9ShaderLab16FastPropertyNameE
mmc:__Z11GetGUIStatev
ng:_glGetActiveUniform
PQf:_Array_InternalArray__IndexOf_TisSlot_t3975888750_m4250446283_gshared
ug:_emscripten_glGetObjectParameterivARB
_Ci:_CharacterClass_AddCharacter_m2370152363
h7:__ZN15SerializeTraitsI10ColorRGBAfE8TransferI14SafeBinaryReadEEvRS0_RT_
sbh:_Collection_1_IsValidItem_m2333176545_gshared
Gba:__ZN22BuiltinResourceManager13StaticDestroyEPv
l2i:__ZN15dense_hashtableINSt3__24pairIK10KeyWrapperIN6il2cpp5utils13dynamic_arrayIPK10Il2CppTypeLj4EEEEPFvvEEESA_NS3_8metadata19Il2CppSignatureHashEN14dense_hash_mapISA_SD_SG_NSA_14EqualsComparerINSF_22Il2CppSignatureCompareEEENS0_9allocatorISE_EEE9SelectKeyESK_SM_E4findERSB_
Saa:__ZN10GameObject17GetComponentIndexEPN5Unity9ComponentE
Z6a:__ZN14SafeBinaryRead21TransferSTLStyleArrayI13dynamic_arrayI7SubMeshLj4EEEEvRT_17TransferMetaFlags
Hni:_Array_InternalArray__set_Item_TisILTokenInfo_t2325775114_m309595583_gshared
LMc:__ZNK13TextRendering4Font11GetMaterialEv
bK:__ZN29AudioEffectInternalDefinition9CreateDSPEPN4FMOD6SystemEPvPfP23UnityAudioAmbisonicDataPP25UnityAudioSpatializerData
mIc:_UNITY_tt_face_vary_cvt
H5e:_SimpleCollator_ClearBuffer_m2975394169
uFi:_Event_Internal_GetMousePosition_m1101229675
TZb:__ZN35RegisterRuntimeInitializeAndCleanup22ExecuteInitializationsEv
_pf:_TripleDESCryptoServiceProvider_CreateEncryptor_m450924958
uEi:_UriParser_GetParser_m544052729
AVe:_Text_get_font_m2857203289
xLa:__ZN23PreloadManagerOperation14SetFinalTimingEffff
i:DYNAMICTOP_PTR
l0d:_MethodBuilder_fixup_m1765890582
mue:_ObjectReader_ReadSimpleArray_m428957657
sdb:__ZN13BuildSettings8TransferI18StreamedBinaryReadILb0EEEEvRT_
cSd:_MissingFieldException__ctor_m4282575076
MCf:_Decimal_Equals_m2592017260
Yme:_ConfigHandler_OnEndParsing_m3764034673
$me:_RemotingConfiguration_RegisterTypes_m2378540395
_kc:__Z38Renderer_Get_Custom_PropSortingLayerIDP12Il2CppObject
RCe:_InternalEnumerator_1_System_Collections_IEnumerator_get_Current_m767948013_gshared
bog:_DelegatePInvokeWrapper_CSSMeasureFunc_t1554030124
nlg:_UnityAction_Invoke_m893829196
gMa:__ZN14AsyncOperationD0Ev
vva:__Z29TextureIdMapGLES_QueryOrAlloc9TextureID
hej:__ZN15dense_hashtableINSt3__24pairIK10KeyWrapperINS1_IPK12PropertyInfoP11Il2CppClassEEEjEES9_17ReflectionMapHashIS8_EN14dense_hash_mapIS9_jSD_NS9_14EqualsComparerINS0_8equal_toIS8_EEEENS0_9allocatorISB_EEE9SelectKeyESI_SK_E12resize_deltaEjj
png:_Color_GetHashCode_m1829208463
idc:__Z25scripting_raise_exception21ScriptingExceptionPtr
gWe:_Text_get_cachedTextGeneratorForLayout_m116487342
QXi:__ZL11decimalLog2P19il2cpp_decimal_repr
cfb:__ZN15ResourceManager10Dependency8TransferI14SafeBinaryReadEEvRT_
z6g:_Collection_1_System_Collections_IList_Remove_m3800279569_gshared
xBj:_GC_extend_size_map
B3e:_Text_FontTextureChanged_m495427969
DHd:_NumberFormatter_RoundDecimal_m2957290908
FK:__ZN4FMOD6System9setDriverEi
DY:__ZNK9Transform11GetRotationEv
cUj:_emscripten_glGetIntegerv__wrapper
MK:__ZN12AudioManager15DidReloadDomainEv
BSf:_Array_InternalArray__ICollection_Add_TisSingle_t1397266774_m1873979703_gshared
bJc:_pshinter_get_globals_funcs
Jub:__Z18Transfer_BlittableI24GenerateTypeTreeTransferLb0EyEvRK29SerializationCommandArgumentsR31RuntimeSerializationCommandInfo
y$a:__ZN8Material14CreateMaterialER6ShaderN6Object9HideFlagsEb
d0f:_TimeSpan_get_Minutes_m4278980001_AdjustorThunk
kFc:_tt_cmap12_char_map_binary
LFi:_GUI__cctor_m3051457990
o2c:_EventSystem_IsPointerOverGameObject_m1911785875
r5:__Z25GetBuiltinResourceManagerv
Jsj:__ZN6il2cpp2gc8GCHandle15GetTargetHandleEP12Il2CppObjectii
qId:_Int32_System_IConvertible_ToByte_m3832391412
Mh:_llvm_trap
naa:__ZNSt3__27__sort5IRNS_6__lessIN12_GLOBAL__N_114ParamNameIndexES3_EEPS3_EEjT0_S7_S7_S7_S7_T_
Axi:_X509Certificate_VerifySignature_m3988463526
jyg:_RectTransform_get_anchoredPosition_m1813443094
UBj:_get_index
QFd:_GuidParser_AtEnd_m3409982497
q9e:_KeyBuilder_Key_m876696100
ZFe:_InternalEnumerator_1_System_Collections_IEnumerator_get_Current_m2164048921_gshared
jbj:__ZN15dense_hashtableINSt3__24pairIK10KeyWrapperINS1_IPK14Il2CppAssemblyP11Il2CppClassEEEjEES9_17ReflectionMapHashIS8_EN14dense_hash_mapIS9_jSD_NS9_14EqualsComparerINS0_8equal_toIS8_EEEENS0_9allocatorISB_EEE9SelectKeyESI_SK_EC2ERKSN_j
L5i:__ZN6il2cpp2vm21ThreadPoolCompartment12DetachThreadEP12Il2CppThread
Fhd:_SByte_System_IConvertible_ToInt16_m885121451_AdjustorThunk
NBf:_Decimal_stripStyles_m1823381019
Lqa:__ZN13GfxDeviceGLES30SetBackBufferColorDepthSurfaceEP17RenderSurfaceBaseS1_
Soc:__Z52Register_UnityEngine_GUIUtility_get_systemCopyBufferv
Yri:_LayoutGroup_SetProperty_TisBoolean_t97287965_m3903959758_gshared
h9b:__ZN16StreamedResource8TransferI18StreamedBinaryReadILb0EEEEvRT_
Ohc:__Z49Register_UnityEngine_Input_get_imeCompositionModev
Qzg:_Sprite_INTERNAL_get_rect_m1600380876
jia:__ZN15dense_hashtableINSt3__24pairIKiN4core17string_with_labelILi1EEEEEi18SInt32HashFunctionN14dense_hash_mapIiS5_S7_NS0_8equal_toIiEE13stl_allocatorIS6_L18MemLabelIdentifier1ELi16EEE9SelectKeyESA_SD_E12resize_deltaEjj
SWb:__ZNK20OcclusionCullingData22GetStaticRendererCountEv
ywc:__GLOBAL__sub_I_runtime_particlesystem_modules_5_cpp
CVj:_emscripten_glDisableVertexAttribArray__wrapper
fVd:_Object_InternalGetHashCode_m4213713973
iTd:_MonoType_GetAttributeFlagsImpl_m167182975
Sce:_EncryptedData_get_EncryptedContent_m3205649670
wbb:__ZN12MeshRenderer18CalculateLocalAABBER4AABBRKS_RK4Mesh
VV:__ZN21UnityDefaultAllocatorI17LowLevelAllocatorE8AllocateEji
tx:__ZN7mecanim5human14HumanPoseClearERNS0_9HumanPoseERKNS_6bitsetILj83EEE
yPc:__ZL28InitializeUIScriptingClassesv
NTg:__Z54RuntimeInvoker_Vector2_t2156229523_Vector3_t3722313464PFvvEPK10MethodInfoPvPS4_
CHb:__ZN10UnityScene10ClearRootsEv
ygh:_ReadOnlyCollection_1_System_Collections_IList_set_Item_m2162444692_gshared
llb:__ZN12HandlerChain10AtomicMoveER13FileEntryDataS1_
$Ga:__ZN9GfxDevice17HasGPUFencePassedEPv
$da:__ZZN15DirectorManager15InitializeClassEvEN48PreLateUpdateDirectorDeferredEvaluateRegistrator7ForwardEv
xyc:__ZN20SpeedTreeWindManager6UpdateEf
aKg:__Z68RuntimeInvoker_Int64_t3736567304_IntPtr_t_MonoIOErrorU26_t1548853198PFvvEPK10MethodInfoPvPS4_
XC:__ZN7mecanim9animation20CreateAvatarConstantEPNS_8skeleton8SkeletonEPNS1_13SkeletonPoseTIN4math4trsXEEES8_PNS_5human5HumanES3_iRKS6_RNS_6memory9AllocatorE
Tab:__ZN14CompressedMesh8TransferI19StreamedBinaryWriteILb0EEEEvRT_
sUf:_Array_InternalArray__Insert_TisDouble_t594665363_m675699942_gshared
Uzh:_List_1_System_Collections_IList_Add_m3014885234_gshared
Mnh:_UnityAction_1_Invoke_m3535252839_gshared
Szj:__ZNK6il2cpp5utils13VmStringUtils21CaseSensitiveComparerclERKNSt3__212basic_stringIcNS3_11char_traitsIcEENS3_9allocatorIcEEEEPKc
X1e:_Selectable_set_isPointerInside_m701571657
BVa:__ZN24GenerateTypeTreeTransfer8TransferI21PlatformShaderDefinesEEvRT_PKc17TransferMetaFlags
Meb:__ZNK15ResourceManager22GetTypeVirtualInternalEv
zqj:__ZN6il2cpp2vmL36AddNestedTypesToNametoClassHashTableEPK11Il2CppImagePK20Il2CppTypeDefinition
CBh:_List_1_set_Capacity_m2707586410_gshared
pug:_PlayerConnection_MessageCallbackInternal_m1914517467
Nlg:_AttributeHelperEngine__cctor_m1900959362
MJc:__ZN13TextRendering4Font23VirtualRedirectTransferER24GenerateTypeTreeTransfer
Qhi:__ZL102Image_t2670269651_CustomAttributesCacheGenerator_Image_t2670269651____eventAlphaThreshold_PropertyInfoP21CustomAttributesCache
lgf:_X509SubjectKeyIdentifierExtension_ToString_m12089275
xWg:__Z106RuntimeInvoker_RuntimeObject_RuntimeObject_Int32_t2950945753_Int16_t2552820387_RuntimeObject_RuntimeObjectPFvvEPK10MethodInfoPvPS4_
B5f:_UnhandledExceptionEventArgs__ctor_m224348470
m0b:__ZL16MouseMoveHandleriPK20EmscriptenMouseEventPv
FQf:_Array_InternalArray__IndexOf_TisByte_t1134296376_m929524687_gshared
qP:__ZN11AudioSource15InitializeClassEv
s3c:_ExecuteEvents_get_dragHandler_m3849431675
gQb:__ZN11HaloManager17RenderGeometryJobEP25DynamicVBOGeometryJobDataj
Fug:_Object_DestroyImmediate_m2288369078
A8e:_BitConverterLE_UShortFromBytes_m1253080092
lE:__ZNSt3__227__insertion_sort_incompleteIRPFbN7mecanim9animation13MuscleIndexIdES3_EPS3_EEbT0_S8_T_
OVj:_emscripten_glBlendEquation__wrapper
Ekj:__ZN15dense_hashtableINSt3__24pairIK10KeyWrapperIP11Il2CppClassES4_EES5_N6il2cpp8metadata16SZArrayClassHashEN14dense_hash_mapIS5_S4_SA_NS5_14EqualsComparerINS9_19SZArrayClassCompareEEENS0_9allocatorIS7_EEE9SelectKeyESE_SG_E13set_empty_keyERKS7_
iMj:__ZNSt3__212basic_stringIcNS_11char_traitsIcEENS_9allocatorIcEEE6__initEPKcj
Tj:_emscripten_set_fullscreenchange_callback
ejh:_ReadOnlyCollection_1_System_Collections_IList_Insert_m4085855595_gshared
tAi:_PatternCompiler_NewLink_m3699449496
fV:__ZN11UnityEngine15CloudWebService14DataDispatcher22ResetNetworkRetryIndexEv
Yj:_emscripten_glDrawArrays
tsg:_Material_HasProperty_m2704238996
zKb:__ZZ23InitPlayerLoopCallbacksvEN43EarlyUpdateExecuteMainThreadJobsRegistrator7ForwardEv
IU:__ZN11UnityEngine15CloudWebService19SessionEventManagerC2Ev
jvd:_Char_System_IConvertible_ToSingle_m2690985411_AdjustorThunk
gkh:_Comparison_1_Invoke_m668117148_gshared
wcf:_DictionaryNodeEnumerator_FailFast_m2494733641
O6:__ZN14GfxDoubleCacheIyP17VertexDeclaration14GfxGenericHashIyENSt3__28equal_toIyEEN31GfxDoubleCacheConcurrencyPolicy11LocklessGetE42GfxDoubleCacheDefaultEmptyDeletedGeneratorIyEE3GetI15VertDeclCreatorEERKS1_RKyT_
A0c:__ZN13RuntimeStaticI14dynamic_bitsetLb0EE16StaticInitializeEPv
Iga:__ZNSt3__222__merge_move_constructIRNS_4lessIN4core12basic_stringIcNS2_20StringStorageDefaultIcEEEEEENS_11__wrap_iterIPS6_EESB_EEvT0_SC_T1_SD_PNS_15iterator_traitsISC_E10value_typeET_
xfc:__Z41Register_UnityEngine_Camera_get_eventMaskv
GP:__ZL19CleanupModule_Audiov
ymf:_IntervalCollection_CopyTo_m2976848759
k8c:_CanvasUpdateRegistry_ObjectValidForUpdate_m2723813849
mDa:__ZN18GlslGpuProgramGLES25LoadFromBinaryShaderCacheERjRKN4core12basic_stringIcNS1_20StringStorageDefaultIcEEEER17ShaderChannelMaskPKc
Lxh:_List_1_RemoveAt_m1433290785_gshared
Nrb:__Z29Transfer_Blittable_ArrayFieldI14SafeBinaryReadiEvRT_R9ArrayInfoRK23StaticTransferFieldInfo
B6i:__ZN6il2cpp6icalls8mscorlib6System8MonoType8GetFieldEP20Il2CppReflectionTypeP12Il2CppStringi
G2i:__ZN15dense_hashtableINSt3__24pairIK10KeyWrapperIN6il2cpp5utils13dynamic_arrayIPK10Il2CppTypeLj4EEEEPFvvEEESA_NS3_8metadata19Il2CppSignatureHashEN14dense_hash_mapISA_SD_SG_NSA_14EqualsComparerINSF_22Il2CppSignatureCompareEEENS0_9allocatorISE_EEE9SelectKeyESK_SM_E5clearEv
vof:_SHA256Managed_ProcessBlock_m2297835517
rUj:_emscripten_glVertexAttrib3fv__wrapper
dog:_CSSMeasureFunc_Invoke_m3910201085
HCd:_Convert_ToBoolean_m4098720762
_ih:_ReadOnlyCollection_1_System_Collections_ICollection_CopyTo_m511916545_gshared
wNf:_Array_InternalArray__ICollection_Remove_TisOrderBlock_t1585977831_m1449044465_gshared
GUi:_DisplayBuffer_OnCommand_m444302511
zWd:_AssemblyName__ctor_m1753467291
E2e:_Slider_set_minValue_m3431883418
tcc:__ZN8Material10GetTextureEN9ShaderLab16FastPropertyNameE
EQe:_Enumerator_System_Collections_IEnumerator_get_Current_m1657817602_gshared
Gab:__ZN18StreamedBinaryReadILb0EE21TransferSTLStyleArrayI13dynamic_arrayI10Matrix4x4fLj16EEEEvRT_17TransferMetaFlags
D3b:__ZNK28MonoBehaviourPropertyBinding13GetFloatValueERKN11UnityEngine9Animation10BoundCurveE
tNe:_KeyCollection_System_Collections_ICollection_get_SyncRoot_m2999306921_gshared
KDj:_GC_generic_malloc
Eff:_WebHeaderCollection_get_Keys_m910440889
MGa:__Z19GetVertexFormatSize12VertexFormat
Ap:__ZN14SafeBinaryRead21TransferSTLStyleArrayI13dynamic_arrayIiLj4EEEEvRT_17TransferMetaFlags
lDg:_Vector4__cctor_m2519631228
LZb:__ZNK18ScreenManagerWebGL13GetShowCursorEv
bxd:_ArrayListWrapper_Clear_m2625302714
nYj:_emscripten_glIsTexture__wrapper
gee:_CipherSuiteCollection_System_Collections_IEnumerable_GetEnumerator_m3240848888
FNj:_llvm_bswap_i32
xkh:_Comparison_1_BeginInvoke_m3417636795_gshared
DFd:_Convert_ToUInt64_m1627266664
nqa:__ZN9GfxDevice25ReleaseAsyncCommandHeaderEPN21GfxDeviceAsyncCommand3ArgE
CMe:_Enumerator_get_Current_m1327963819_AdjustorThunk
myi:_X509Crl_Parse_m3164013387
Vub:__ZL22Transfer_ManagedObjectI24GenerateTypeTreeTransferLb0EEvRK29SerializationCommandArgumentsR31RuntimeSerializationCommandInfo
PDb:__ZN13MonoBehaviour23VirtualRedirectTransferER17RemapPPtrTransfer
zGa:__ZN21UniformBufferTFMethod20IsBoneCountSupportedEi
Cng:_Color_get_black_m719512684
Ked:_HorizontalLayoutGroup_CalculateLayoutInputHorizontal_m750541069
txj:__ZN6il2cpp6icalls8mscorlib6System11Environment11get_NewLineEv
Uif:_X509CertificateCollection__ctor_m1395805580
z6d:_ResourceReader_CreateResourceInfo_m1818330740
zfe:_ClientSessionInfo_Dispose_m3253728296
u$a:__ZN6Shader27MarkShaderStateNotSupportedEPKS_
Cug:_Object_Internal_CloneSingle_m1021157572
aGa:__ZN25TransformFeedbackSkinning8SkinMeshERK18VertexStreamSourceP9GfxBufferP17GPUSkinPoseBufferS4_ii17ShaderChannelMaskb
_pj:__ZN15dense_hashtableINSt3__24pairIK10KeyWrapperIP14Il2CppIUnknownEjEES5_N6il2cpp5utils11PointerHashIS3_EEN14dense_hash_mapIS5_jSB_NS5_14EqualsComparerINS0_8equal_toIS4_EEEENS0_9allocatorIS7_EEE9SelectKeyESG_SI_E12resize_deltaEjj
p6d:_ResolveEventArgs__ctor_m1455935166
G1f:_Type_Equals_m1673304139
tQd:_SynchronizedReader_Read_m1388613247
mxb:__Z22TransferField_NonArrayI19StreamedBinaryWriteILb0EE27Converter_SimpleNativeClassI8GUIStyleEEvRK23StaticTransferFieldInfoR31RuntimeSerializationCommandInfoRT0_
w$e:_Scrollbar_OnPointerDown_m3213715319
Wvc:__ZN8JSONRead8TransferIN4math12int3_storageEEEvRT_PKc17TransferMetaFlagsb
uLb:__ZN27IntermediateRendererManager29ClearAllIntermediateRenderersEv
x5c:_StandaloneInputModule__ctor_m2419721820
dJe:_Comparer_1_System_Collections_IComparer_Compare_m2018996185_gshared
Wp:__Z17CalculateGlobalSM23TransformAccessReadOnlyRKN4math7_float4E
czd:_CollectionBase_System_Collections_IList_Contains_m2994901969
Yl:_emscripten_glLoadIdentity
f_b:__ZNSt3__26vectorINS_4pairIN4core12basic_stringIcNS2_20StringStorageDefaultIcEEEEPK17MessageIdentifierEENS_9allocatorISA_EEE26__swap_out_circular_bufferERNS_14__split_bufferISA_RSC_EEPSA_
fEd:_Convert_ToInt16_m2896657713
Tug:_Vector3_get_zero_m1409827619
mVb:__Z29CullShadowCastersWithoutUmbraR9IndexListRK17CullingParametersPK4AABBjj
ooa:__ZN6Shader16GetDefaultOrNullEv
wp:__ZN4AABB8TransferI14SafeBinaryReadEEvRT_
jMf:_Array_InternalArray__ICollection_Contains_TisX509ChainStatus_t133602714_m795171973_gshared
$nj:__ZN6il2cpp2vm8Liveness8FromRootEP12Il2CppObjectPv
Fbb:__ZN12MeshRenderer23VirtualRedirectTransferER19StreamedBinaryWriteILb0EE
_4a:__ZN18StreamedBinaryReadILb0EE21TransferSTLStyleArrayI13dynamic_arrayI12LightmapDataLj4EEEEvRT_17TransferMetaFlags
RNa:__ZNK17ArchiveFileSystem9EnumerateEPKcP19dynamic_block_arrayI13FileEntryInfoLj32EEbPPv19FileEnumerationFlag
b0b:__Z11MD5ToStringPh
zhc:__Z38Input_Get_Custom_PropCompositionStringv
N3e:_Text_get_alignment_m1496827807
lbf:_ContentInfo_get_ASN1_m1776225219
IS:__ZN9JSONWrite8TransferIN4core12basic_stringIcNS1_20StringStorageDefaultIcEEEEEEvRT_PKc17TransferMetaFlags
_Ed:_Convert_ToSingle_m2533452644
rMj:__ZNSt3__212basic_stringIcNS_11char_traitsIcEENS_9allocatorIcEEE6resizeEjc
Ldb:__ZN14PlayerSettings16CheckConsistencyEv
pO:__ZN11AudioModule30GetOrCreateDSPFromCustomFilterEP17AudioCustomFilter
MTa:__ZN19AtomicPageAllocatorD2Ev
C2c:_EventTrigger_OnPointerEnter_m986348926
lpj:__ZN6il2cpp6icalls8mscorlib6System13GlobalizationL20culture_lcid_locatorEPKvS5_
bqf:_X509Certificate__ctor_m1413707489
Y1a:__ZNK12CubemapArray16ExtractImageImplEP14ImageReferenceNS0_8BlitModeEbi
dic:__Z63Register_UnityEngine_MonoBehaviour_StartCoroutine_Auto_Internalv
DRj:_glTexStorage3D__wrapper
Xdb:__ZN10VRSettings8TransferI14SafeBinaryReadEEvRT_
g2f:_Type_IsMarshalByRefImpl_m914778231
Vzd:_Hashtable__ctor_m2302711321
ja:invoke_viifiiii
Aud:_Byte_TryParse_m1467448483
aVi:_DelegatePInvokeWrapper_OnCommandSentHandler_t613111342
D$c:__ZN20UnityWebRequestProtoI24UnityWebRequestTransport16AtomicRefCounter14RedirectHelper14ResponseHelper15DownloadHandler13UploadHandler12HeaderHelper14AsyncOperationE8FinalizeEv
vAg:_Texture2D_get_whiteTexture_m2176011403
R3:__ZN22PerThreadPageAllocator14AcquireNewPageEj
NK:__ZN24AudioScriptBufferManager15DidReloadDomainEv
Mkh:_Func_2_Invoke_m3516477887_gshared
W6h:__ZL65SelectionBaseAttribute_t3493465804_CustomAttributesCacheGeneratorP21CustomAttributesCache
Avf:_String_ToString_m3872792296
$tb:__Z18Transfer_BlittableI24GenerateTypeTreeTransferLb1E9BoundsIntEvRK29SerializationCommandArgumentsR31RuntimeSerializationCommandInfo
yMd:_FileStream_GetSecureFileName_m449783930
tRb:__ZN6Camera13ClearNoSkyboxEb
kRd:_UnexceptionalStreamWriter_Flush_m82278468
ICe:_InternalEnumerator_1_get_Current_m3911557813_gshared
V1i:__ZNK15dense_hashtableI10KeyWrapperIPK17Il2CppGenericInstES4_N6il2cpp8metadata21Il2CppGenericInstHashEN14dense_hash_setIS4_S7_NS4_14EqualsComparerINS6_24Il2CppGenericInstCompareEEENSt3__29allocatorIS4_EEE8IdentityESB_SE_E12test_deletedEj
cSa:__ZN19StreamedBinaryWriteILb0EE21TransferSTLStyleArrayI13dynamic_arrayI17SortingLayerEntryLj4EEEEvRT_17TransferMetaFlags
l1c:_BaseInput_get_touchCount_m1263753282
Cae:_ASN1Convert_FromOid_m3844102704
kre:_RemotingSurrogate_SetObjectData_m2713731796
exf:_DecoderReplacementFallbackBuffer_Reset_m3943028589
AEa:__ZN18GfxFramebufferGLES10InvalidateEv
chg:_Enumerator_System_Collections_IEnumerator_get_Current_m282279808_AdjustorThunk
HWe:_LayoutRebuilder_MarkLayoutRootForRebuild_m1241498911
GZf:_CompressedStack_CreateCopy_m2591279216
Gnf:_RSAPKCS1KeyExchangeFormatter_CreateKeyExchange_m1611814432
A9:__ZN10MemoryPoolD2Ev
knc:__ZNSt3__26__treeINS_12__value_typeIN4core12basic_stringIcNS2_20StringStorageDefaultIcEEEEN5IMGUI12NamedControlEEENS_19__map_value_compareIS6_S9_NS_4lessIS6_EELb1EEENS_9allocatorIS9_EEE7destroyEPNS_11__tree_nodeIS9_PvEE
fgf:_AsnEncodedData_KeyUsageExtension_m1792651780
Puj:__ZN6il2cpp2os5posix15PosixWaitObjectD2Ev
bNb:__ZNK25CameraStackRenderingState28GetDstTextureForImageFiltersEv
aLj:___mmap
E8b:__ZN9Scripting26RaiseArgumentNullExceptionEPKc
OYj:b120
mX:__ZL18InternalLogConsolePKcz
WJj:_lseek
mAe:_InternalEnumerator_1_get_Current_m685192625_gshared
eRd:_UnexceptionalStreamReader_Read_m16956299
I6d:_ResourceReader_ReadValueVer1_m183253382
L$:__Z37scripting_method_get_nth_argumenttype18ScriptingMethodPtri
SM:__ZN11AudioSource16UpdatePauseStateEv
ada:__ZL52StaticUnregisterSceneLoadedCallback_LightmapSettingsPv
Wmg:_Camera_get_main_m3643453163
JHj:__ZN6il2cpp5utils25NativeDelegateMethodCache17AddNativeDelegateEPFvvEPK10MethodInfo
gYe:_LayoutRebuilder_U3CRebuildU3Em__5_m1288787547
EQb:__ZN27DeviceViewProjMatricesStateD2Ev
Dzg:_SendMouseEvents__cctor_m2378365934
Jdh:_ReadOnlyCollection_1_System_Collections_IList_set_Item_m3582274843_gshared
Isg:_Mathf_Pow_m856735666
Lfa:__ZL39CreateRegisteredMessageIdentifiersArrayPv
Mtb:__Z18Transfer_BlittableI24GenerateTypeTreeTransferLb0E8Vector3fEvRK29SerializationCommandArgumentsR31RuntimeSerializationCommandInfo
q5e:_SimpleCollator_FilterExtender_m72900315
IJc:__ZNK13TextRendering4Font22GetTypeVirtualInternalEv
_af:_SymmetricTransform_CheckInput_m1829858759
vfb:__ZN19StreamedBinaryWriteILb0EE21TransferSTLStyleArrayINSt3__26vectorIN15ResourceManager10DependencyE13stl_allocatorIS5_L18MemLabelIdentifier52ELi16EEEEEEvRT_17TransferMetaFlags
XWd:_Binder_FindMostDerivedMatch_m239579024
UCd:_Convert_ToByte_m3824130483
$Hi:_GUIUtility_EndContainerGUIFromException_m530164245
wWi:_RectTransformUtility_INTERNAL_CALL_RectangleContainsScreenPoint_m1214874141
wya:__ZN6prcoreL10inner_flipILj2EEEvPhS1_j
z8a:__ZNK14Texture2DArray16ExtractImageImplEP14ImageReferenceNS0_8BlitModeEbi
LXf:_StringBuilder_Append_m2383614642
jsc:__ZN9JSONWrite8TransferIbEEvRT_PKc17TransferMetaFlags
XKa:__ZN12TLSAllocatorI14StackAllocatorED0Ev
Jcb:__ZN11TimeManager16CheckConsistencyEv
$Nb:__ZN21GfxDeviceAsyncCommand10ArgScratch15ThreadedCleanupEv
q8b:__Z14DoubleToStringd
iwf:_StringComparer_GetHashCode_m2080455020
ltb:__ZN12NativeBufferI27Converter_UnityEngineObjectE15SetupForWritingER9ArrayInfo
Uuh:_List_1_CheckCollection_m2118769249_gshared
se:_glTexImage3D
zad:_DefaultControls_SetDefaultColorTransitionValues_m2033775311
D0:__ZN14SerializedFile27PatchRemapDeprecatedClassesEv
kVf:_Array_InternalArray__set_Item_TisChar_t3634460470_m741842250_gshared
Uui:_TlsServerSettings_set_RsaParameters_m853026166
P$a:__ZNSt3__26vectorINS_4pairI11ShaderTagIDS2_EENS_9allocatorIS3_EEE6insertENS_11__wrap_iterIPKS3_EERS8_
lzf:_DateTime_AddMilliseconds_m3713972790_AdjustorThunk
vld:_RC2_Create_m2052783340
KKf:_Guid__ctor_m3421080095_AdjustorThunk
NDd:_Convert_ToDouble_m217737046
vTb:__ZN23ForwardShaderRenderLoopD2Ev
wdc:__ZL34GetComponentsImplementationRecurseILb1ELi0ELi1EEbR10GameObjectbRK17CompareParametersRK39GetComponentsImplementation_ReturnValue
tFf:_Double_Equals_m1674752021
EUe:_InputField_OnDisable_m1824300767
oQc:__ZN2UI25AddCanvasRendererToCanvasER8JobFencePNS_12CanvasHandleERNS_10CanvasDataEi
PBd:_SortedList_Clone_m928094797
teb:__ZN10VRSettings8TransferI18StreamedBinaryReadILb0EEEEvRT_
uw:__ZN22AnimationMixerPlayable12MixerProcessEP35AnimationPlayableEvaluationConstantP32AnimationPlayableEvaluationInputP33AnimationPlayableEvaluationOutputM17AnimationPlayableFvS1_S3_S5_EPFvS1_S3_S5_ESA_PFvS5_S1_S3_S5_PN7mecanim16ValueArrayWeightEfEPFvS1_S3_S5_SD_fE
XJe:_Enumerator_get_CurrentKey_m2230405065_gshared
HRd:_Math_Abs_m3912393749
bhe:_TlsClientFinished_ProcessAsSsl3_m3094597606
Zuc:__ZN8JSONRead21TransferSTLStyleArrayI13dynamic_arrayIdLj8EEEEvRT_17TransferMetaFlags
Xmg:_Camera_get_allCamerasCount_m528453758
g6i:__ZN6il2cpp2vm10ThreadPool5QueueEP14Il2CppDelegatePPvS3_P12Il2CppObject
sxb:__Z19TransferField_ArrayI19StreamedBinaryWriteILb0EE27Converter_SimpleNativeClassI8GradientEEvRK23StaticTransferFieldInfoR31RuntimeSerializationCommandInfoRT0_
Bef:_IPv6Address__ctor_m2700673633
huc:__Z18Transfer_BlittableI8JSONReadLb0E12PropertyNameEvRK29SerializationCommandArgumentsR31RuntimeSerializationCommandInfo
tWj:_glGetUniformBlockIndex__wrapper
Hqd:_Array_CreateInstance_m2696293787
YXf:_UnicodeEncoding__ctor_m1074918879
w7a:__ZN7SubMesh8TransferI18StreamedBinaryReadILb0EEEEvRT_
Y0d:_OpCode_Equals_m1376200488_AdjustorThunk
m9c:_ColorBlock_op_Inequality_m2718216889
ff:_emscripten_glIsEnabled
uzb:__ZN18StreamedBinaryReadILb1EE21TransferSTLStyleArrayI13dynamic_arrayIdLj8EEEEvRT_17TransferMetaFlags
vgc:__Z45Register_UnityEngine_GameObject_get_transformv
hZd:_DerivedType_GetConstructors_m483065502
a_:__Z29scripting_class_instance_size17ScriptingClassPtr
Evc:__Z29Transfer_Blittable_ArrayFieldI8JSONRead5RectTIiEEvRT_R9ArrayInfoRK23StaticTransferFieldInfo
P2g:__Z68RuntimeInvoker_Boolean_t97287965_SByte_t1669577662_SByte_t1669577662PFvvEPK10MethodInfoPvPS4_
NUg:__Z165RuntimeInvoker_Void_t1185182177_RuntimeObject_Int32_t2950945753_Int32_t2950945753_RuntimeObject_Int32_t2950945753_Single_t1397266774_Single_t1397266774_RuntimeObjectPFvvEPK10MethodInfoPvPS4_
xc:invoke_iiiiiiiii
iV:__ZN11UnityEngine15CloudWebService19SessionEventManager26ProcessEventQueueJobStaticEPv
Esg:_Mathf_Min_m1073399594
lOe:_KeyCollection__ctor_m4231035512_gshared
ADc:_otv_Coverage_get_last
CV:__ZN11UnityEngine15CloudWebService19SessionEventManager37OnTimerExpiredPerformArchiveJobStaticEPv
brc:__Z18Transfer_BlittableI9JSONWriteLb1E9BoundsIntEvRK29SerializationCommandArgumentsR31RuntimeSerializationCommandInfo
$4e:_MSCompatUnicodeTable_FillCJKCore_m2347268515
rDi:_Group_GetWidth_m3299755715
FDf:_Decimal_op_Implicit_m1920400487
tYa:__ZN10builtintex15GetWhiteTextureEv
are:_MonoMethodMessage_get_TypeName_m3758247133
GAd:_Enumerator_get_Entry_m2184304359
mu:__ZN7mecanim9animation16CreateClipMemoryEPKNS0_4ClipEiRNS_6memory9AllocatorE
MIj:__ZN6il2cpp6icalls8mscorlib6System10Reflection4Emit11DerivedType21create_unmanaged_typeEP20Il2CppReflectionType
hfd:_Image_set_fillCenter_m3776786491
xJj:_printf_core
tfa:__Z29GetOcclusionPortalManagerListv
ijc:__Z39Register_UnityEngine_Sprite_get_texturev
FXi:__ZL10rescale128PyS_Piiiii
WG:__ZN9AudioClip7WWWSeekEPvjS0_
vLh:__ZL63FixedBufferAttribute_t3759792648_CustomAttributesCacheGeneratorP21CustomAttributesCache
R8:__ZL32StaticInitializeIUnityInterfacesPv
ENb:__Z13CameraProjectRK8Vector3fRK10Matrix4x4fS4_RK5RectTIiERS_b
ogb:__ZN30RuntimeInitializeOnLoadManager15ClassMethodInfo8TransferI19StreamedBinaryWriteILb0EEEEvRT_
ica:__Z22CreateMutexLockedStackv
SIb:__ZNSt3__27__sort5IRNS_4lessIN22BuiltinResourceManager8ResourceEEEPS3_EEjT0_S7_S7_S7_S7_T_
vHd:_NumberFormatter_FormatNumber_m1763569482
dhi:__ZL57FontData_t746620069_CustomAttributesCacheGenerator_m_FontP21CustomAttributesCache
Bma:__ZN9ShaderLab11ShaderStateD2Ev
lHc:_Ins_DELTAP
$Eb:__Z23TransferScriptingObjectI24GenerateTypeTreeTransferEvRT_18ScriptingObjectPtr17ScriptingClassPtrPK15MonoScriptCache
xAi:_PatternLinkStack_GetOffset_m3697714525
w$i:_AnalyticsEvent__cctor_m3994162614
kmc:__ZN12GUIClipState5ApplyER10InputEvent
_wb:__ZL17Transfer_GUIStyleI19StreamedBinaryWriteILb0EELb0EEvRK29SerializationCommandArgumentsR31RuntimeSerializationCommandInfo
xRb:__ZN10TextureRef4InitEP7Textureb
RMd:_MonoIO_GetFileType_m101289143
Yxa:__Z19ScheduleJobInternalR8JobFencePFvPvES1_11JobPriority
ndf:_KeysCollection_get_Count_m3943311735
gze:_InternalEnumerator_1_get_Current_m2832154098_gshared
W5f:_Version__ctor_m1550720073
h5i:__ZNSt3__211__tree_nextIPNS_16__tree_node_baseIPvEEEET_S5_
Urj:__ZN15dense_hashtableI10KeyWrapperIP18Il2CppGenericClassES3_N6il2cpp8metadata22Il2CppGenericClassHashEN14dense_hash_setIS3_S6_NS3_14EqualsComparerINS5_25Il2CppGenericClassCompareEEENSt3__29allocatorIS3_EEE8IdentityESA_SD_E14squash_deletedEv
Fuj:__ZN6il2cpp2vm11MethodStack17GetStackFramesRawEv
XAa:__ZN6prcoreL17RemapGenericFloatI17TexFormatRGBAHalf17TexFormatRGBFloatEEvPKNS_9InnerInfoE
LGg:__Z52RuntimeInvoker_Double_t594665363_Decimal_t2948259380PFvvEPK10MethodInfoPvPS4_
ODe:_InternalEnumerator_1_get_Current_m784835552_gshared
Elc:__Z35Sprite_Get_Custom_PropPixelsPerUnitP12Il2CppObject
Y1i:__ZNSt3__26__sortIRN6il2cpp5utils11collections13ArrayValueMapIPK10Il2CppType17Il2CppInteropData26InteropDataToTypeConverterNS1_8metadata14Il2CppTypeLessENSA_26Il2CppTypeEqualityComparerEE12SortComparerEPS8_EEvT0_SH_T_
fib:__ZN11PreloadDataD2Ev
V_c:__ZN15DownloadHandler14ProcessHeadersERK9HeaderMap
_Jc:__ZNSt3__26vectorINS_4pairIifEE13stl_allocatorIS2_L18MemLabelIdentifier35ELi16EEE6assignINS_11__wrap_iterIPS2_EEEENS_9enable_ifIXaasr21__is_forward_iteratorIT_EE5valuesr16is_constructibleIS2_NS_15iterator_traitsISC_E9referenceEEE5valueEvE4typeESC_SC_
$b:invoke_iifi
_ud:_Char_System_IConvertible_ToInt16_m975497224_AdjustorThunk
$Df:_Delegate_CreateDelegate_m995503480
R7i:__ZNK6il2cpp5utils10StringViewIcE5RFindEc
tZd:_DerivedType_get_Module_m3032466746
MUa:__ZN15SharedLightData15UpdateTransformERK9Transform
dii:__ZL71InputField_t3762917431_CustomAttributesCacheGenerator_m_OnValidateInputP21CustomAttributesCache
ega:__ZN18AssetBundleManagerD2Ev
ghc:__Z44Register_UnityEngine_RectOffset_get_verticalv
mHj:__ZN6il2cpp2vm9LastError31InitializeLastErrorThreadStaticEv
ZYe:_MaskableGraphic_set_maskable_m243551751
WPd:_StreamWriter_Dispose_m2818839127
yK:__ZN4FMOD6System17setSoftwareFormatEi17FMOD_SOUND_FORMATii18FMOD_DSP_RESAMPLER
Nqh:_List_1_System_Collections_IList_Remove_m2702745770_gshared
ih:_JS_SystemInfo_GetCurrentCanvasHeight
dwe:_ArrayReadOnlyList_1_IndexOf_m1911574180_gshared
IYe:_Mask_OnEnable_m2186824439
oTe:_InputField_SetCaretVisible_m2216480850
Mjf:_X509EnhancedKeyUsageExtension_CopyFrom_m3750050754
F$a:__ZNK8Material22GetTypeVirtualInternalEv
toc:__Z34GUIStyle_Get_Custom_PropFixedWidthP12Il2CppObject
Lfh:_ReadOnlyCollection_1_System_Collections_IList_Clear_m1076810235_gshared
ekg:_Enumerator_System_Collections_IEnumerator_get_Current_m3405349194_AdjustorThunk
ixj:__ZN6il2cpp2gc16GarbageCollector11GetWeakLinkEPPv
qvj:__GLOBAL__sub_I_Console_cpp
NAa:__ZN6prcoreL17RemapGenericFloatI14TexFormatRHalf17TexFormatRGBAHalfEEvPKNS_9InnerInfoE
_8d:_BigInteger_GetBytes_m1259701831
d8i:__ZN6il2cpp2vm7Runtime11InvokeArrayEPK10MethodInfoPvP11Il2CppArrayPP15Il2CppException
Tvf:_String_memcpy_m2826223007
Pld:_RijndaelManaged_CreateDecryptor_m1421727258
SF:__ZN9AudioClip23VirtualRedirectTransferER14SafeBinaryRead
Xjg:_Enumerator_MoveNext_m2407049913_gshared
GXf:_StringBuilder_Replace_m1682610486
RDa:__ZN4gles20EnsureTextureCreatedEP7ApiGLESP17RenderSurfaceGLES
oOb:__ZN15ReplacementPass13PrepareSubsetEjRK10RenderNodeifRK17ShaderReplaceData
xL:__Z32AudioMeasurement_GetTimeConstantff
Mxj:__ZN6il2cpp8metadata11FieldLayout12LayoutFieldsEjjjRKNSt3__26vectorIPK10Il2CppTypeNS2_9allocatorIS6_EEEERNS1_15FieldLayoutDataE
dmb:__ZNK20LocalFileSystemPosix9EnumerateEPKcP19dynamic_block_arrayI13FileEntryInfoLj32EEbPPv19FileEnumerationFlag
X2d:_MethodInfo_MakeGenericMethod_m1996785325
z1c:_BaseInputModule_DetermineMoveDirection_m770437496
Ene:_Context_get_HasGlobalDynamicSinks_m3672814609
kzi:_Match__ctor_m2464595873
QVb:__ZL27PrepareSceneNodesJobCombineP25ScheduleSceneNodesJobData
Rxi:_X509CertificateEnumerator_Reset_m1825523691
bqb:__Z22TransferField_NonArrayI14SafeBinaryRead27Converter_SimpleNativeClassI8GUIStyleEEvRK23StaticTransferFieldInfoR31RuntimeSerializationCommandInfoRT0_
Ngj:__ZN14dense_hash_mapI10KeyWrapperIPK10Il2CppTypeEjN6il2cpp8metadata14Il2CppTypeHashENS4_14EqualsComparerINS6_26Il2CppTypeEqualityComparerEEENSt3__29allocatorINSB_4pairIKS4_jEEEEEC2EjRKS7_RKSA_
Foa:__ZN13GfxDeviceGLESD2Ev
Pha:__ZNSt3__26vectorIN9ShaderLab26SerializedShaderDependencyENS_9allocatorIS2_EEE6resizeEj
fsi:_Activator_CreateInstance_TisRuntimeObject_m729575857_gshared
Jda:__ZN18AsyncUploadManager13StaticDestroyEPv
iha:__ZN6Shader7SetNameEPKc
Osd:_Convert_ToDouble_m954895424
lZb:__ZN19CustomRenderTexture22HandleBoundaryWrappingERKNS_14UpdateZoneInfoEj
DTi:_TextGenerationSettings_CompareColors_m3051734236
d5i:__ZN6il2cpp2vm13MetadataCache32GenerateCustomAttributeTypeCacheEi
Atf:_Single_Equals_m438106747
qXf:_StringBuilder__ctor_m2989139009
o7d:_RuntimeResourceSet__ctor_m2765575100
Rge:_TlsClientCertificate_ProcessAsSsl3_m3265529850
tr:__ZNK11UnityEngine9Animation30GenericBindingValueArrayUniqueclERKNS0_14GenericBindingES4_
twf:_ASCIIEncoding_GetChars_m2543669481
u7e:_BigInteger_IsProbablePrime_m567194283
$9f:_Dictionary_2_System_Collections_IDictionary_Remove_m3518952519_gshared
Gsf:_SecurityFrame_InitFromRuntimeFrame_m1714852458_AdjustorThunk
i0d:_MethodBuilder_GetCustomAttributes_m731278908
vHc:_Direct_Move_Y
tHc:_Direct_Move_X
DNg:__Z51RuntimeInvoker_Single_t1397266774_Double_t594665363PFvvEPK10MethodInfoPvPS4_
Fi:_glClearDepthf
t4b:__ZN19SkinnedMeshRenderer7GetMeshEv
nkb:__ZN19RuntimeSceneManager14GetActiveSceneEv
GNj:_memcpy
TIb:__ZNSt3__218__insertion_sort_3IRNS_4lessIN22BuiltinResourceManager8ResourceEEEPS3_EEvT0_S7_T_
Mue:_MultiArrayFixupRecord_FixupImpl_m1721674130
C7i:__ZN6il2cpp6icalls8mscorlib6SystemL8IsStaticEPK9EventInfo
lDc:_otv_LookupList_validate
Rgc:__Z29RectOffset_Set_Custom_PropTopP12Il2CppObjecti
Xgg:_GenericEqualityComparer_1_Equals_m687841776_gshared
ikc:__Z57Register_UnityEngine_Transform_INTERNAL_get_localPositionv
cUb:__ZNSt3__27__sort4IR15ReflProbeSorterPP15ReflectionProbeEEjT0_S6_S6_S6_T_
oUa:__ZN16GraphicsSettings10SmartResetEv
mVc:__Z55Register_UnityEngine_Analytics_CustomEventData_AddInt16v
MNd:_FileStream_Flush_m948103572
mZi:__ZN15dense_hashtableINSt3__24pairIK10KeyWrapperIPK22Il2CppGenericParameterEP11Il2CppClassEES6_N6il2cpp5utils11PointerHashIS4_EEN14dense_hash_mapIS6_S9_SE_NS6_14EqualsComparerINS0_8equal_toIS5_EEEENS0_9allocatorISA_EEE9SelectKeyESJ_SL_E9copy_fromERKSO_j
x8e:_ASN1Convert_ToInt32_m254930636
Eeb:__ZN26PlayerSettingsSplashScreen16CheckConsistencyEv
DXa:__ZN20SphericalHarmonicsL28TransferI19StreamedBinaryWriteILb0EEEEvRT_
j5f:_UInt64_ToString_m1529093114
V3b:__ZNK28RectTransformPropertyBinding9BindValueER6ObjectRKN11UnityEngine9Animation14GenericBindingERNS3_10BoundCurveE
xsg:_Material_SetInt_m1783799378
eqd:_Array_GetLength_m2178203778
wrg:_Input_GetMouseButtonDown_m2081676745
lGd:_Int16_System_IConvertible_ToDouble_m1661805412_AdjustorThunk
dbb:__ZN4Mesh14UploadMeshDataEb
F4b:__ZN14RenderSettings12CleanupClassEv
fjc:__Z43DataUtility_CUSTOM_INTERNAL_CALL_GetPaddingP12Il2CppObjectR8Vector4f
ZN:__ZN21AudioScriptingClasses26InvokeOnAudioManagerUpdateEP21ScriptingExceptionPtr
_xa:__ZN18AsyncUploadManager15DoDeCruncherJobEP26FileAssetUploadInstruction
Ira:__ZN9GfxDevice15ImmediateNormalEfff
IBg:_Enumerator__ctor_m1351041375
bvb:__ZN13GUIStyleState8TransferI24GenerateTypeTreeTransferEEvRT_
P0:__ZN20dynamic_block_vectorI14FileIdentifierE22push_back_no_constructEv
fWj:_emscripten_glGetActiveAttrib__wrapper
R8a:__ZN9Texture3D23VirtualRedirectTransferER14SafeBinaryRead
ioi:_Array_InternalArray__set_Item_TisVector2_t2156229523_m2671087464_gshared
mti:_Array_InternalArray__get_Item_TisVector4_t3319028937_m1117939728_gshared
rja:__ZNSt3__26vectorIN9ShaderLab20SerializedSubProgram16TextureParameterENS_9allocatorIS3_EEE8__appendEj
Jxi:_X509CertificateCollection_Contains_m743657353
fSf:_Array_InternalArray__ICollection_Add_TisSlot_t384495010_m3656484468_gshared
T3a:__ZN9Texture2D13UploadTextureEi
dCc:_cff_get_cid_from_glyph_index
zK:__ZN4FMOD6System19setSoftwareChannelsEi
ata:__ZN9GfxDevice19SetSinglePassStereoE16SinglePassStereo
iUj:_emscripten_glGenBuffers__wrapper
ENj:_bitshift64Lshr
eIj:__ZN6il2cpp8metadata19Il2CppSignatureHash4HashERKNS_5utils13dynamic_arrayIPK10Il2CppTypeLj4EEE
_zd:_Hashtable_System_Collections_IEnumerable_GetEnumerator_m2751657639
Upe:_HeaderHandler_Invoke_m3513051789
zki:__ZL77CanvasScaler_t2767979955_CustomAttributesCacheGenerator_m_ReferenceResolutionP21CustomAttributesCache
KHg:__Z144RuntimeInvoker_RuntimeObject_RuntimeObject_Int32_t2950945753_RuntimeObject_RuntimeObject_RuntimeObject_RuntimeObject_RuntimeObject_RuntimeObjectPFvvEPK10MethodInfoPvPS4_
x1f:_Type_get_IsPointer_m4067542339
F3e:_Text_get_supportRichText_m1837499160
Shc:__Z60Register_UnityEngine_Input_INTERNAL_set_compositionCursorPosv
Sug:_Vector3_Magnitude_m3447562852
Tlg:_Component__ctor_m1928064382
fPj:dynCall_viiiii
lPj:dynCall_viiiif
GBd:_SortedList_PutImpl_m3408406199
uJc:_Cubic_To
jfe:_Context_get_Protocol_m1078422015
ufc:__Z44Register_UnityEngine_Camera_get_farClipPlanev
Rq:__Z25InverseTransformDirection23TransformAccessReadOnlyRKN4math7_float3Eb
XO:__ZNK12AudioManager15GetDSPBlockSizeEv
Uga:__ZN13RuntimeStaticINSt3__28multimapIj25DeferredSkinningOperationNS0_4lessIjEENS0_9allocatorINS0_4pairIKjS2_EEEEEELb0EE13StaticDestroyEPv
JLi:_ToggleGroup_SetAllTogglesOff_m4184050071
Hdb:__ZNK17IAnimationBinding30CurveAttributeToSerializedPathERKN11UnityEngine9Animation10BoundCurveE
Gtj:__ZN6il2cpp2gc16GarbageCollector14GetOrCreateCCWEP12Il2CppObjectRK10Il2CppGuid
vrj:__ZN6il2cpp2vm5Image21FromTypeNameParseInfoEPK11Il2CppImageRKNS0_17TypeNameParseInfoEb
GSd:_MonoCustomAttrs_IsDefined_m2996012389
eua:__ZN17BufferManagerGLES13AcquireBufferEjN14DataBufferGLES11BufferUsageEb
iUi:_TextGenerator_PopulateAlways_m1922695746
BBf:_Decimal__ctor_m3650533794
eZe:_MaskableGraphic_UpdateClipParent_m2605828397
Xpf:_TripleDESTransform_GetStrongKey_m292426577
WXd:_AssemblyBuilder_get_Location_m384539722
vZc:__ZN16UnityAdsSettingsD0Ev
Bwa:__ZNK7ApiGLES10DebugLabelEN2gl10ObjectTypeEjPKc
nMd:_DirectoryNotFoundException__ctor_m4004339866
oNj:__ZNK10__cxxabiv121__vmi_class_type_info16search_below_dstEPNS_19__dynamic_cast_infoEPKvib
NTi:_TextGenerator__ctor_m1349784994
Xva:__ZN19ConstantBuffersGLES13SetCBConstantEiiPKvi
QZe:_Navigation_Equals_m317484440
G6g:_Collection_1_System_Collections_IList_set_Item_m876512695_gshared
gjc:__Z38DataUtility_CUSTOM_Internal_GetMinSizeP12Il2CppObjectP13Vector2fIcall
OYi:_CustomEventData_Add_m2213655663
U8b:__ZN8PlayableC2E17ScriptingClassPtr18DirectorPlayerType
KCg:_Vector3_Distance_m886789632
Vte:_ObjectReader_ReadObjectGraph_m1689734232
bug:_MonoBehaviour_StopCoroutine_m907039165
Cij:_il2cpp_class_has_attribute
e9e:_DSAManaged_get_KeySize_m2738463749
hDg:_Vector4_op_Subtraction_m1632208160
$u:__ZN7mecanim9animation30ValueFromSkeletonPoseRecursiveERKNS_8skeleton8SkeletonERKNS1_13SkeletonPoseTIN4math4trsXEEEPKNS0_14SkeletonTQSMapEPKiRNS_10ValueArrayEii
n$:__Z27FindOrCreateMonoScriptCache17ScriptingClassPtr22InitScriptingCacheTypeP6Objecti
SAb:__Z18Transfer_BlittableI18StreamedBinaryReadILb0EELb1E8Vector3fEvRK29SerializationCommandArgumentsR31RuntimeSerializationCommandInfo
EQc:__ZN2UI14CanvasRenderer13SyncVertexPtrER8JobFenceNS0_8SyncFlagE
jJf:_CultureInfo_GetFormat_m732021304
F$:__Z35scripting_method_get_argument_count18ScriptingMethodPtr
TLa:__ZN18AssetBundleManager18SortPreloadObjectsER13dynamic_arrayIiLj4EEb
QMg:__Z46RuntimeInvoker_RuntimeObject_Double_t594665363PFvvEPK10MethodInfoPvPS4_
LVf:_EncoderReplacementFallback__ctor_m2980727890
Owd:_ArrayList_Synchronized_m1327684267
Egc:__Z20Gradient_CUSTOM_InitP12Il2CppObject
O2d:_MethodBase_get_IsPublic_m2180846589
Voc:__Z48Register_UnityEngine_GUIUtility_Internal_ExitGUIv
Dcg:_DefaultComparer_Equals_m2574572657_gshared
XMd:_FileStream_get_CanWrite_m1199612770
UVb:__ZL21CullDynamicObjectsJobP14CullingJobDataj
jmc:__ZNSt3__26vectorI7GUIClipNS_9allocatorIS1_EEE21__push_back_slow_pathIKS1_EEvRT_
d2d:_TypeBuilder_get_IsGenericParameter_m1751799710
YZb:__ZN14ManagerContext17InitializeClassesEv
sLa:__ZN19StreamedBinaryWriteILb0EE21TransferSTLStyleArrayINSt3__26vectorI14ConstantStringNS2_9allocatorIS4_EEEEEEvRT_17TransferMetaFlags
izb:__ZN18StreamedBinaryReadILb1EE21TransferSTLStyleArrayI31ArrayOfManagedObjectsTransfererEEvRT_17TransferMetaFlags
C8g:_Collection_1_System_Collections_ICollection_CopyTo_m787979241_gshared
pih:_ReadOnlyCollection_1_System_Collections_Generic_ICollectionU3CTU3E_Clear_m1551418550_gshared
WIc:_t1_hints_open
oWc:__ZN11UnityEngine15PlatformWrapper24GetVRTrackedAreaGeometryER13dynamic_arrayI8Vector3fLj4EE
JTd:_MonoType_get_AssemblyQualifiedName_m2662925380
Cfc:__Z60Register_UnityEngine_Camera_INTERNAL_CALL_WorldToScreenPointv
nnf:_RSACryptoServiceProvider__ctor_m2288290917
S8d:_BigInteger_GenerateRandom_m3872771375
Z3g:__Z75RuntimeInvoker_RuntimeObject_Single_t1397266774_RuntimeObject_RuntimeObjectPFvvEPK10MethodInfoPvPS4_
tJ:__ZN4FMOD7Channel11getUserDataEPPv
lqi:_Array_swap_TisBoolean_t97287965_TisBoolean_t97287965_m1115288271_gshared
jEc:_UNITY_tt_face_load_gasp
E9e:_KeyPairPersistence_ProtectMachine_m1313131097
S3e:_Text_set_fontSize_m3617617524
nMc:_ft_ansi_stream_close
km:_JS_Sound_SetPitch
D_f:_Thread_FreeLocalSlotValues_m1195763560
wsf:_String_IndexOf_m1977622757
qjj:_il2cpp_runtime_invoke_convert_args
o6c:_TouchInputModule_Process_m3715678669
RIg:__Z114RuntimeInvoker_Int32_t2950945753_RuntimeObject_Int32_t2950945753_Int32_t2950945753_RuntimeObject_Int32_t2950945753PFvvEPK10MethodInfoPvPS4_
gwd:_ArrayList__cctor_m3052737821
rnj:__ZN6il2cpp6icalls8mscorlib6System2IO6MonoIO11GetFileStatEP12Il2CppStringPNS3_8FileStatEPi
vsa:__ZN9GfxDevice33InsertCustomMarkerCallbackAndDataEPFviPvEiS0_j
ZZc:__ZN11UnityEngine15PlatformWrapper16GenerateRandomIdEv
qOb:__ZNK9ShaderLab9IntShader6GetTagE11ShaderTagIDb
Ayd:_BitArray_Set_m2486900776
wRc:__ZN2UI14CanvasRenderer11SetMaterialEP8Materiali
Xtf:_String__ctor_m229724522
fPh:__ZL54AssemblyName_t270931938_CustomAttributesCacheGeneratorP21CustomAttributesCache
UZa:__ZNK13RenderTexture37IsBoundMultisampledOnSecondaryTextureEv
LBj:_GC_freehblk
Eui:_X509ExtensionCollection__ctor_m551870633
q0d:_MethodBuilder_MakeGenericMethod_m2175748754
IAi:_QuickSearch_Search_m3063517397
qLe:_Enumerator_Reset_m2443320674_gshared
fIc:_ft_var_get_value_pointer
Edc:__ZN9Scripting35DestroyObjectFromScriptingImmediateEP6Objectb
Nrd:_AsyncCallback_Invoke_m3156993048
KWb:__ZNK6Camera48AreVRStereoViewMatricesWithinSingleCullToleranceEv
rx:__ZN7mecanim5human25HumanPoseAddAdditiveLayerERNS0_9HumanPoseERKS1_fRKNS_6bitsetILj83EEE
LWj:_glGetRenderbufferParameteriv__wrapper
fbf:_SymmetricTransform_FinalDecrypt_m1677319445
UId:_Int32_Equals_m3996243976_AdjustorThunk
Yka:__ZN24GenerateTypeTreeTransfer8TransferINSt3__26vectorIN9ShaderLab20SerializedSubProgram12UAVParameterENS1_9allocatorIS5_EEEEEEvRT_PKc17TransferMetaFlags
tc:invoke_iiiiiiiiiiiiiii
Ovj:__ZN6il2cpp2os6Thread33UnregisterCurrentThreadForCleanupEv
pYj:_emscripten_glIsRenderbuffer__wrapper
zDc:_otv_Coverage_get_first
_Oc:__ZN2UI11CanvasGroup8TransferI19StreamedBinaryWriteILb0EEEEvRT_
jMd:_DirectoryInfo__ctor_m1000259829
RVa:__ZNK20IntermediateRenderer8GetLayerEv
gZj:b132
aIf:_CultureInfo_ConstructInvariant_m3774343375
y5a:__ZN15QualitySettings8TransferI14SafeBinaryReadEEvRT_
Tqd:_Array_ClearInternal_m532048538
Gxf:_DateTime__ctor_m12900168
Sph:_IndexedSet_1_Insert_m1432638049_gshared
cUd:_MulticastDelegate_GetInvocationList_m4256593605
hsi:_Array_FindLast_TisRuntimeObject_m1088586648_gshared
OYe:_Mask_GetModifiedMaterial_m2692272647
kog:_CullingGroup_t2096318768_marshal_pinvoke_back
Grj:__ZNSt3__26vectorIN6il2cpp2vm5Image20EmbeddedResourceDataENS_9allocatorIS4_EEE21__push_back_slow_pathIS4_EEvOT_
d8:__GLOBAL__sub_I_runtime_utilities_0_cpp
b2b:__ZN18BackgroundJobQueue29ScheduleMainThreadJobInternalEPFvPvES0_
BPj:dynCall_viiiiiif
YHi:_GUIUtility_EndGUIFromException_m3524906492
IZ:__ZN14SerializedFile10ReadObjectEx18ObjectCreationModebPPK8TypeTreePbR6Object
PCi:_Expression_GetFixedWidth_m945658
yAh:_List_1_RemoveAll_m818254423_gshared
uDi:_Literal_Compile_m2228022079
WIb:__ZN14dynamic_bitset6resizeEjb
pIc:_tt_property_get
PLf:_Array_InternalArray__ICollection_Contains_TisSlot_t3975888750_m58971838_gshared
eT:__ZN11UnityEngine15CloudWebService10RestClientINS0_23WebRequestRestHeaderMapEE7SetDataEPKhj
sB:__ZN7mecanim8skeleton16SkeletonPoseCopyIN4math4trsXES3_EEvPKNS0_13SkeletonPoseTIT_EEPNS4_IT0_EE
I$i:__ZN14dense_hash_mapI10KeyWrapperIPK11Il2CppClassEPKcN6il2cpp5utils11PointerHashIS1_EENS4_14EqualsComparerINSt3__28equal_toIS3_EEEENSC_9allocatorINSC_4pairIKS4_S6_EEEEE15set_deleted_keyERSI_
_oa:__ZN9GfxDevice34SetStencilRefWhenStencilWasSkippedEi
Chf:_X509Certificate2_Reset_m3988214799
wXc:__ZN11UnityEngine7Connect13ConnectConfig20RestoreTimeoutConfigERK13dynamic_arrayIiLj4EEjRS3_
sc:invoke_fi
XFj:__ZN6il2cpp6icalls8mscorlib6System10Reflection4Emit11TypeBuilder20create_runtime_classEP27Il2CppReflectionTypeBuilderS7_
uBg:_Transform_set_localScale_m3053443106
NYa:__ZN8Playable13SetInputCountEi
lX:__ZL21InternalAssertConsolePKcz
qc:invoke_ff
yaf:_RSAManaged_add_KeyGenerated_m3688329863
VLe:_Enumerator_get_CurrentKey_m3735262888_gshared
kkd:_HashAlgorithm_TransformFinalBlock_m3005451348
bLf:_Guid_NewGuid_m923091018
Bd:_emscripten_glVertexAttrib3f
Udj:__ZN30dense_hashtable_const_iteratorINSt3__24pairIK10KeyWrapperINS1_IPK11Il2CppImageP11Il2CppClassEEEjEES9_17ReflectionMapHashIS8_EN14dense_hash_mapIS9_jSD_NS9_14EqualsComparerINS0_8equal_toIS8_EEEENS0_9allocatorISB_EEE9SelectKeyESI_SK_EppEv
xAj:__ZThn8_N6il2cpp2vm13CachedCCWBaseINS0_13ManagedObjectEE7DestroyEv
Qnf:_RSAPKCS1SignatureDeformatter_SetKey_m614724234
$Xf:_UnicodeEncoding_GetByteCount_m3498858619
oNf:_Array_InternalArray__ICollection_Remove_TisX509ChainStatus_t133602714_m3635989134_gshared
bph:_UnityEvent_1_FindMethod_Impl_m555893253_gshared
IKc:__ZN20TextRenderingPrivate8TextMesh11ApplyToMeshEv
ERj:_emscripten_glDrawRangeElements__wrapper
iTa:__Z28scripting_class_is_valuetype17ScriptingClassPtr
u0b:__ZNSt3__25dequeI10InputEventNS_9allocatorIS1_EEE19__add_back_capacityEv
SFa:__ZN13ComputeShader13SetValueParamERKN9ShaderLab16FastPropertyNameEiPKv
ibb:__ZN14BlendShapeDataD2Ev
YBa:__ZL18ProgramUniform3uivPK7ApiGLESjiihPKv
amd:_RijndaelTransform_Encrypt128_m1940909042
VSd:_MonoEnumInfo_get_Cache_m752167006
cSc:__Z47CanvasRenderer_Set_Custom_PropHasPopInstructionP12Il2CppObjecth
Dtg:_Mesh_get_uv3_m3614955461
IBa:__ZN5Image8SetImageEii13TextureFormatb
W$:__ZN17MessageIdentifier21GetRegisteredMessagesEv
MV:__Z13RegisterClassI23CloudWebServicesManagerEvv
wAe:_InternalEnumerator_1_get_Current_m3900374024_gshared
Syi:_DelegatePInvokeWrapper_CostDelegate_t1722821004
iyd:_SynchronizedArrayListWrapper_CopyTo_m2886332653
qcf:_HybridDictionary_Remove_m2295600623
tqj:__GLOBAL__sub_I_Image_cpp
xBe:_InternalEnumerator_1_get_Current_m2680116177_AdjustorThunk
R0a:__ZNSt3__27__sort5IRPFbRKNS_4pairIN9ShaderLab16FastPropertyNameEfEES6_EPS4_EEjT0_SB_SB_SB_SB_T_
_rh:_List_1_CheckMatch_m1934407508_gshared
yHj:__ZNSt3__26vectorINS_12basic_stringIDsNS_11char_traitsIDsEENS_9allocatorIDsEEEENS4_IS6_EEE8__appendEj
h7e:_Kernel_LeftShift_m3302851050
Wxj:__ZN14dense_hash_mapI10KeyWrapperIPK19Il2CppGenericMethodEP10MethodInfoN6il2cpp8metadata23Il2CppGenericMethodHashENS4_14EqualsComparerINS8_26Il2CppGenericMethodCompareEEENSt3__29allocatorINSD_4pairIKS4_S6_EEEEE15set_deleted_keyERSG_
trb:__Z29Transfer_Blittable_ArrayFieldI14SafeBinaryRead4AABBEvRT_R9ArrayInfoRK23StaticTransferFieldInfo
die:_RecordProtocol_SendRecord_m515492272
qme:_ConfigHandler_ReadProvider_m3620509535
Zdi:__ZL56g_UnityEngine_UI_Assembly_CustomAttributesCacheGeneratorP21CustomAttributesCache
IVd:_Random__ctor_m4122933043
fhc:__Z46Register_UnityEngine_RectOffset_get_horizontalv
A1a:__ZN18DelayedCallManager8ClearAllEv
oGg:__Z180RuntimeInvoker_RuntimeObject_RuntimeObject_Int32_t2950945753_RuntimeObject_Int32U26_t1369213839_BooleanU26_t4125257963_BooleanU26_t4125257963_Int32U26_t1369213839_SByte_t1669577662PFvvEPK10MethodInfoPvPS4_
glc:__Z22Mesh_CUSTOM_HasChannelP12Il2CppObject30InternalScriptingShaderChannel
Omj:__ZN6il2cpp2os8AutoLockD2Ev
RVi:_CanvasGroup_get_interactable_m1362547832
IUb:__ZNK25RenderPrePassObjectSorterclERK16RenderObjectDataS2_
g7d:_ResourceSet_Dispose_m1823973062
fHe:_InternalEnumerator_1_System_Collections_IEnumerator_get_Current_m3537550566_AdjustorThunk
tzb:__Z22TransferField_NonArrayI18StreamedBinaryReadILb1EE27Converter_SimpleNativeClassI8GUIStyleEEvRK23StaticTransferFieldInfoR31RuntimeSerializationCommandInfoRT0_
pe:_Mix_LoadWAV_RW
Zbe:_EncryptedPrivateKeyInfo__ctor_m25839594
iQ:__Z45AudioSource_Get_Custom_PropSpatializeInternalP12Il2CppObject
Lmf:_RIPEMD160Managed_HH_m90236373
Bhi:__ZL84GraphicRaycaster_t2999697109_CustomAttributesCacheGenerator_m_IgnoreReversedGraphicsP21CustomAttributesCache
f0d:_MethodBuilder_Invoke_m3837446660
ds:__ZNSt3__27__sort4IRNS_6__lessIN11UnityEngine9Animation13CachedBindingES4_EEPS4_EEjT0_S8_S8_S8_T_
thh:_ReadOnlyCollection_1_System_Collections_IList_Clear_m12445504_gshared
Esj:__ZN6il2cpp2gcL12alloc_handleEPNS0_10HandleDataEP12Il2CppObjectb
yWj:_emscripten_glGetAttribLocation__wrapper
trg:_Input_GetAxisRaw_m2316819917
_yi:_Enumerator_MoveNext_m55255603
Q6h:__ZL57SpaceAttribute_t3956583069_CustomAttributesCacheGeneratorP21CustomAttributesCache
Qff:_WebRequest_AddDynamicPrefix_m4246631209
XUb:__Z13InitIndexListR9IndexListj
uSf:_Array_InternalArray__ICollection_Add_TisRefEmitPermissionSet_t484390987_m1720891963_gshared
S0:__ZL16ReadTypeTreeImplILb1EEbR8TypeTreeRK16TypeTreeIteratorRPKhS6_i
yGj:__ZN6il2cpp6icalls8mscorlib6System11Diagnostics10StackTrace9get_traceEP15Il2CppExceptionib
Q6f:_Dictionary_2_set_Item_m3327106492_gshared
He:_glBlendEquationSeparate
um:_emscripten_glDeleteVertexArrays
Psa:__ZN13GfxDeviceGLES17SetComputeUniformE12ObjectHandleI18ComputeProgram_TagPvER18ComputeShaderParamjPKv
TXj:b95
EBi:_Parser_IsNameChar_m698176442
Xuh:_List_1_RemoveAt_m3459335427_gshared
uVj:_emscripten_glValidateProgram__wrapper
ebc:__ZN13MeshScripting27PrintErrorCantAccessChannelEPK4Mesh30InternalScriptingShaderChannel
NCg:_Vector3_get_sqrMagnitude_m1474274574_AdjustorThunk
Svi:_GeneralNames_ToString_m489778282
Oe:_emscripten_glUniform3fv
xMf:_Array_InternalArray__ICollection_Contains_TisRaycastHit2D_t2279581989_m2733133723_gshared
ZCd:_Convert_ToByte_m1442000130
pnf:_RSACryptoServiceProvider_get_KeySize_m2654153358
uoj:__ZN6il2cpp2vm9Exception20GetArgumentExceptionEPKcS3_
wwc:__Z29Transfer_Blittable_ArrayFieldI8JSONReadiEvRT_R9ArrayInfoRK23StaticTransferFieldInfo
Bqh:_Enumerator_MoveNext_m625797905_AdjustorThunk
Xoi:_Array_Resize_TisCustomAttributeTypedArgument_t2723150157_m3021884250_gshared
KWj:_glDrawArrays__wrapper
IO:__ZN9AudioClip27IsFormatSupportedByPlatformERKN4core12basic_stringIcNS0_20StringStorageDefaultIcEEEE
n2a:__ZN29SerializeTraitsForStringTypesIN4core12basic_stringIcNS0_20StringStorageDefaultIcEEEEE8TransferI24GenerateTypeTreeTransferEEvRS4_RT_
Jka:__ZN9ShaderLab26SerializedShaderDependency8TransferI24GenerateTypeTreeTransferEEvRT_
Gnh:_InvokableCall_3_Invoke_m3141788616_gshared
nAi:_PatternCompiler_EmitUntil_m3644194775
zEc:_UNITY_FT_Match_Size
$v:__ZN7mecanim20CreateValueArrayMaskEPKNS_18ValueArrayConstantERNS_6memory9AllocatorE
N9e:_KeyPairPersistence_ToXml_m812591779
qTd:_MonoType_GetFields_internal_m776921855
pWc:__ZN11UnityEngine7Connect14AppUpdateEventC2Ev
E6d:_ResourceReader_Dispose_m3597121875
TSa:__ZN12ImageFilters17RemoveImageFilterERK11ImageFilter
ipd:_Hashtable_CalcPrime_m550773117
$yg:_RenderTexture_get_width_m2160921386
jxe:_InternalEnumerator_1_get_Current_m3073360606_AdjustorThunk
wsa:__ZN9GfxDevice31InsertCustomBlitCallbackAndDataEPFviPvER33UnityRenderingExtCustomBlitParams
$Jb:__Z32AddPathRemapsForBuiltinResourcesRKN4core12basic_stringIcNS_20StringStorageDefaultIcEEEE
$Xa:__ZN14RenderSettings23VirtualRedirectTransferER24GenerateTypeTreeTransfer
Lsb:__ZL26Transfer_SimpleNativeClassI17RemapPPtrTransfer17AnimationCurveTplIfELb0EEvRK29SerializationCommandArgumentsR31RuntimeSerializationCommandInfo
GTe:_InputField_set_caretWidth_m707310868
wm:_glDeleteTransformFeedbacks
alh:_U3CCreateWhereIteratorU3Ec__Iterator1D_1_MoveNext_m612748497_gshared
tf:_JS_WebRequest_Send
OAj:__ZN6il2cpp2os4Time31GetTicks100NanosecondsMonotonicEv
ywj:__ZNSt3__26__treeINS_12basic_stringIcNS_11char_traitsIcEENS_9allocatorIcEEEENS_4lessIS6_EENS4_IS6_EEE16__construct_nodeIJRKS6_EEENS_10unique_ptrINS_11__tree_nodeIS6_PvEENS_22__tree_node_destructorINS4_ISH_EEEEEEDpOT_
iMd:_MonoIO_GetFileSystemEntries_m37351365
REd:_Convert_ToSByte_m516918950
hYc:__ZN18UnityConnectClient32OnVrControllerStateChangedStaticEPS_13dynamic_arrayIN4core12basic_stringIcNS2_20StringStorageDefaultIcEEEELj4EE
RMj:__ZNK10__cxxabiv117__class_type_info24process_found_base_classEPNS_19__dynamic_cast_infoEPvi
yyg:_ReapplyDrivenProperties_Invoke_m1151937880
$ld:_RijndaelTransform_ECB_m670662322
wXe:_LayoutGroup_OnDisable_m3483954898
f5i:__ZN6il2cpp2vm13MetadataCache21GetFieldInfoFromIndexEj
xbi:__ZL62EventType_t3528516131_CustomAttributesCacheGenerator_mouseDragP21CustomAttributesCache
NQ:__ZN5physx14PxLightCpuTaskD2Ev
tq:__ZNSt3__26vectorIN4core12basic_stringIcNS1_20StringStorageDefaultIcEEEENS_9allocatorIS5_EEE6assignINS_11__wrap_iterIPS5_EEEENS_9enable_ifIXaasr21__is_forward_iteratorIT_EE5valuesr16is_constructibleIS5_NS_15iterator_traitsISE_E9referenceEEE5valueEvE4typeESE_SE_
Qyg:_Vector2_get_zero_m540426400
Thj:_il2cpp_init
jLg:__Z105RuntimeInvoker_RuntimeObject_RuntimeObject_StreamingContext_t3711869237_ISurrogateSelectorU26_t3801502798PFvvEPK10MethodInfoPvPS4_
qOc:__ZNSt3__26__treeIPN2UI14CanvasRendererENS_4lessIS3_EENS_9allocatorIS3_EEE7destroyEPNS_11__tree_nodeIS3_PvEE
fra:__ZN13GfxDeviceGLES22UploadTextureSubData2DE9TextureIDPKhiiiiii14GraphicsFormat
lIe:_DefaultComparer_Compare_m3648806637_gshared
Xkc:__Z35Register_UnityEngine_Screen_get_dpiv
Ouc:__ZN8JSONRead8TransferIxEEvRT_PKc17TransferMetaFlagsb
iyc:__ZN13SpeedTreeWind7AdvanceEbd
Jye:_InternalEnumerator_1_get_Current_m923139215_AdjustorThunk
H2i:__ZN15dense_hashtableINSt3__24pairIK10KeyWrapperIN6il2cpp5utils13dynamic_arrayIPK10Il2CppTypeLj4EEEEPFvvEEESA_NS3_8metadata19Il2CppSignatureHashEN14dense_hash_mapISA_SD_SG_NSA_14EqualsComparerINSF_22Il2CppSignatureCompareEEENS0_9allocatorISE_EEE9SelectKeyESK_SM_E12expand_arrayEjN21dense_hash_map_traits17integral_constantIbLb0EEE
hQf:_Array_FindLastIndex_TisRuntimeObject_m2929523835_gshared
Bcc:__ZN9Transform16SetLocalPositionERK8Vector3f
R0b:__ZN10BootConfig4Data12InitFromFileEPPKcjS2_
PAb:__Z15Transfer_StringI18StreamedBinaryReadILb0EELb0EEvRK29SerializationCommandArgumentsR31RuntimeSerializationCommandInfo
HLc:_ft_open_face_internal
hEc:_UNITY_tt_face_free_name
_Yi:_UnityAnalyticsHandler_Finalize_m1527596444
xUe:_InputField_set_selectionAnchorPosition_m68980541
HCa:__ZN14DataBufferGLES3MapEjjj
kGd:_Int16_System_IConvertible_ToDouble_m1661805412
FXj:_emscripten_glGetShaderiv__wrapper
Z2b:__Z13RegisterClassI9TransformEvv
WDi:_Repetition_Compile_m988726715
CUc:__ZN14UnityAnalytics22HandleCustomEventCountEj
FY:__ZNK6Camera33CalculateFarPlaneWorldSpaceLengthEv
o1c:_BaseInput_GetButtonDown_m3789908809
Xzh:_List_1_System_Collections_IList_Insert_m2401407093_gshared
EZd:_EnumBuilder_get_BaseType_m1707640163
Sdj:__ZNK15dense_hashtableINSt3__24pairIK10KeyWrapperINS1_IPK11Il2CppImageP11Il2CppClassEEEjEES9_17ReflectionMapHashIS8_EN14dense_hash_mapIS9_jSD_NS9_14EqualsComparerINS0_8equal_toIS8_EEEENS0_9allocatorISB_EEE9SelectKeyESI_SK_E5beginEv
Wzc:_cf2_stack_setReal
vI:__ZN4FMOD3DSP8getInputEiPPS0_PPNS_13DSPConnectionE
kN:__ZN11SoundHandle8Instance13CreateChannelERS_b
KUd:_NumberFormatter_NumberToString_m2529982306
pH:__ZN13AudioListenerD2Ev
SMc:_UNITY_FT_Done_Library
MGj:__ZN6il2cpp2os5MutexC2Eb
Jwi:_PKCS12__cctor_m3271060407
IJe:_Comparer_1__cctor_m2282308543_gshared
VQc:__ZN2UI13CanvasManager17EmitDataForCameraEP6Camera
Uae:_ARC4Managed_CheckInput_m1562172012
tkg:_Enumerator_MoveNext_m4018122760_gshared
JYi:_CustomEventData_Dispose_m4023815755
$7:___cxx_global_var_init_66
pui:_TlsStream_ReadBytes_m2334803179
Pic:__Z44Register_UnityEngine_Material_GetTextureImplv
ajh:_ReadOnlyCollection_1_System_Collections_IList_Add_m2445024939_gshared
k5a:__ZN19StreamedBinaryWriteILb0EE21TransferSTLStyleArrayI13dynamic_arrayI31EnlightenSystemAtlasInformationLj8EEEEvRT_17TransferMetaFlags
rNd:_FileStream_EndRead_m3904255625
uGb:__ZL8MainLoopv
z9b:__ZN17TransformInternal25CopyTransformSubhierarchyER18TransformHierarchyjS1_yyjb
ppe:_CallContextRemotingData_Clone_m14303327
ASc:__Z47Register_UnityEngine_CanvasRenderer_SetMaterialv
rYj:_emscripten_glIsShader__wrapper
bxc:__ZN11UnityEngine9Analytics16StartupTimeEvent23SetAssembliesTimingInfoEyy
f9e:_DSAManaged_get_PublicOnly_m3575594967
wUc:__ZN11UnityEngine9Analytics23CustomLimitReachedEvent12ToJsonStringER9JSONWrite
sNc:__Z26CleanupTextRenderingModulev
xH:__ZN13AudioListener23VirtualRedirectTransferER24GenerateTypeTreeTransfer
olb:__ZNK12HandlerChain9EnumerateEPKcP19dynamic_block_arrayI13FileEntryInfoLj32EEbPPv19FileEnumerationFlag
Nbb:__ZThn32_N12MeshRendererD1Ev
AZa:__ZN13RenderTexture23VirtualRedirectTransferER19StreamedBinaryWriteILb0EE
Azj:__ZN6il2cpp2vm13ComObjectBase17GetMarshalSizeMaxERK10Il2CppGuidPvjS5_jPj
NLj:_truncate
Bla:__ZN9ShaderLab27SerializedShaderVectorValue8TransferI18StreamedBinaryReadILb0EEEEvRT_
zX:__ZN8Renderer21RendererBecameVisibleEv
jLj:___stpncpy
K9:__ZN10MemoryPool16StaticInitializeEPv
Ufa:__ZN11TypeManager21CleanupGlobalInstanceEv
KGf:_Enum_ToString_m2240012010
VTc:__ZN11UnityEngine9Analytics15UserCustomEvent3AddEPKcRKN4core12basic_stringIcNS4_20StringStorageDefaultIcEEEE
N:Math_atan
xa:invoke_iifii
YG:__ZNK10SampleClip11GetResourceEv
O3d:_MonoEvent_get_Name_m3774595291
mpa:__ZN9GfxDevice15GetStereoMatrixE21MonoOrStereoscopicEye24BuiltinShaderMatrixParamR10Matrix4x4f
JOa:__ZN4core12basic_stringIcNS_20StringStorageDefaultIcEEE6resizeEj
foc:__Z43Register_UnityEngine_Event_set_displayIndexv
Axc:__GLOBAL__sub_I_CmEventProfiler_cpp
WRg:__Z128RuntimeInvoker_RuntimeObject_RuntimeObject_SByte_t1669577662_SByte_t1669577662_SByte_t1669577662_SByte_t1669577662_RuntimeObjectPFvvEPK10MethodInfoPvPS4_
jYf:_UnicodeEncoding_GetMaxByteCount_m3053620432
Xoe:_ArgInfo__ctor_m1950205784
nlh:_Nullable_1_Equals_m4046255732_AdjustorThunk
yQa:__ZN17GlobalGameManager23VirtualRedirectTransferER24GenerateTypeTreeTransfer
LYc:__ZN19UnityConnectServiceD0Ev
oLi:_ToggleGroup_ValidateToggleIsInGroup_m3201190739
Y7i:__ZN6il2cpp2vm7Runtime17GetDelegateInvokeEP11Il2CppClass
_tg:_MonoBehaviour_StartCoroutine_Auto_Internal_m2421197418
kyc:___cxx_global_var_init_128
f5d:_MonoProperty_get_PropertyType_m4138957578
kUa:__ZNSt3__26vectorIfNS_9allocatorIfEEE8__appendEjRKf
_Wc:__ZN11UnityEngine15PlatformWrapper21GetCopyTextureSupportEv
Tyf:_DateTime_get_Month_m1566006993_AdjustorThunk
uLf:_Array_get_swapper_TisRaycastResult_t3360306849_m1267000905_gshared
cje:_SslClientStream__ctor_m3478574780
oO:__ZN11AudioModule27IsFormatSupportedByPlatformEPKc
sLc:_UNITY_FT_Render_Glyph
YYd:_DerivedType_GetFields_m3190137327
r2c:_EventSystem_OnDisable_m3820258344
owc:__Z19TransferField_ArrayI8JSONRead16Converter_StringEvRK23StaticTransferFieldInfoR31RuntimeSerializationCommandInfoRT0_
Zkd:_MACTripleDES_Setup_m560957914
B6b:__ZZN10MeshFilter15InitializeClassEvEN31FunctorImpl_108kDidAddComponent4CallEPviR11MessageData
e3i:__ZN15dense_hashtableINSt3__24pairIK10KeyWrapperIPK19Il2CppGenericMethodEPK26Il2CppGenericMethodIndicesEES6_N6il2cpp8metadata23Il2CppGenericMethodHashEN14dense_hash_mapIS6_SA_SE_NS6_14EqualsComparerINSD_26Il2CppGenericMethodCompareEEENS0_9allocatorISB_EEE9SelectKeyESI_SK_E6insertERKSB_
QUb:__Z19SetupShadowCullDataRK27ScriptableCullingParametersRK17ShaderReplaceDataPK22SceneCullingParametersf16ShadowProjectionR14ShadowCullData
SKa:__ZNK25ThreadsafeLinearAllocator22GetAllocatedMemorySizeEv
Yyc:_cff_size_request
S_a:__ZN15DirectorManager14ConnectionPool12SwitchBucketEP14ConnectionList
DOc:__ZN2UI11CompareFuncEPNS_6CanvasES1_
lJ:__ZN4FMOD7Channel11set3DSpreadEf
gHj:__ZN6il2cpp2os6Memory14AlignedReAllocEPvjj
W:Math_fround
k2a:__ZN24GenerateTypeTreeTransfer16TransferTypelessEPjPKc17TransferMetaFlags
vRf:_Array_InternalArray__IndexOf_TisPlayableBinding_t354260709_m3544096311_gshared
apf:_SHA512Managed_processLength_m2162821715
ZBa:__ZL18ProgramUniform4uivPK7ApiGLESjiihPKv
wwg:_Vector3_get_normalized_m2454957984
l_f:_Mutex_CreateMutex_internal_m3763633491
Xji:__ZL74SpriteState_t1362986479_CustomAttributesCacheGenerator_m_HighlightedSpriteP21CustomAttributesCache
Tm:FUNCTION_TABLE_viiiiiiiiiiiiiii
Iac:__ZNK4Mesh19CanAccessFromScriptEv
j2:__Z15GetGraphicsCapsv
BEa:__ZN7ApiGLES15BindVertexArrayEN2gl6HandleILNS0_10ObjectTypeE3EEE
m8f:_Dictionary_2_System_Collections_IDictionary_Remove_m316877720_gshared
Lv:__ZN17AnimationPlayable17GetAnimationClipsER13dynamic_arrayIP13AnimationClipLj4EE
fSb:__Z20IntersectionAABBAABBRK10MinMaxAABBS1_PS_
cke:_SslStreamBase_get_SecurityProtocol_m596101988
zaj:__ZNSt3__212basic_stringIcNS_11char_traitsIcEENS_9allocatorIcEEE6__initIPKcEENS_9enable_ifIXsr21__is_forward_iteratorIT_EE5valueEvE4typeESA_SA_
Ana:__ZN9ShaderLab20SerializedSubProgram14AddMatrixParamEPKcii15ShaderParamTypei
jPg:__Z121RuntimeInvoker_Void_t1185182177_Int32_t2950945753_Int32_t2950945753_Int32_t2950945753_Int32_t2950945753_Int32_t2950945753PFvvEPK10MethodInfoPvPS4_
nIc:_ft_var_load_item_variation_store
mmd:_DeriveBytes_set_Salt_m441577179
xph:_UnityEvent_3_FindMethod_Impl_m1640458315_gshared
gOh:__ZL61ConstructorBuilder_t2813524108_CustomAttributesCacheGeneratorP21CustomAttributesCache
TOc:__ZN2UI11CanvasGroup23VirtualRedirectTransferER24GenerateTypeTreeTransfer
Znb:__Z18Transfer_BlittableI14SafeBinaryReadLb1EhEvRK29SerializationCommandArgumentsR31RuntimeSerializationCommandInfo
U3e:_Text_get_verticalOverflow_m2420459396
Dga:__ZNSt3__224__buffered_inplace_mergeIRNS_4lessIN4core12basic_stringIcNS2_20StringStorageDefaultIcEEEEEENS_11__wrap_iterIPS6_EEEEvT0_SC_SC_T_NS_15iterator_traitsISC_E15difference_typeESG_PNSF_10value_typeE
ec:invoke_viifff
Oaa:__Z22DestroyObjectHighLevelP6Objectb
ajd:_KeySizes__ctor_m3113946058
sPb:__Z26BeginRenderQueueExtractionR15RenderNodeQueuePK16RendererCullDataRK13CullingOutputPK12LODDataArray15ExtractionFlagsP18JobBatchDispatcher
$Kc:__ZNK13TextRendering4Font10GetTextureEv
rj:_emscripten_glVertexAttrib3fv
Woe:_LifetimeServices__cctor_m2128864873
u3f:_UInt16_TryParse_m3193697465
Tmj:__ZN6il2cpp6icalls8mscorlib6System9Threading6Thread16SetName_internalEP12Il2CppThreadP12Il2CppString
vj:_glBeginTransformFeedback
vDf:_Decimal_op_Division_m2407964042
nUe:_InputField_get_asteriskChar_m965956856
_Ua:__ZN18JobBatchDispatcherC2E11JobPriorityi
fkd:_HashAlgorithm_Create_m644612360
avg:_Playable_get_Null_m3556999077
K6e:_BigInteger_TestBit_m1507066813
cmc:__ZN8GUIStyle14GetBuiltinFontEv
Yra:__ZN9GfxDevice13EndFrameStatsEv
i5b:__Z7Empty2DP9Texture2DPhiiii
Jni:_Array_InternalArray__set_Item_TisRefEmitPermissionSet_t484390987_m3786305619_gshared
wUi:_DisplayBuffer_GetAllDisplayLines_m956916978
Vlj:__ZN6il2cpp6icalls8mscorlib6System7Runtime15InteropServices7Marshal19copy_from_unmanagedEiiP11Il2CppArrayi
oH:__ZL34StaticDestroyAudioCustomFilterRootPv
cwe:_ArrayReadOnlyList_1_GetEnumerator_m3931906247_gshared
YFa:__ZN19ComputeShaderKernelD2Ev
YZi:__ZN6il2cpp2vmL17SetupEventsLockedEP11Il2CppClassRKNS_2os12FastAutoLockE
A1b:__ZN10systeminfo21GetTemporaryCachePathEv
N5b:__ZZN8Renderer15InitializeClassEvEN28FunctorImpl_138kLayerChanged4CallEPviR11MessageData
HJi:_AnalyticsEventTracker_Start_m1087627554
NAj:__ZN6il2cpp2os4Time29GetTicksMillisecondsMonotonicEv
Eed:_GridLayoutGroup_CalculateLayoutInputVertical_m357562599
HZf:_CompressedStack_Capture_m3327262890
FXf:_StringBuilder_Replace_m1968561789
ojb:__ZN12ScriptMapper8TransferI14SafeBinaryReadEEvRT_
qub:__Z18Transfer_BlittableI24GenerateTypeTreeTransferLb1E10Matrix4x4fEvRK29SerializationCommandArgumentsR31RuntimeSerializationCommandInfo
F5c:_StandaloneInputModule_get_repeatDelay_m1143359059
uZf:_UTF8Encoding_GetMaxByteCount_m420651053
Lsc:__ZN9JSONWrite8TransferI10Matrix4x4fEEvRT_PKc17TransferMetaFlags
GAc:_cf2_hintmap_map
ozf:_DateTime_Compare_m2855073242
evh:_List_1_get_Item_m1651423686_gshared
pUa:__ZNK16GraphicsSettings22GetTypeVirtualInternalEv
v1f:_Type_get_IsExplicitLayout_m1182254884
drb:__ZN15SerializeTraitsI5RectTIfEE8TransferI14SafeBinaryReadEEvRS1_RT_
jLa:__ZNK14SerializedFile15GetTypeIfExistsEx
Bjc:__Z41Register_UnityEngine_Texture_get_wrapModev
hMc:_UNITY_FT_Raccess_Get_DataOffsets
N8b:__ZN14PlayableOutputC2EjP13PlayableGraph
YHe:_DefaultComparer_Compare_m3278268937_gshared
oad:_FloatTween_AddOnChangedCallback_m2814315272
KUc:__Z13RegisterClassI21UnityAnalyticsManagerEvv
VAj:__ZN6il2cpp6icalls8mscorlib6System7Runtime15InteropServices8GCHandle15GetTargetHandleEP12Il2CppObjectii
_mg:_CameraCallback_Invoke_m3308824940
Dcb:__ZN9InputAxis8TransferI18StreamedBinaryReadILb0EEEEvRT_
DW:__ZN13MemoryManager12GetAllocatorE10MemLabelId
$8d:_BigInteger_ToString_m3260066955
Roa:__ZN9GfxDevice29GetMinimumNodesPerGraphicsJobEv
p6h:__ZL63RuntimePlatform_t4159857903_CustomAttributesCacheGenerator_NaClP21CustomAttributesCache
Bab:__ZN17BlendShapeChannel8TransferI24GenerateTypeTreeTransferEEvRT_
s2e:_Slider__ctor_m873361617
Y7d:_GCHandle__ctor_m2690474163_AdjustorThunk
Zea:__ZN15DirectorManager17OnSampleFixedTimeEv
iWb:__ZNK13RendererScene21GetDynamicObjectCountEv
BFf:_Double_Parse_m1135962389
Fui:_X509Extension__ctor_m710637961
Hzf:_CultureInfo_get_CurrentCulture_m1632690660
$9e:_PKCS1_OS2IP_m65970018
Fk:_Mix_HaltMusic
sfh:_ReadOnlyCollection_1_System_Collections_IList_set_Item_m70952451_gshared
Yfb:__ZNSt3__26vectorIN30RuntimeInitializeOnLoadManager9ClassInfoE13stl_allocatorIS2_L18MemLabelIdentifier13ELi16EEE8__appendEj
Yub:__ZN24GenerateTypeTreeTransfer32TransferSTLStyleArrayWithElementI23ManagedObjectTransfererEEvRT_17TransferMetaFlags
Cxj:__ZN6il2cpp6icalls8mscorlib6System11Environment12get_PlatformEv
gef:_HttpWebRequest__cctor_m1467954389
kee:_CipherSuiteCollection_System_Collections_IList_Remove_m2463347416
Ych:_ReadOnlyCollection_1_System_Collections_IList_RemoveAt_m1980090087_gshared
Trg:_DefaultValueAttribute_GetHashCode_m3368187153
sHj:__ZN6il2cpp6icalls8mscorlib6System7Runtime8Remoting16RemotingServices16GetVirtualMethodEP20Il2CppReflectionTypeP22Il2CppReflectionMethod
$ec:__Z42Register_UnityEngine_Behaviour_get_enabledv
Wje:_SslStreamBase_EndNegotiateHandshake_m1124299797
She:_SslStreamBase__ctor_m3009266308
B9i:__ZN6il2cpp2vm14TypeNameParser23ParseNestedTypeOptionalERi
f0f:_TimeSpan_get_Seconds_m1883479191_AdjustorThunk
SGj:__ZN6il2cpp2os13FastMutexImplC2Ev
D7d:_RuntimeHelpers_InitializeArray_m4077124945
Vfb:__ZN30RuntimeInitializeOnLoadManager9ClassInfo8TransferI14SafeBinaryReadEEvRT_
h9d:_BigInteger_op_Equality_m1194739960
RYf:_UTF7Encoding_GetCharCount_m2792854727
CSb:__ZL13RenderCastersiRK8Vector3fS1_RK13ShadowJobDataR17ShaderPassContextRKNSt3__26vectorI16ShadowCasterData13stl_allocatorIS9_L18MemLabelIdentifier2ELi16EEEERKNS8_I20ShadowCasterPartDataSA_ISG_LSB_2ELi16EEEERK15RenderNodeQueuebPKj
ql:_emscripten_glGetShaderInfoLog
T3e:_Text_get_horizontalOverflow_m4155575610
que:_ObjectReader_RecordFixup_m4125245357
DEc:_UNITY_ft_glyphslot_set_bitmap
vri:_Dictionary_2_Do_ICollectionCopyTo_TisRuntimeObject_m1362949338_gshared
Fl:_glUniform1i
VUe:_InputField_Validate_m4147207871
F1b:__ZN6prcoreL11inner_clearILj3EEEvPhjjj
MHf:_CCGregorianCalendar_dmy_from_fixed_m494173177
DMj:__ZNKSt3__212basic_stringIcNS_11char_traitsIcEENS_9allocatorIcEEE7compareEjjPKcj
cyh:_List_1_System_Collections_IList_IndexOf_m3211997095_gshared
A5:__Z29FindReflectionProbeFromAnchorP9TransformRK4AABBRS1_RsS5_
oud:_Byte_System_IConvertible_ToUInt64_m371883985_AdjustorThunk
VGc:_Read_CVT_Stretched
a7i:__ZN6il2cpp6icalls8mscorlib6System18CollectTypeMethodsINS_5utils10functional10TrueFilterEEEvP11Il2CppClassPKS7_jRKT_RNSt3__26vectorIPK10MethodInfoNSE_9allocatorISI_EEEERA65535_b
DGb:__Z14SetPlayerPause11PlayerPauseb
Zyd:_CollectionBase_System_Collections_ICollection_CopyTo_m2850099809
Deh:_ReadOnlyCollection_1_System_Collections_IEnumerable_GetEnumerator_m3042843502_gshared
T5c:_StandaloneInputModule_ActivateModule_m2232892298
e8d:_GCHandle_Free_m1457699368_AdjustorThunk
N_f:_Thread_get_CurrentUICulture_m1397429997
iWi:_CanvasRenderer_SetAlphaTexture_m2009567627
wBc:_cff_done_blend
unf:_RSACryptoServiceProvider_Dispose_m1199148535
Tdd:_Graphic_RegisterDirtyLayoutCallback_m1235519898
y_:__Z30scripting_stack_trace_info_for21ScriptingExceptionPtrR14StackTraceInfo
sCg:_Vector2_op_Inequality_m3858779880
BQj:_glCompressedTexSubImage3D__wrapper
MYa:__ZN18ShadowMapJobHeaderD0Ev
k2e:_Selectable_Select_m1465131241
rej:__ZN15dense_hashtableINSt3__24pairIK10KeyWrapperINS1_IPK12PropertyInfoP11Il2CppClassEEEjEES9_17ReflectionMapHashIS8_EN14dense_hash_mapIS9_jSD_NS9_14EqualsComparerINS0_8equal_toIS8_EEEENS0_9allocatorISB_EEE9SelectKeyESI_SK_EC2ERKSN_j
FI:__ZN15AudioReverbZone7CleanupEv
Boa:__ZN10BufferGLESD0Ev
jGb:__Z20scripting_gc_disablev
Xrd:_Attribute_IsDefined_m1430686743
umf:_IntervalCollection_Optimize_m161975983
h9c:__Z9NullCheckPv
X5f:_Version__ctor_m417728625
Hfa:__ZN16memory_pool_implILi68EE15AutoPoolWrapper10InitializeEPv
cDd:_Convert_ToByte_m3567528984
Smh:_InvokableCall_1_Invoke_m3497872319_gshared
MEb:__ZN9Scripting35ErrorMessageForUnsupportedEnumFieldE17ScriptingFieldPtr
E4e:_Level2MapComparer__cctor_m1866197409
BAb:__Z29Transfer_Blittable_ArrayFieldI18StreamedBinaryReadILb1EEfEvRT_R9ArrayInfoRK23StaticTransferFieldInfo
nie:_RecordProtocol_ReadRecordBuffer_m180543381
eKe:_Enumerator_get_CurrentKey_m2230405065_AdjustorThunk
TNi:__ZL24UnresolvedVirtualCall_10P12Il2CppObjectPK10MethodInfo
syd:_BitArray__ctor_m2765908219
fwf:_StringComparer_get_InvariantCultureIgnoreCase_m2404489191
oTi:_Font_get_material_m1471867149
BAj:__ZN6il2cpp6icalls8mscorlib6System7Runtime16CompilerServices14RuntimeHelpers15InitializeArrayEP11Il2CppArrayi
Mne:_Context_Freeze_m2594571993
d_c:__ZZN18UnityConnectClient23RegisterGlobalCallbacksEvEN46EarlyUpdateUnityConnectClientUpdateRegistrator7ForwardEv
z9c:_ContentSizeFitter_HandleSelfFittingAlongAxis_m3992075504
pTf:_Array_InternalArray__ICollection_CopyTo_TisInt32_t2950945753_m3102754797_gshared
mwg:_Quaternion_ToString_m2203056442
HYd:_ModuleBuilder_GetTokenGenerator_m4177350090
Kab:__ZN10Matrix4x4f8TransferI18StreamedBinaryReadILb0EEEEvRT_
T_f:_Thread_Start_m2860771284
XCh:_List_1_AddEnumerable_m2295992518_gshared
CM:__ZN4FMOD7Channel19getReverbPropertiesEP29FMOD_REVERB_CHANNELPROPERTIES
uVb:__ZL23NormalizeRobustInternalRK8Vector3fRfS2_f
nyc:__GLOBAL__sub_I_modules_terrain_public_2_cpp
QTe:_InputField_get_selectionColor_m2548343601
JRf:_Array_LastIndexOf_TisRuntimeObject_m2701366436_gshared
S6i:__ZN6il2cpp6icalls8mscorlib6System8MonoType13GetInterfacesEP20Il2CppReflectionType
OT:__ZN11UnityEngine15CloudWebService25WebRequestDownloadHandler7OnAbortEv
cMb:__ZN6Camera12CustomRenderER11CullResultsR17ShaderPassContextPK21CameraRenderingParamsNS_10RenderFlagEPNS_21PerformRenderFunctionEPFvvE
Tgf:_PublicKey_GetUnsignedBigInteger_m3873409673
Mvj:__ZN6il2cpp2os6Thread22SetNativeThreadCleanupEPFvPvE
zgg:_GenericEqualityComparer_1_Equals_m2669134646_gshared
Bec:__Z35Application_Get_Custom_PropPlatformv
vHe:_DefaultComparer_Compare_m1649892577_gshared
ehd:_RuntimeMethodHandle__ctor_m2867240657
Uwf:_DecoderFallback_get_StandardSafeFallback_m2130338133
en:FUNCTION_TABLE_vdd
Xtb:__Z18Transfer_BlittableI24GenerateTypeTreeTransferLb1E10ColorRGBAfEvRK29SerializationCommandArgumentsR31RuntimeSerializationCommandInfo
uAa:__ZN6prcoreL17RemapGenericFloatI18TexFormatRGBAFloat16TexFormatRGFloatEEvPKNS_9InnerInfoE
r6i:__ZN6il2cpp6icalls8mscorlib6System8MonoType8get_NameEP20Il2CppReflectionType
X5e:_SimpleCollator_LastIndexOf_m2130553617
uqb:__ZNSt3__26vectorI10RectOffset13stl_allocatorIS1_L18MemLabelIdentifier1ELi16EEE8__appendEj
Zt:__ZN21AnimationClipPlayable22PrepareAnimationEventsEfR13dynamic_arrayI22AnimationClipEventInfoLj4EE
$He:_DefaultComparer_Compare_m1920986590_gshared
Q0f:_TimeSpan_op_Equality_m1999885032
eke:_SslStreamBase_get_ServerCertificates_m2154373069
crj:__ZN6il2cpp2vmL29AddTypeToNametoClassHashTableEPK11Il2CppImagei
Xo:FUNCTION_TABLE_ff
Zo:FUNCTION_TABLE_fi
HHd:_NumberFormatter_ZeroTrimEnd_m3065471008
moh:_UnityAction_2_Invoke_m2304474703_gshared
Vmd:_X509Certificate_get_DSA_m1760272844
M_f:_Thread_get_CurrentCulture_m349116646
F_f:_Thread_Thread_internal_m4184414727
ud:_emscripten_glGetAttribLocation
KKb:__ZZ23InitPlayerLoopCallbacksvEN39PostLateUpdateResetInputAxisRegistrator7ForwardEv
qL:__ZN4FMOD12ChannelGroup14getParentGroupEPPS0_
yd:_emscripten_set_blur_callback
nHh:_Collection_1_IsValidItem_m1475436662_gshared
jya:__ZNK14ImageReference9ClipImageEiiii
D6b:__ZN4MeshC2E10MemLabelId18ObjectCreationMode
lTb:__ZN10Matrix4x4f30SetPositionAndOrthoNormalBasisERK8Vector3fS2_S2_S2_
uKa:__ZN5RectTIfE8TransferI24GenerateTypeTreeTransferEEvRT_
e9c:_ColorBlock_Equals_m518833916
Zuj:__ZN6il2cpp6icalls8mscorlib6System4Enum8ToObjectEP20Il2CppReflectionTypeP12Il2CppObject
Hoi:_Array_qsort_TisUIVertex_t4057497605_m4120916435_gshared
sNb:__ZN12FlareManager6UpdateEv
Voj:__ZN6il2cpp6icalls8mscorlib6System4Type29GetGenericTypeDefinition_implEP20Il2CppReflectionType
zdb:__ZN27GenericSlowGarbageCollector16ProcessReferenceEi
B8f:_Dictionary_2_get_Item_m1749337561_gshared
Qme:_LifetimeServices_set_SponsorshipTimeout_m2538334028
Jpi:_Array_Sort_TisCustomAttributeTypedArgument_t2723150157_m3248988944_gshared
DKj:_fopen
ena:__ZN20GpuProgramParameters15AddTextureParamEPKciib16TextureDimensionP16PropertyNamesSet
IMc:__ZN20TextRenderingPrivate8FontImplD2Ev
FV:__ZN19CloudServiceHandler8SaveFileERKN4core12basic_stringIcNS0_20StringStorageDefaultIcEEEEPKvj
toj:__ZN6il2cpp2vm9Exception5RaiseEib
tBj:_GC_init
BTd:_MonoType_IsPointerImpl_m3340652279
dTj:_glFramebufferTexture2D__wrapper
gIj:__ZN6il2cpp6icalls8mscorlib6System7Runtime8Remoting7Proxies9RealProxy27InternalGetTransparentProxyEP12Il2CppObjectP12Il2CppString
Dwj:__ZN6il2cpp2vm6Method10IsInflatedEPK10MethodInfo
SAj:__ZNK6il2cpp8metadata14Il2CppTypeLessclEPK10Il2CppTypeS4_
PBj:_GC_remove_header
rWa:__ZL17InstanceBufferJobIN10Instancing14RenderLoopArgsEEvP21InstanceBufferJobDataIT_E
Nfb:__ZNSt3__26vectorIi13stl_allocatorIiL18MemLabelIdentifier13ELi16EEE8__appendEj
r_e:_ReflectionMethodsCache__ctor_m3826472948
Dre:_ReturnMessage_get_OutArgs_m1641976511
Goe:_SynchronizationAttribute_IsContextOK_m324067792
puj:__ZN6il2cpp2vm6Object6IsInstEP12Il2CppObjectP11Il2CppClass
hxb:__Z19TransferField_ArrayI19StreamedBinaryWriteILb0EE27Converter_UnityEngineObjectEvRK23StaticTransferFieldInfoR31RuntimeSerializationCommandInfoRT0_
W8i:_RemoteSettings_CallOnUpdate_m2821567430
$ua:__Z16GetMSAALevelDesc9MSAALevel
aHf:_Environment_GetMachineConfigPath_m43519138
VBe:_InternalEnumerator_1_System_Collections_IEnumerator_get_Current_m4203917072_gshared
JCf:_Decimal_decimal2Int64_m2102545213
rMb:__ZN8Renderer27EnsureTransformInfoUpToDateEv
GVj:_emscripten_glFrontFace__wrapper
D7f:_Dictionary_2_System_Collections_ICollection_CopyTo_m534867526_gshared
La:invoke_fiffi
M0:__ZN14SerializedFile14SerializedType8ReadTypeILb1EEEbibRPKhS3_Pi
znh:_InvokableCall_1_Invoke_m1160628299_gshared
D1c:_ExecuteEvents_get_pointerEnterHandler_m1185301724
Vti:_InternalAsyncResult__ctor_m2194591319
TYa:__ZN8Playable7SetTimeEd
raa:__ZN13RuntimeStaticI12GraphicsCapsLb0EE16StaticInitializeEPv
_8a:__ZN9Texture3D17UploadToGfxDeviceEv
ypd:_ArgumentException__ctor_m3761792013
JFc:_tt_cmap2_validate
MBc:_cff_cmap_unicode_done
Mke:_ActivationServices_CreateProxyFromAttributes_m3864561181
$Fb:__ZN9Scripting20SendScriptingMessageER10GameObjectPKc18ScriptingObjectPtr
VSg:__Z67RuntimeInvoker_Void_t1185182177_Scene_t2348375561_Int32_t2950945753PFvvEPK10MethodInfoPvPS4_
zGb:__Z26IsSplashScreenFadeCompletev
Afc:__Z42Register_UnityEngine_Camera_get_clearFlagsv
U6i:__ZNSt3__26__treeIP11Il2CppClassNS_4lessIS2_EENS_9allocatorIS2_EEED2Ev
f3e:_Slider_FindSelectableOnRight_m3576909722
AZb:__ZN13RenderManager27UpdatePreviousFrameMatricesEv
syb:__Z35Transfer_Blittable_FixedBufferFieldI18StreamedBinaryReadILb1EExEvRK29SerializationCommandArgumentsR31RuntimeSerializationCommandInfo
lsi:_Array_InternalArray__get_Item_TisByte_t1134296376_m3566214066_gshared
Aba:__Z22SetManagerPtrInContextiP6Object
web:__ZN14PlayerSettings8TransferI19StreamedBinaryWriteILb0EEEEvRT_
Itc:__Z18Transfer_BlittableI8JSONReadLb0E10ColorRGBAfEvRK29SerializationCommandArgumentsR31RuntimeSerializationCommandInfo
gIf:_NumberFormatInfo_set_NumberNegativePattern_m1999304795
TAh:_List_1_System_Collections_IList_Insert_m2238786360_gshared
S_d:_GenericTypeParameterBuilder_IsSubclassOf_m2266644074
Z2i:__ZN15dense_hashtableINSt3__24pairIK10KeyWrapperIN6il2cpp5utils13dynamic_arrayIPK10Il2CppTypeLj4EEEEPFvvEEESA_NS3_8metadata19Il2CppSignatureHashEN14dense_hash_mapISA_SD_SG_NSA_14EqualsComparerINSF_22Il2CppSignatureCompareEEENS0_9allocatorISE_EEE9SelectKeyESK_SM_E14squash_deletedEv
FIf:_CompareInfo_ToString_m2684143229
Sda:__ZN15DirectorManagerD2Ev
G2e:_Slider_get_maxValue_m414465787
hdj:__ZN15dense_hashtableINSt3__24pairIK10KeyWrapperINS1_IPK10MethodInfoP11Il2CppClassEEEjEES9_17ReflectionMapHashIS8_EN14dense_hash_mapIS9_jSD_NS9_14EqualsComparerINS0_8equal_toIS8_EEEENS0_9allocatorISB_EEE9SelectKeyESI_SK_E9copy_fromERKSN_j
_if:_X509CertificateEnumerator_System_Collections_IEnumerator_get_Current_m4218613192
GWc:__ZN11UnityEngine15PlatformWrapper12GetInfoFlagsEv
$_e:_Scrollbar_set_direction_m473480640
rYf:_UTF32Encoding__ctor_m1635603592
b5f:_UInt64_Equals_m1879425698_AdjustorThunk
nEi:_Uri_IsPredefinedScheme_m1188665625
h_c:__ZN18UnityConnectClient13StaticDestroyEv
fpj:__ZN6il2cpp6icalls8mscorlib6System13Globalization11CultureInfo45construct_internal_locale_from_current_localeEP17Il2CppCultureInfo
YTf:_Array_InternalArray__ICollection_CopyTo_TisUIVertex_t4057497605_m487823430_gshared
pff:_ServicePointManager_get_CheckCertificateRevocationList_m1645465614
R8i:_SessionStateChanged_Invoke_m1365949269
oGa:__ZN15TextureTFMethod16BindForRenderingEj
vci:__ZL49Canvas_t3310196443_CustomAttributesCacheGeneratorP21CustomAttributesCache
Ore:_SoapMethodAttribute_SetReflectionObject_m503748123
ZKf:_Guid_Equals_m3683678873_AdjustorThunk
drj:__ZN15dense_hashtableINSt3__24pairIK10KeyWrapperINS1_IPKcS4_EEEiEES6_24NamespaceAndNamePairHashN14dense_hash_mapIS6_iS9_NS6_14EqualsComparerI26NamespaceAndNamePairEqualsEENS0_9allocatorIS8_EEE9SelectKeyESD_SF_E4findERS7_
oxc:__ZN11UnityEngine9Analytics33PerformanceReportingRenderingInfoC2Ei
xKc:__ZN20TextRenderingPrivate8FontImpl13CharacterInfo8TransferI19StreamedBinaryWriteILb0EEEEvRT_
j5i:__ZN6il2cpp2os19SocketHandleWrapper7ReleaseEv
mlg:_BeforeRenderHelper_Invoke_m50072094
hqe:_MethodCall_get_MethodBase_m550047245
kdb:__ZNSt3__27__sort4IRNS_6__lessINS_4pairIPKN5Unity4TypeE7Hash128EES8_EEPS8_EEjT0_SC_SC_SC_T_
bbc:__Z33AllocExtractMeshIndicesFromScriptRK4Meshib
toa:__ZNK11NamedObject22GetTypeVirtualInternalEv
dEi:_Uri_EscapeString_m2061933484
$Ce:_InternalEnumerator_1_System_Collections_IEnumerator_get_Current_m1096730143_gshared
KDd:_Convert_ToDecimal_m3815908452
wng:_Color_op_Equality_m1112359053
mng:_Color__ctor_m286683560_AdjustorThunk
RNd:_DelegatePInvokeWrapper_ReadDelegate_t714865915
nzd:_CollectionBase_Clear_m1509125218
Inc:__ZN11IMGUIModule21QueryGUIDisplayTargetE17ScriptingClassPtr
$1i:__ZNSt3__27__sort4IRN6il2cpp5utils11collections13ArrayValueMapIPK10Il2CppType17Il2CppInteropData26InteropDataToTypeConverterNS1_8metadata14Il2CppTypeLessENSA_26Il2CppTypeEqualityComparerEE12SortComparerEPS8_EEjT0_SH_SH_SH_T_
dOj:dynCall_vidi
JPd:_StreamReader_ReadToEnd_m371831293
Osg:_Mathf_RoundToInt_m1874334613
DSd:_MonoCustomAttrs_GetCustomAttributes_m1775925192
Igc:__Z42NoAllocHelpers_CUSTOM_ExtractArrayFromListP12Il2CppObject
CRj:_glVertexAttribPointer__wrapper
Dkd:_HMAC_Create_m2148924157
QNj:___udivdi3
jHf:_Exception__ctor_m1406832249
Tjg:_Enumerator_System_Collections_IEnumerator_get_Current_m2339378585_gshared
Pcc:__ZN11PlayerPrefs9SetStringERKN4core12basic_stringIcNS0_20StringStorageDefaultIcEEEES6_
HEj:__ZN6il2cpp6icalls8mscorlib6System8Delegate18SetMulticastInvokeEP14Il2CppDelegate
OJe:_Enumerator_VerifyCurrent_m2197239943_gshared
yT:__ZN11UnityEngine15CloudWebService20WebRequestRestClient5BeginEv
H6b:__ZN8Material12CleanupClassEv
RKj:_fseek
Ayc:__ZN16memory_pool_implILi40EE15AutoPoolWrapper10InitializeEPv
zyf:_DateTimeFormatInfo_GetEraName_m3151483707
Xbf:_PKCS12_AddCertificate_m3618696508
GM:__ZN20SoundChannelInstance11set3DSpreadEf
yhg:_HashSet_1_Init_m2976925848_gshared
kr:__ZNSt3__26__sortIRN11UnityEngine9Animation11BindingSortEPNS_4pairINS2_14GenericBindingEPNS2_10BoundIndexEEEEEvT0_SB_T_
Zhe:_HttpsClientStream_U3CHttpsClientStreamU3Em__0_m2058474197
tFd:_Convert_ToUInt32_m2215525276
meb:__ZN24GenerateTypeTreeTransfer32TransferSTLStyleArrayWithElementI16SplashScreenLogoEEvRT_17TransferMetaFlags
Hbj:__ZN15dense_hashtableINSt3__24pairIK10KeyWrapperINS1_IPK9FieldInfoP11Il2CppClassEEEjEES9_17ReflectionMapHashIS8_EN14dense_hash_mapIS9_jSD_NS9_14EqualsComparerINS0_8equal_toIS8_EEEENS0_9allocatorISB_EEE9SelectKeyESI_SK_E6insertERKSB_
sBe:_InternalEnumerator_1_get_Current_m2680116177_gshared
d0i:__ZN14dense_hash_mapI10KeyWrapperIPKcEP11Il2CppClassN6il2cpp5utils11StringUtils12StringHasherIS2_EENS3_14EqualsComparerINS7_13VmStringUtils21CaseSensitiveComparerEEENSt3__29allocatorINSF_4pairIKS3_S5_EEEEEC2EjRKSA_RKSE_
Zca:__Z37InitializeIntermediateRendererManagerPv
Unj:__ZN6il2cpp2vm13LivenessState16AddProcessObjectEP12Il2CppObjectPS1_
Yuf:_String_IndexOfOrdinal_m962178384
Ekd:_HMACMD5__ctor_m3129799368
f_d:_TypeBuilder_GetEvent_m2166527753
Pdd:_Graphic_CrossFadeColor_m678806803
paa:__ZN23DefaultMeshVertexFormatC2E17ShaderChannelMask
Nyb:__ZL26Transfer_SimpleNativeClassI18StreamedBinaryReadILb1EE8GradientLb1EEvRK29SerializationCommandArgumentsR31RuntimeSerializationCommandInfo
xMg:__Z102RuntimeInvoker_Int32_t2950945753_RuntimeObject_Int32_t2950945753_CharU26_t1697032762_SByte_t1669577662PFvvEPK10MethodInfoPvPS4_
STd:_MonoType_get_Namespace_m2015358851
Tph:_IndexedSet_1_RemoveAt_m3002732320_gshared
NAd:_HashKeys_CopyTo_m4219627824
vTe:_InputField_GetLineStartPosition_m2947412579
Eua:__ZN7ApiGLES10InvalidateERK14GfxContextGLES
psd:_Convert_ToType_m2406080310
Ihh:_ReadOnlyCollection_1_IndexOf_m2659941036_gshared
ahh:_ReadOnlyCollection_1_System_Collections_IList_set_Item_m3570269385_gshared
Yqh:_List_1_AddEnumerable_m2043754576_gshared
zhi:__ZL85Graphic_t1660335611_CustomAttributesCacheGenerator_Graphic_OnPopulateMesh_m2916877004P21CustomAttributesCache
Jad:_DefaultControls_CreateToggle_m1236643913
F8e:_BitConverterLE_ToSingle_m1153793442
PGj:__ZN6il2cpp2os5Mutex7TryLockEjb
cGd:_Int16_System_IConvertible_ToByte_m3161982419
b5:__Z20IsVectorBuiltinParamPKcPi
Rtj:__ZN6il2cpp2vm5Field8GetFlagsEP9FieldInfo
nld:_MD5CryptoServiceProvider_HashFinal_m2625727830
Aoi:_Array_qsort_TisRaycastResult_t3360306849_m3861320071_gshared
rtf:_Single_System_IConvertible_ToUInt32_m289030200
xmj:__ZN6il2cpp6icalls8mscorlib6System10ReflectionL16LoadResourceFileEP24Il2CppReflectionAssembly
$Ef:_Double_System_IConvertible_ToDouble_m3692611612
o0:__Z13IsFileCreatedRKN4core12basic_stringIcNS_20StringStorageDefaultIcEEEE
d4e:_Text_OnPopulateMesh_m1525268284
aNd:_FileStream_FlushBuffer_m914568182
y4a:__ZN16LightmapSettings18TransferDeprecatedI14SafeBinaryReadEEvRT_
QXf:_StringBuilder_AppendFormat_m921870684
Ntj:__ZN15dense_hashtableINSt3__24pairIK10KeyWrapperIP12Il2CppObjectEN6il2cpp2gc9CachedCCWEEES5_NS7_5utils11PointerHashIS3_EEN14dense_hash_mapIS5_S9_SD_NS5_14EqualsComparerINS0_8equal_toIS4_EEEENS0_9allocatorISA_EEE9SelectKeyESI_SK_E5eraseE30dense_hashtable_const_iteratorISA_S5_SD_SM_SI_SK_E
Qzd:_Hashtable__ctor_m1684344284
xy:__ZThn152_NK26AnimatorControllerPlayable41GetStateMachineBehaviourVectorDescriptionEv
Kod:_Activator_CheckAbstractType_m2015247896
znf:_RSACryptoServiceProvider_ImportParameters_m614616705
Q7:__GLOBAL__sub_I_runtime_camera_renderloops_1_cpp
Wge:_SslHandshakeHash_CreateSignature_m1634235041
SOe:_ShimEnumerator_get_Current_m3504536618_gshared
iUa:__ZN12FlareManager9AddCameraER6Camera
r$c:__ZN15UnityWebRequestD0Ev
eYe:_LayoutRebuilder_U3CRebuildU3Em__3_m523803689
xN:__ZN11AudioSource8TransferI14SafeBinaryReadEEvRT_
MMd:_FileNotFoundException__ctor_m2477162036
Ocg:_EqualityComparer_1__cctor_m149356781_gshared
iCf:_Decimal_System_IConvertible_ToDouble_m3125524987
uv:__ZN7mecanim9animation23TransformDeltasFromClipEiiiRKNS0_18ClipMuscleConstantERKNS0_12ClipBindingsERKNS_14ValueArrayMaskERN4math4trsXESC_SC_
ABb:__Z18Transfer_BlittableI18StreamedBinaryReadILb0EELb0E12PropertyNameEvRK29SerializationCommandArgumentsR31RuntimeSerializationCommandInfo
WNj:___divdi3
uxc:__ZN13ProduceHelperI27PerformanceReportingManagerLb0EE7ProduceE10MemLabelId18ObjectCreationMode
ozi:_Match_get_Empty_m2060287462
lnb:__ZN19ShaderPropertySheet16SetComputeBufferEN9ShaderLab16FastPropertyNameE15ComputeBufferIDNS_8SetFlagsE
vug:_U3CInvokeMessageIdSubscribersU3Ec__AnonStorey0_U3CU3Em__0_m444206473
P8f:_Dictionary_2_ContainsValue_m256968015_gshared
eyj:__ZNK15dense_hashtableINSt3__24pairIK10KeyWrapperIPK19Il2CppGenericMethodEP10MethodInfoEES6_N6il2cpp8metadata23Il2CppGenericMethodHashEN14dense_hash_mapIS6_S9_SD_NS6_14EqualsComparerINSC_26Il2CppGenericMethodCompareEEENS0_9allocatorISA_EEE9SelectKeyESH_SJ_E5beginEv
Wve:_ArrayReadOnlyList_1_get_Item_m1974867852_gshared
Kfd:_Image_AddQuad_m969836764
S4e:_MSCompatUnicodeTable_IsIgnorableNonSpacing_m47098938
X9g:_Collection_1_IsSynchronized_m2655903966_gshared
IId:_Int32_System_IConvertible_ToSingle_m896140682_AdjustorThunk
yv:__ZN7mecanim21CreateFloatValueArrayEPKNS_18ValueArrayConstantERNS_6memory9AllocatorE
AWb:__ZL12CullGroupJobP20CullingGroupsJobDataj
lCj:_GC_remove_dangling_disappearing_links
pU:__ZN11UnityEngine15CloudWebService14RestDownloader9IsAbortedEv
Gy:__ZN7mecanim12statemachine28DestroyStateMachineWorkspaceEPNS0_21StateMachineWorkspaceERNS_6memory9AllocatorE
yoc:__Z30GUIStyle_CUSTOM_SetDefaultFontP12Il2CppObject
yKe:_Enumerator_System_Collections_IDictionaryEnumerator_get_Key_m3435754782_AdjustorThunk
no:FUNCTION_TABLE_f
ap:FUNCTION_TABLE_i
oCi:_AnchorInfo_get_Position_m1133366486
HPd:_StreamReader_FindNextEOL_m2574298119
Yfa:__ZN11TypeManager12RegisterTypeERK20TypeRegistrationDesc
En:FUNCTION_TABLE_v
pab:__ZNSt3__26vectorI17BlendShapeChannelNS_9allocatorIS1_EEE8__appendEj
Kp:__ZN18StreamedBinaryReadILb0EE21TransferSTLStyleArrayI13dynamic_arrayI8Vector3fLj4EEEEvRT_17TransferMetaFlags
QKb:__ZZ23InitPlayerLoopCallbacksvEN43PostLateUpdateUpdateAllRenderersRegistrator7ForwardEv
mhb:__ZN21LightProbeProxyVolume13GetRenderDataER27LightProbeProxyVolumeSample
lne:_Context_get_ContextProperties_m3283598326
U5g:_Collection_1_System_Collections_IList_set_Item_m4249768453_gshared
hVi:_Keyboard_PlayRandomSound_m629210842
Scb:__ZN11TimeManager8TransferI24GenerateTypeTreeTransferEEvRT_
vOe:_KeyCollection_System_Collections_ICollection_get_SyncRoot_m3900096134_gshared
pqc:__ZN8JSONRead8TransferItEEvRT_PKc17TransferMetaFlagsb
Xr:__ZNK11UnityEngine9Animation28GenericAnimationBindingCache10BindCustomERKNS0_14GenericBindingER9TransformRNS0_10BoundCurveE
Z9i:__ZN6il2cpp2vm17TypeNameParseInfoC2ERKS1_
GYc:__ZN18UnityConnectClient17InitConnectClientEv
rJj:_memcmp
WFd:_GuidParser_ParseHexPrefix_m3148550086
mXc:__ZN11UnityEngine7Connect18ConnectSessionInfo8TransferER9JSONWrite
uQ:__Z74Register_UnityEngine_AudioListener_INTERNAL_CALL_ReadExtensionPropertyNamev
coi:_Array_InternalArray__set_Item_TisHitInfo_t3229609740_m1576844560_gshared
hcb:__ZN9Scripting32GetCachedPtrFromScriptingWrapperE18ScriptingObjectPtr
vje:_SslClientStream_OnBeginNegotiateHandshake_m3734240069
sQc:__ZN2UI29ScheduleUIJobsForInstructionsERNS_7BatchesEjPKNS_13UIInstructionEfjjPNS_13CanvasJobDataE
dL:__ZN5audio5mixer22CreateAudioMixerMemoryERKNS0_18AudioMixerConstantEPN4FMOD6SystemERN7mecanim6memory9AllocatorEib
CEb:__ZL65EmitSerializationCommandsForLinearCollectionOfManagedObjectsFieldRK31TransferFunctionScriptingTraitsRK23TransferArrayField_InfoR20SerializationCommandR32SerializationCommandQueueBuilderRP20AllowNameConversions
Zri:_LayoutGroup_SetProperty_TisInt32_t2950945753_m3911895589_gshared
kV:__ZN11UnityEngine15CloudWebService19SessionEventManager31SetupNextActiveSessionContainerEv
dQj:dynCall_iiid
aGg:__Z121RuntimeInvoker_Void_t1185182177_Int32_t2950945753_Int32_t2950945753_Int32_t2950945753_SByte_t1669577662_SByte_t1669577662PFvvEPK10MethodInfoPvPS4_
ENg:__Z52RuntimeInvoker_Single_t1397266774_Single_t1397266774PFvvEPK10MethodInfoPvPS4_
oQf:_Array_IndexOf_TisRuntimeObject_m828474689_gshared
Dxd:_FixedSizeArrayListWrapper_InsertRange_m1706982628
x5f:_UIntPtr_ToString_m984583492_AdjustorThunk
sIb:__ZL20ShaderWarmupFuncImplP6ShaderiPN9ShaderLab4PassERK16ShaderKeywordSetP10DynamicVBOPvR17ShaderPassContext
qJb:__ZN13GfxDeviceGLESC2E10MemLabelId
HTi:_TextGenerationSettings_Equals_m3618607189
R1i:__ZN15dense_hashtableI10KeyWrapperIPK17Il2CppGenericInstES4_N6il2cpp8metadata21Il2CppGenericInstHashEN14dense_hash_setIS4_S7_NS4_14EqualsComparerINS6_24Il2CppGenericInstCompareEEENSt3__29allocatorIS4_EEE8IdentityESB_SE_E6insertERKS4_
Yaj:__ZN15dense_hashtableINSt3__24pairIK10KeyWrapperINS1_IPK14Il2CppAssemblyP11Il2CppClassEEEjEES9_17ReflectionMapHashIS8_EN14dense_hash_mapIS9_jSD_NS9_14EqualsComparerINS0_8equal_toIS8_EEEENS0_9allocatorISB_EEE9SelectKeyESI_SK_E3endEv
oYc:__ZN11UnityEngine7Connect17DeviceStatusEventC2Ev
TZf:_NativeEventCalls_ResetEvent_internal_m885886540
USd:_MonoEnumInfo_get_enum_info_m1661176095
PFi:_GUIUtility_CheckOnGUI_m3924092168
Eva:__ZN14DataBufferGLES12RecordUpdateEv
aye:_InternalEnumerator_1_get_Current_m1481634550_gshared
CLc:__ZN20TextRenderingPrivate15DynamicFontData28GetFaceForFontRefFromOSFontsERKNS_7FontRefE
xge:_Context_ClearKeyInfo_m1155154290
Awg:_Ray_GetPoint_m1852405345
uuj:__ZN6il2cpp2vm12GenericClass12SetupMethodsEP11Il2CppClass
gmb:__ZNK20LocalFileSystemPosix18GetApplicationPathEv
BCh:_List_1_set_Item_m658432263_gshared
zEb:__ZN9Scripting30IsSystemCollectionsGenericListE17ScriptingClassPtr
g2:__ZN21ScalableBufferManager20GetHeightScaleFactorEv
G9f:_Dictionary_2_Add_m1279427033_gshared
NQc:__ZN2UI23InitializeCanvasManagerEv
DQa:__ZN10GameObject16CheckConsistencyEv
S4c:_PointerInputModule_GetMousePointerEventData_m4273240034
D4b:__ZN14RenderSettings15InitializeClassEv
Q6c:_AspectRatioFitter_set_aspectMode_m4140288987
zgc:__Z46Register_UnityEngine_GameObject_get_activeSelfv
Iya:__ZL35stbir__resample_horizontal_upsampleP11stbir__infoPf
S3g:__Z82RuntimeInvoker_RuntimeObject_RaycastResult_t3360306849_RuntimeObject_RuntimeObjectPFvvEPK10MethodInfoPvPS4_
mEh:_Enumerator__ctor_m3419056812_AdjustorThunk
DDe:_InternalEnumerator_1_System_Collections_IEnumerator_get_Current_m1299775605_gshared
Wtb:__Z18Transfer_BlittableI24GenerateTypeTreeTransferLb0E10ColorRGBAfEvRK29SerializationCommandArgumentsR31RuntimeSerializationCommandInfo
fbg:_DefaultComparer_Equals_m1713730345_gshared
uOj:dynCall_iifii
sPc:__ZN2UI16GetCanvasManagerEv
gbc:__ZN15GUIEventManager8PopEventER10InputEvent
Ogc:__Z31RectOffset_Get_Custom_PropRightP12Il2CppObject
SNc:__Z54Register_UnityEngine_TextGenerator_GetVerticesInternalv
Dld:__Z3BoxP11Il2CppClassPv
Hrg:_Input_get_touchSupported_m1480684970
Hed:_GridLayoutGroup_SetLayoutVertical_m2106427802
Ztg:_MonoBehaviour_StartCoroutine_m3411253000
tGa:__ZN21UniformBufferTFMethodD2Ev
bDe:_InternalEnumerator_1_System_Collections_IEnumerator_get_Current_m1096730143_AdjustorThunk
odc:__ZL34GetComponentsImplementationRecurseILb1ELi1ELi2EEbR10GameObjectbRK17CompareParametersRK39GetComponentsImplementation_ReturnValue
nza:__ZN6prcoreL12RemapGenericI15TexFormatRGB56515TexFormatRGB888EEvPKNS_9InnerInfoE
cFj:__ZN6il2cpp5utils10MemoryPool9AddRegionEj
jhf:_X509Certificate2__ctor_m3336405942
Edd:_Graphic_get_workerMesh_m997382591
ylc:__Z38PlayableHandle_CUSTOM_IsValid_InjectedP9HPlayable
Olj:__ZNSt3__214__split_bufferIP12Il2CppThreadRN6il2cpp2gc9AllocatorIS2_EEED2Ev
_pd:_Array_System_Collections_IList_RemoveAt_m41405158
mVg:__Z64RuntimeInvoker_Boolean_t97287965_RuntimeObject_Int64_t3736567304PFvvEPK10MethodInfoPvPS4_
H8c:_CanvasUpdateRegistry_IsRebuildingLayout_m3530790142
TRc:__Z41CanvasGroup_Get_Custom_PropBlocksRaycastsP12Il2CppObject
$zj:__ZN6il2cpp2os11Environment17GetProcessorCountEv
Qha:__ZNSt3__26vectorIN9ShaderLab26SerializedShaderDependencyENS_9allocatorIS2_EEE8__appendEj
bba:__ZN32TransformHierarchyChangeDispatch26DispatchSelfAndAllChildrenE15TransformAccessNS_12InterestTypeE
AQ:__Z46Register_UnityEngine_AudioSource_get_isPlayingv
q2c:_EventSystem_OnEnable_m3237278246
kca:__ZN13RuntimeStaticI22VirtualJoystickManagerLb0EE13StaticDestroyEPv
ilf:_Interpreter_Balance_m1978770534
DH:__ZN13AudioListener12ApplyFiltersEv
JCh:_List_1_System_Collections_IList_Contains_m353431064_gshared
ANi:_AudioConfigurationChangeHandler_BeginInvoke_m4104069447
LGj:__ZN6il2cpp8metadata27Il2CppGenericContextCompare7CompareEPK20Il2CppGenericContextS4_
ePj:dynCall_viiii
BIf:_CompareInfo_IsPrefix_m796715920
MZi:__ZNK15dense_hashtableINSt3__24pairIK10KeyWrapperIPK22Il2CppGenericParameterEP11Il2CppClassEES6_N6il2cpp5utils11PointerHashIS4_EEN14dense_hash_mapIS6_S9_SE_NS6_14EqualsComparerINS0_8equal_toIS5_EEEENS0_9allocatorISA_EEE9SelectKeyESJ_SL_E23find_position_with_hashERS7_j
cae:_PrimalityTest_Invoke_m2948246884
FMb:__Z11CopyTextureP7TextureiiS0_ii
qwe:_ArrayReadOnlyList_1_Contains_m2459654648_gshared
hei:__ZL65EventTrigger_t1076084509_CustomAttributesCacheGenerator_delegatesP21CustomAttributesCache
baj:__ZNSt3__214__split_bufferIN6il2cpp2vm17TypeNameParseInfoERNS_9allocatorIS3_EEED2Ev
NBh:_List_1_System_Collections_IList_Contains_m3717811284_gshared
J3d:_MonoEvent_get_Attributes_m3048829315
dvb:__Z22TransferField_NonArrayI24GenerateTypeTreeTransfer27Converter_SimpleNativeClassI8GUIStyleEEvRK23StaticTransferFieldInfoR31RuntimeSerializationCommandInfoRT0_
afa:__ZN15DirectorManager14ConnectionPool16GrowEmptyBucketsEv
Wyd:_CaseInsensitiveHashCodeProvider_AreEqual_m3534448780
_Y:__ZN17PersistentManager32CopyToAwakeFromLoadQueueInternalER18AwakeFromLoadQueue
n7b:__ZN10GameObject15InitializeClassEv
wPg:__Z104RuntimeInvoker_Boolean_t97287965_Int32_t2950945753_Int64U5BU5DU26_t194432655_StringU5BU5DU26_t2154486980PFvvEPK10MethodInfoPvPS4_
zOg:__Z106RuntimeInvoker_RuntimeObject_Int16_t2552820387_RuntimeObject_BooleanU26_t4125257963_BooleanU26_t4125257963PFvvEPK10MethodInfoPvPS4_
lMb:__ZNK6Camera16SetActiveVRUsageEv
V_e:_Scrollbar_set_handleRect_m1170237786
muc:__ZL26Transfer_SimpleNativeClassI8JSONRead8GradientLb1EEvRK29SerializationCommandArgumentsR31RuntimeSerializationCommandInfo
UJj:_open
wyi:_X509CrlEntry_get_SerialNumber_m3627212772
uMe:_Enumerator_System_Collections_IEnumerator_get_Current_m2770307259_gshared
HZb:__Z30GetPlayerShouldRunInBackgroundv
dRc:__Z13RegisterClassIN2UI6CanvasEEvv
Xsg:_Mathf__cctor_m1175545152
Q3d:_MonoEvent_IsDefined_m10931749
udf:_NameValueCollection_AsSingleString_m3776180906
hza:__ZN6prcoreL12RemapGenericI11TexFormatI815TexFormatRGB565EEvPKNS_9InnerInfoE
DId:_Int32_System_IConvertible_ToInt64_m3520470966
Lua:__ZNK13TranslateGLES17FramebufferTargetEN2gl17FramebufferTargetE
Zwj:__ZL11on_gc_event11GCEventType
XDe:_InternalEnumerator_1_System_Collections_IEnumerator_get_Current_m1612699335_gshared
pfe:_TlsServerHello__ctor_m3887266572
$ng:_Coroutine_ReleaseCoroutine_m809189848
cTj:b62
eSj:b61
dSj:b60
xTj:b67
wTj:b66
vTj:b65
ilg:_Application_set_targetFrameRate_m3682352535
JUj:b69
IUj:b68
Zyi:_Enumerator_get_Current_m359737019
BTa:__ZNSt3__26__treeINS_12__value_typeIi17ShadowCachingDataEENS_19__map_value_compareIiS3_NS_4lessIiEELb1EEE13stl_allocatorIS3_L18MemLabelIdentifier66ELi16EEE7destroyEPNS_11__tree_nodeIS3_PvEE
isd:_BitConverter_ToInt64_m349022421
xbc:__Z9SetIIMGUIP6IIMGUI
ayh:_List_1_System_Collections_IList_Add_m1142950911_gshared
NXg:__Z68RuntimeInvoker_Boolean_t97287965_Double_t594665363_Double_t594665363PFvvEPK10MethodInfoPvPS4_
pFc:_tt_cmap10_get_info
$Gb:__Z28SetupPixelCorrectCoordinatesi
r9b:__ZNSt3__218__insertion_sort_3IRN10vector_mapIiiNS_4lessIiEE13stl_allocatorINS_4pairIiiEEL18MemLabelIdentifier1ELi16EEE13value_compareEPS6_EEvT0_SD_T_
eva:__Z5SplitRKN4core12basic_stringIcNS_20StringStorageDefaultIcEEEEcRNSt3__26vectorIS3_NS6_9allocatorIS3_EEEEi
wnb:__ZN11MonoManager23VirtualRedirectTransferER24GenerateTypeTreeTransfer
QIi:_AesTransform__ctor_m3143546745
bNf:_Array_InternalArray__ICollection_Remove_TisRuntimeObject_m2110193223_gshared
Abi:__ZL64EventType_t3528516131_CustomAttributesCacheGenerator_scrollWheelP21CustomAttributesCache
l7:__ZN24GenerateTypeTreeTransfer10SetVersionEi
Itg:_Mesh_SetTangents_m1615111656
S8b:__ZN13PlayableGraph16DestroyRecursiveEP8Playable
qoj:__ZN6il2cpp2vm9Exception20GetArgumentExceptionERKNS_5utils10StringViewIDsEES6_
ADh:_Enumerator_System_Collections_IEnumerator_Reset_m1487823313_AdjustorThunk
zqe:_MethodCallDictionary__cctor_m2213329406
OH:__ZN12AudioManagerD0Ev
ITe:_InputField_set_textComponent_m2547304131
Vb:invoke_viiififii
v5e:_SortKeyBuffer_Initialize_m3786111493
Yva:__ZN10Matrix3x3faSERK10Matrix4x4f
Yli:__ZL58IVertexModifier_t3404627876_CustomAttributesCacheGeneratorP21CustomAttributesCache
Bdb:__ZNK22GenericPropertyBinding13SetFloatValueERKN11UnityEngine9Animation10BoundCurveEf
cWf:_Encoding__cctor_m1936558127
Pzh:_List_1__ctor_m163821521_gshared
fld:_MD5_Create_m3289886172
awg:_QualitySettings_set_vSyncCount_m3131636076
sqf:_X509Certificate_get_Subject_m2638144878
ZLc:_raccess_guess_darwin_ufs_export
Glg:_AsyncOperation_Finalize_m1841265672
jKb:__ZN11TypeManager18InitializeAllTypesEv
pTe:_InputField_MarkGeometryAsDirty_m817808086
DXe:_LayoutGroup_get_isRootLayoutGroup_m1082645254
JF:__ZN9AudioClipD0Ev
lij:_il2cpp_class_from_name
AVb:__ZN13dynamic_arrayI11ActiveLightLj4EE26emplace_back_uninitializedEv
m_e:_RectMask2D_OnDisable_m809267607
cEh:_Queue_1__ctor_m1971992302_gshared
lx:__ZN27AnimationLayerMixerPlayable26ProcessAnimationLayerBeginEP35AnimationPlayableEvaluationConstantP32AnimationPlayableEvaluationInputP33AnimationPlayableEvaluationOutput
A2b:__Z13RegisterClassI8GUILayerEvv
K0b:__ZN25ThreadsafeLinearAllocatorC2EiiPKc
ltg:_Mesh_GetIndicesImpl_m3233954035
oTd:_MonoType_GetEvent_m28975240
TCa:__ZN14GfxContextGLES11MakeCurrentER7ApiGLESN2gl13ContextHandleE
Tni:_Array_InternalArray__set_Item_TisUInt16_t2177724958_m1951465847_gshared
yNd:_MonoIO_Write_m3999708352
vQj:dynCall_viffffi
aTf:_Array_InternalArray__ICollection_CopyTo_TisChar_t3634460470_m3599063464_gshared
SYf:_UTF7Encoding_InternalGetChars_m2722395139
bzf:_DateTime_get_Today_m2788644320
pIb:__ZN16GraphicsSettings22WarmupPreloadedShadersEv
eTc:__Z34Canvas_Set_Custom_PropSortingOrderP12Il2CppObjecti
Lhd:_SByte_System_IConvertible_ToSingle_m1083054891
Uyi:_CostDelegate_Invoke_m898648402
LYf:_UTF7Encoding_Equals_m227704363
jpg:_DisplaysUpdatedDelegate_Invoke_m3203573844
sCb:__ZN18StreamedBinaryReadILb0EE8TransferI13dynamic_arrayI12PropertyNameLj4EEEEvRT_PKc17TransferMetaFlags
Gma:__ZN9ShaderLab4Pass6RetainEv
x9e:_KeyPairPersistence_get_ContainerName_m4274536094
aw:__ZN7mecanim9animation22CopyAnimationNodeStateEPKNS0_18AnimationNodeStateEPS1_bbRKNS_6bitsetILj83EEE
vcb:__Z10AddGUIAxesR13dynamic_arrayI9InputAxisLj4EE
bb:invoke_iiiiiiffiiiiiiiiiffffiii
Bxg:_Rect_op_Equality_m3986168348
QYi:_CustomEventData_Add_m3128590933
wLe:_Enumerator_System_Collections_IDictionaryEnumerator_get_Key_m4039922590_AdjustorThunk
uOc:__ZN2UI6Canvas8TransferI14SafeBinaryReadEEvRT_
lxc:__ZN11UnityEngine9Analytics18RenderingInfoEvent12ToJsonStringER9JSONWrite
rMe:_Enumerator_get_Current_m35296194_AdjustorThunk
icj:__ZN6il2cpp2gc19AppendOnlyGCHashMapIPK10Il2CppTypeP20Il2CppReflectionTypeNS_8metadata14Il2CppTypeHashENS7_26Il2CppTypeEqualityComparerEE3AddERKS4_S6_
sR:__ZN11UnityEngine15CloudWebService17CloudJobScheduler11ScheduleJobEPFvPvES2_
T5e:_SimpleCollator_IsSuffix_m1291687763
BS:__ZN11UnityEngine15CloudWebService17CloudServiceEvent12ToJsonStringER9JSONWrite
Pee:_TlsClientHello__ctor_m1986768336
Pca:__ZNK18VertexChannelsInfoltERKS_
WQg:__Z89RuntimeInvoker_Boolean_t97287965_Int32_t2950945753_Int32U26_t1369213839_Int32_t2950945753PFvvEPK10MethodInfoPvPS4_
Xbc:__Z18SetTargetFrameRatei
Lud:_Char_System_IConvertible_ToType_m4138905176_AdjustorThunk
lqc:__ZN9JSONWrite8TransferIfEEvRT_PKc17TransferMetaFlags
wBf:_DBNull_System_IConvertible_ToUInt16_m643477279
$Oa:__ZN10MemoryFileD0Ev
ddc:__ZN10MonoScript27InitializeAndRegisterScriptERKN4core12basic_stringIcNS0_20StringStorageDefaultIcEEEES6_S6_S6_b
dYi:_Analytics_GetUnityAnalyticsHandler_m2772482435
lwj:__ZN6il2cpp2os10ThreadImpl22SetNativeThreadCleanupEPFvPvE
GAf:_DateTimeOffset__cctor_m3610253033
bIf:_NumberFormatInfo_get_InvariantInfo_m349577018
qud:_Byte_CompareTo_m4285128861_AdjustorThunk
Kme:_ConfigHandler_ExtractAssembly_m2143791058
ysj:__ZN6il2cpp8metadataL24RecursiveGenericDepthForEPK17Il2CppGenericInst
JBg:_Transform_GetChild_m1092972975
Wpb:__ZN13GUIStyleState8TransferI14SafeBinaryReadEEvRT_
Pd:_glDrawArrays
xNi:_AudioSource_get_clip_m1234340632
P6d:_ResourceCacheItem_t51292791_marshal_pinvoke_back
XD:__ZN23AnimatedPropertyBuilder5BuildEP13AnimationClip18ScriptingObjectPtr
Fab:__ZN14BlendShapeData8TransferI18StreamedBinaryReadILb0EEEEvRT_
aHc:_Round_To_Grid
TFc:_UNITY_FT_Stream_Close
I2c:_EventTrigger_OnPointerClick_m1385968891
s4f:_UInt32_ToString_m4293943134_AdjustorThunk
Vyg:_Renderer_get_sortingLayerID_m3902855301
omf:_Interval_CompareTo_m3282557545_AdjustorThunk
yIe:_Comparer_1__cctor_m1018589532_gshared
lPg:__Z54RuntimeInvoker_TimeSpan_t881159249_TimeSpan_t881159249PFvvEPK10MethodInfoPvPS4_
vga:__ZL20FormatOrderedProcessPKcP17FormatOrderedDataPc
BTf:_Array_InternalArray__ICollection_CopyTo_TisResourceCacheItem_t51292791_m766230259_gshared
Ewf:_Decoder_set_Fallback_m3834517714
Wfc:__Z35DebugLogHandler_CUSTOM_Internal_Log7LogTypeP12Il2CppStringP12Il2CppObject
vca:__ZNSt3__26__treeINS_12__value_typeI18VertexChannelsInfoP16MeshVertexFormatEENS_19__map_value_compareIS2_S5_NS_4lessIS2_EELb1EEE13stl_allocatorIS5_L18MemLabelIdentifier17ELi16EEE7destroyEPNS_11__tree_nodeIS5_PvEE
Bki:__ZL76CanvasScaler_t2767979955_CustomAttributesCacheGenerator_m_MatchWidthOrHeightP21CustomAttributesCache
pTj:_emscripten_glShaderBinary__wrapper
aCa:__ZL17ProgramUniform3ivPK7ApiGLESjiihPKv
rwd:_ArrayList_Shift_m395607654
Jqa:__ZN9GfxDevice25GetBackBufferColorSurfaceEv
sPa:__ZN25SingleBlockMemoryFileData9SetLengthEy
E9b:__Z29AwakeAndActivateClonedObjectsPP6ObjectRK10vector_mapIiiNSt3__24lessIiEE13stl_allocatorINS3_4pairIiiEEL18MemLabelIdentifier1ELi16EEE
Zgj:__ZN15dense_hashtableINSt3__24pairIK10KeyWrapperINS1_IPK10MethodInfoP11Il2CppClassEEEjEES9_17ReflectionMapHashIS8_EN14dense_hash_mapIS9_jSD_NS9_14EqualsComparerINS0_8equal_toIS8_EEEENS0_9allocatorISB_EEE9SelectKeyESI_SK_E14squash_deletedEv
b9e:_KeyGeneratedEventHandler_Invoke_m4131555809
x1b:__Z13RegisterClassI6ShaderEvv
$vf:_String_CharCopyReverse_m1548661297
D0c:__ZN13RuntimeStaticI11WindManagerLb0EE13StaticDestroyEPv
Grc:__Z18Transfer_BlittableI9JSONWriteLb1EaEvRK29SerializationCommandArgumentsR31RuntimeSerializationCommandInfo
Ugj:__ZN13Il2CppHashMapINSt3__24pairIPK10MethodInfoP11Il2CppClassEEj17ReflectionMapHashIS7_ENS0_8equal_toIS7_EENS0_9allocatorINS1_IK10KeyWrapperIS7_EjEEEEEC2EjRKS9_RKSB_
$Pb:__ZN11HaloManager11HasAnyHalosEPK11CullResults
N8a:__ZN9Texture3D23VirtualRedirectTransferER19StreamedBinaryWriteILb0EE
Tpc:__ZN5Unity9rapidjson8internal8PrettifyEPcii
hP:__Z13RegisterClassI10SampleClipEvv
gPg:__Z81RuntimeInvoker_Void_t1185182177_Int32_t2950945753_Int32_t2950945753_RuntimeObjectPFvvEPK10MethodInfoPvPS4_
RSb:__ZNK23ForwardShaderRenderLoop18RenderObjectSorterILb1EEclERK21ForwardRenderPassDataS4_
Myd:_CaseInsensitiveComparer__ctor_m1508720200
v3i:__ZN15dense_hashtableI10KeyWrapperIPK19Il2CppGenericMethodES4_N6il2cpp8metadata23Il2CppGenericMethodHashEN14dense_hash_setIS4_S7_NS4_14EqualsComparerINS6_26Il2CppGenericMethodCompareEEENSt3__29allocatorIS4_EEE8IdentityESB_SE_E12maybe_shrinkEv
nHa:__ZN10BufferGLES10BeginWriteEjj
t3i:__ZNK15dense_hashtableI10KeyWrapperIPK19Il2CppGenericMethodES4_N6il2cpp8metadata23Il2CppGenericMethodHashEN14dense_hash_setIS4_S7_NS4_14EqualsComparerINS6_26Il2CppGenericMethodCompareEEENSt3__29allocatorIS4_EEE8IdentityESB_SE_E12test_deletedEj
kB:__ZN7mecanim12statemachine18StateMachineMemory8TransferI9BlobWriteEEvRT_
QPa:__ZN20ArchiveStorageReader10InitializeER15FileSystemEntryyb
Fjj:__GLOBAL__sub_I_ArrayMetadata_cpp
mHa:__ZN7ApiGLES11FlushBufferEjN2gl12BufferTargetEll
Sqb:__ZN14SafeBinaryRead21TransferSTLStyleArrayI13dynamic_arrayI8BitFieldLj4EEEEvRT_17TransferMetaFlags
ADa:__ZN12_GLOBAL__N_127PrepareReadback_ResolveMSAAER18GfxFramebufferGLESR7ApiGLESP17RenderSurfaceGLESS5_
h6b:__ZNK24RendererAnimationBinding9BindValueER6ObjectRKN11UnityEngine9Animation14GenericBindingERNS3_10BoundCurveE
G0d:_TypeBuilder_has_ctor_method_m2987175843
Pe:_glBindBuffer
dCb:__ZN8GUIStyle8TransferI18StreamedBinaryReadILb0EEEEvRT_
cAe:_InternalEnumerator_1_get_Current_m3500427238_gshared
yda:__ZNSt3__213__stable_sortIRN10vector_mapIijNS_4lessIiEENS_9allocatorINS_4pairIijEEEEE13value_compareENS_11__wrap_iterIPS6_EEEEvT0_SE_T_NS_15iterator_traitsISE_E15difference_typeEPNSH_10value_typeEi
ueb:__ZN10VRSettings8Daydream8TransferI18StreamedBinaryReadILb0EEEEvRT_
pXa:__ZNSt3__218__insertion_sort_3IRNS_6__lessIN4core12basic_stringIcNS2_20StringStorageDefaultIcEEEES6_EEPS6_EEvT0_SA_T_
iSe:_ValueCollection_System_Collections_Generic_ICollectionU3CTValueU3E_Remove_m1748672125_gshared
eJj:_isupper
$$a:__ZNSt3__26__treeINS_12__value_typeIN9ShaderLab16FastPropertyNameEN18UnityPropertySheet11UnityTexEnvEEENS_19__map_value_compareIS3_S6_NS_4lessIS3_EELb1EEENS_9allocatorIS6_EEE7destroyEPNS_11__tree_nodeIS6_PvEE
xdh:_ReadOnlyCollection_1_System_Collections_IList_Clear_m108858531_gshared
AKg:__Z102RuntimeInvoker_RuntimeObject_Int32_t2950945753_RuntimeObject_RuntimeObject_RuntimeObject_RuntimeObjectPFvvEPK10MethodInfoPvPS4_
RHi:_GUIUtility_set_guiIsExiting_m1558910088
Kee:_Context_Clear_m2678836033
xZd:_DerivedType_IsDefined_m3906894566
I4i:__ZN6il2cpp2vm13MetadataCache24GetExportedTypeFromIndexEi
y$g:__Z54RuntimeInvoker_Void_t1185182177_RaycastHit_t1056001966PFvvEPK10MethodInfoPvPS4_
Opc:__ZN5Unity9rapidjson6WriterI16TempBufferWriterNS0_4UTF8IcEES4_13JSONAllocatorE9WriteUintEj
JLj:_getuid
cE:__ZN7mecanim5human8BoneNameEj
d3b:__Z13RegisterClassI10MonoScriptEvv
dtg:_Matrix4x4_GetColumn_m461504848_AdjustorThunk
DGd:_Int16_System_IConvertible_ToUInt64_m134975563_AdjustorThunk
qKc:__ZN20TextRenderingPrivate8FontImpl8TransferI18StreamedBinaryReadILb0EEEEvRT_
j1e:_ScrollRect_UpdateScrollbarVisibility_m4226977273
MLj:_rmdir
p6i:__ZN6il2cpp6icalls8mscorlib6System8MonoType22get_IsGenericParameterEP20Il2CppReflectionType
Ju:__ZN7mecanim5human14HumanPoseClearERNS0_9HumanPoseE
hlh:_Nullable_1_get_Value_m1801617894_gshared
gbf:_SymmetricTransform_TransformFinalBlock_m4059448527
mFd:_Convert_ToUInt16_m3216249716
x0a:__ZN18StreamedBinaryReadILb0EE19TransferSTLStyleMapINSt3__23mapIN9ShaderLab16FastPropertyNameE10ColorRGBAfNS2_4lessIS5_EENS2_9allocatorINS2_4pairIKS5_S6_EEEEEEEEvRT_17TransferMetaFlags
Jta:__ZN13GfxDeviceGLES24DrawBufferRangesPlatformEP9GfxBufferiPK18VertexStreamSourceiPK16DrawBuffersRangeiP17VertexDeclaration17ShaderChannelMaskjb
nEh:_Enumerator_System_Collections_IEnumerator_Reset_m4269083576_gshared
Vre:_SoapServices_EncodeNs_m635167772
zZb:__ZN13RenderManager28AreCamerasUsingMotionVectorsEv
Aca:__Z25InitializeLODGroupManagerPv
dzi:_Mark_get_IsDefined_m2539660708
$sa:__ZN13GfxDeviceGLES12EndStereoEyeE15StereoscopicEye
Uhd:_SByte_System_IConvertible_ToUInt64_m4151910932_AdjustorThunk
_Mb:__ZNK12ImageFilters28ApplyAfterTransparentFiltersEv
Zqg:_GameObject__ctor_m3707688467
SRb:__Z20CalculateLightMatrixRK15SharedLightDataP10Matrix4x4f
cYc:__ZN11UnityEngine7Connect15AppRunningEvent12ToJsonStringER9JSONWrite
a1a:__ZN19ShaderPropertySheet5ClearEb
inf:_RSA_Create_m4065275734
w1d:_PropertyBuilder_GetValue_m3592513194
oJf:_CultureInfo_GetCultureInfo_m630276874
yNb:__ZNK6Camera11GetPositionEv
et:__ZN8Animator19CreatePlayableGraphEv
Z2c:_ExecuteEvents_Execute_m3952332304
VXj:_emscripten_glClearDepth__wrapper
Jmb:__ZNK16MemoryFileSystem8FilenameERK13FileEntryData
Tf:_glUniform1fv
Xf:_JS_FileSystem_Sync
CEa:__ZNSt3__26__treeINS_12__value_typeI21GLESRenderTargetSetupN2gl6HandleILNS3_10ObjectTypeE9EEEEENS_19__map_value_compareIS2_S7_NS_4lessIS2_EELb1EEENS_9allocatorIS7_EEE7destroyEPNS_11__tree_nodeIS7_PvEE
S9e:_KeyPairPersistence__IsUserProtected_m438961964
yxa:__ZN4crnd11crnd_deleteINS_13prefix_coding14decoder_tablesEEEvPT_
BKe:_Enumerator_System_Collections_IDictionaryEnumerator_get_Value_m512771145_AdjustorThunk
svf:_String_Replace_m1273907647
Fse:_RealProxy_InternalGetProxyType_m2154819545
EDa:__ZN4gles15BlitFramebufferERNS_23BlitFramebufferDrawQuadER9GfxDeviceii9TextureIDiiiiiiii
PUd:_NumberFormatter_NumberToString_m827252518
Vf:__emscripten_sample_gamepad_data
r1b:__Z22DelayedDestroyCallbackP6ObjectPv
iwi:_PKCS12_set_Password_m4088935795
CIg:__Z96RuntimeInvoker_Void_t1185182177_SByte_t1669577662_ByteU5BU5DU26_t4057885439_Int32U26_t1369213839PFvvEPK10MethodInfoPvPS4_
NDg:__Z78RuntimeInvoker_Boolean_t97287965_RuntimeObject_RuntimeObject_SByte_t1669577662PFvvEPK10MethodInfoPvPS4_
Gmg:_Camera_get_nearClipPlane_m837839537
a0:__Z34scripting_class_get_declaring_type17ScriptingClassPtr
wYc:__ZN11UnityEngine7Connect20BasePersistentValues13RestoreValuesER8JSONRead
Hcb:__ZN11TimeManagerD0Ev
WFi:_GUIUtility_Internal_GetGUIDepth_m1169824684
HL:__ZN12AudioManager33GetAudioEffectInternalDefinitionsEv
u3a:__ZN9Texture2D16DeleteGfxTextureEv
Dlb:__ZN20LocalFileSystemPosix4OpenER13FileEntryData14FilePermission16FileAutoBehavior
L0f:_TimeSpan_Subtract_m1264203589
XUe:_InputField_GetUnclampedCharacterLineFromPosition_m2611553547
Ofj:__ZN6il2cpp2gc19AppendOnlyGCHashMapIPK10Il2CppTypeP20Il2CppReflectionTypeNS_8metadata14Il2CppTypeHashENS7_26Il2CppTypeEqualityComparerEEC2Ev
uXd:_CustomAttributeData_GetCustomAttributes_m2141595938
PGd:_Int16_Parse_m3641256939
C2i:__ZN15dense_hashtableINSt3__24pairIK10KeyWrapperIN6il2cpp5utils13dynamic_arrayIPK10Il2CppTypeLj4EEEEPFvvEEESA_NS3_8metadata19Il2CppSignatureHashEN14dense_hash_mapISA_SD_SG_NSA_14EqualsComparerINSF_22Il2CppSignatureCompareEEENS0_9allocatorISE_EEE9SelectKeyESK_SM_ED2Ev
jOc:__ZN2UI6Canvas12AddToManagerEv
qEc:_UNITY_tt_face_load_sbit
V9c:_ColorTweenCallback__ctor_m2236520273
tTd:_MonoType_GetMethodsByName_m2005909471
DAc:_cf2_hint_isTop
AYb:__ZN23ManagedAttributeManager21GetRequiredComponentsE17ScriptingClassPtr
kui:_TlsCipherSuite_ComputeServerRecordMAC_m3941098609
W9c:_ColorTween_AddOnChangedCallback_m3959760640_AdjustorThunk
qse:_RemotingServices_Unmarshal_m3744595373
ych:_ReadOnlyCollection_1_System_Collections_IList_get_Item_m2174806213_gshared
u_b:__Z23InitializeStdConvertersv
URb:__ZN19ShaderPropertySheet17UpdateTextureInfoEiRK23FastTexturePropertyNamePK10TextureRef
Vqf:_SecurityElement_IsValidAttributeName_m713904709
GDc:_ps_unicodes_init
gYi:_Analytics_CustomEvent_m692224174
bQd:_StreamWriter_Write_m2487601391
j6b:__ZN13ProduceHelperI14PlayerSettingsLb0EE7ProduceE10MemLabelId18ObjectCreationMode
JKb:__ZZ23InitPlayerLoopCallbacksvEN38PreUpdateCheckTexFieldInputRegistrator7ForwardEv
Mxa:__ZN4crnd12crn_unpacker22decode_color_endpointsEv
Hqj:__ZNK10KeyWrapperINSt3__24pairIPKcS3_EEE14EqualsComparerI26NamespaceAndNamePairEqualsEclERKS5_SA_
s2d:_FieldInfo_get_IsLiteral_m534699794
_ca:__Z34CleanupIntermediateRendererManagerPv
Ryi:_X509Stores_Open_m1553467177
uDf:_Decimal_op_Multiply_m2389849621
n4c:_PointerEventData_get_eligibleForClick_m3788762543
vzi:_MatchCollection_get_Count_m1667454419
g_f:_Monitor_Pulse_m82725344
aJf:_CultureInfo_get_NumberFormat_m1244033732
ONd:_FileStream_Dispose_m2599766137
eod:_Array_Copy_m1988217701
Zmg:_Camera_FireOnPreCull_m2869588437
jh:_JS_WebRequest_GetResponseHeaders
EFb:__ZNSt3__26__treeINS_12__value_typeI26SerializedObjectIdentifieriEENS_19__map_value_compareIS2_S3_NS_4lessIS2_EELb1EEENS_9allocatorIS3_EEE7destroyEPNS_11__tree_nodeIS3_PvEE
oDc:_otv_Script_validate
M1b:__ZN9Scripting18RaiseNullExceptionEPKcz
qfa:__ZN13RuntimeStaticI13RendererSceneLb0EE16StaticInitializeEPv
uh:_glCreateProgram
zfj:__ZN6il2cpp2vm10Reflection7IsFieldEP12Il2CppObject
g$e:_Scrollbar_set_numberOfSteps_m3603299569
YRa:__ZN24GenerateTypeTreeTransfer32TransferSTLStyleArrayWithElementI17SortingLayerEntryEEvRT_17TransferMetaFlags
vSj:_glUniformMatrix3fv__wrapper
FUa:__ZN5Light9SetupHaloEv
ZSe:_Text_set_horizontalOverflow_m2473787109
Jyb:__Z18Transfer_BlittableI18StreamedBinaryReadILb1EELb1E12PropertyNameEvRK29SerializationCommandArgumentsR31RuntimeSerializationCommandInfo
ugj:__ZN15dense_hashtableINSt3__24pairIK10KeyWrapperIPK22Il2CppGenericParameterEPK24MonoGenericParameterInfoEES6_N6il2cpp5utils11PointerHashIS4_EEN14dense_hash_mapIS6_SA_SF_NS6_14EqualsComparerINS0_8equal_toIS5_EEEENS0_9allocatorISB_EEE9SelectKeyESK_SM_EC2ERKSP_j
SDj:_GC_general_register_disappearing_link
Q9:__ZN23TransformChangeDispatch12CleanupClassEPv
pcc:__ZN8UserList11SendMessageERK17MessageIdentifier
XSc:__Z33Canvas_Get_Custom_PropScaleFactorP12Il2CppObject
HC:__ZNK26AnimatorControllerPlayable21GetStateMachineMemoryEi
VWa:__ZN17CollisionMeshData20VertexDataHasChangedEv
Pzi:_PatternCompiler_Emit_m604664654
QMf:_Array_InternalArray__ICollection_Remove_TisKeyValuePair_2_t3842366416_m278128148_gshared
ESa:__ZNK6Camera16GetTargetTextureEv
Eri:_Component_GetComponentsInChildren_TisRuntimeObject_m35549932_gshared
O$c:__ZNK20UnityWebRequestProtoI24UnityWebRequestTransport16AtomicRefCounter14RedirectHelper14ResponseHelper15DownloadHandler13UploadHandler12HeaderHelper14AsyncOperationE17GetUploadProgressEv
Ouf:_String_CompareTo_m3030934538
jqb:__Z35Transfer_Blittable_SingleValueFieldI14SafeBinaryReadyEvRT_R17GeneralMonoObjectRK23StaticTransferFieldInfo
XYa:__ZN8Playable20ClearInputConnectionEi
AOb:__ZN13BatchRenderer12EndLoopFlushEv
nnd:_X509CertificateEnumerator_System_Collections_IEnumerator_Reset_m2928805663
xac:__ZNK6Sprite11GetInnerUVsE20SpriteRenderDataMode
nD:__ZN11UnityEngine9Animation28DestroyAvatarBindingConstantEPNS0_21AvatarBindingConstantERN7mecanim6memory9AllocatorE
Djf:_X509ChainElementEnumerator_System_Collections_IEnumerator_get_Current_m1913555061
ctf:_Single_System_IConvertible_ToDouble_m1584722292_AdjustorThunk
cAg:_DataUtility_INTERNAL_CALL_GetPadding_m650254139
pvb:__Z29Transfer_Blittable_ArrayFieldI24GenerateTypeTreeTransfer11ColorRGBA32EvRT_R9ArrayInfoRK23StaticTransferFieldInfo
u4b:__ZN16MessageForwarder23RegisterMessageCallbackEiPFvPviR11MessageDataEPKN5Unity4TypeE
nbe:_MD2Managed_HashFinal_m808964912
yAf:_DateTime_op_Equality_m1022058599
zWa:__ZN4Mesh30AcquireSharedMeshRenderingDataEv
ei:_gmtime
li:_emscripten_glUniform3i
vua:__ZNK7ApiGLES10GetContextEv
Gob:__Z18Transfer_BlittableI14SafeBinaryReadLb1E5RectTIfEEvRK29SerializationCommandArgumentsR31RuntimeSerializationCommandInfo
X5a:__ZN15TextureSettings14SetAnisoLimitsEii
Eg:_glGetFramebufferAttachmentParameteriv
ivb:__Z19TransferField_ArrayI24GenerateTypeTreeTransfer27Converter_SimpleNativeClassI10RectOffsetEEvRK23StaticTransferFieldInfoR31RuntimeSerializationCommandInfoRT0_
Y4f:_UInt64_System_IConvertible_ToUInt32_m2784653358_AdjustorThunk
QUa:__Z40ConfigureBlockRangesWithMinIndicesPerJobP10BlockRangeii
FAa:__ZN6prcoreL17RemapGenericFloatI18TexFormatARGBFloat15TexFormatRGHalfEEvPKNS_9InnerInfoE
$Fi:_GUILayout_Height_m3349769634
Bnb:__ZNSt3__26vectorI4PPtrI10MonoScriptE13stl_allocatorIS3_L18MemLabelIdentifier78ELi16EEE8__appendEj
nXe:_LayoutGroup_get_flexibleWidth_m2787597997
Vrg:_LayerMask_op_Implicit_m3296792737
w6b:__ZL22PrepareMeshRenderNodesILb1EEvR35RenderNodeQueuePrepareThreadContext
emb:__ZN20LocalFileSystemPosix5TouchER13FileEntryData
Ssc:__ZN9JSONWrite8TransferI13dynamic_arrayItLj2EEEEvRT_PKc17TransferMetaFlags
Ci:_emscripten_glDrawElements
FHd:_NumberFormatter_AppendDecimalString_m10636623
rmg:_Bounds_get_max_m3756577669
Bzc:_cf2_blues_init
HOh:__ZL59ParameterBuilder_t1137139675_CustomAttributesCacheGeneratorP21CustomAttributesCache
QTj:_glVertexAttrib4fv__wrapper
ST:__ZN11UnityEngine15CloudWebService23WebRequestUploadHandlerD2Ev
IA:__ZN9BlobWriteD2Ev
Tob:__ZL26Transfer_SimpleNativeClassI14SafeBinaryRead8GradientLb0EEvRK29SerializationCommandArgumentsR31RuntimeSerializationCommandInfo
YHg:__Z68RuntimeInvoker_Boolean_t97287965_Int32_t2950945753_SByte_t1669577662PFvvEPK10MethodInfoPvPS4_
TTf:_Array_InternalArray__ICollection_CopyTo_TisRaycastHit2D_t2279581989_m3542049333_gshared
oWd:_Assembly_GetExecutingAssembly_m4021024968
qUe:_InputField_ClampPos_m2625258136
t0i:__ZNK15dense_hashtableINSt3__24pairIK10KeyWrapperIPKcEP11Il2CppClassEES5_N6il2cpp5utils11StringUtils12StringHasherIS4_EEN14dense_hash_mapIS5_S8_SE_NS5_14EqualsComparerINSB_13VmStringUtils21CaseSensitiveComparerEEENS0_9allocatorIS9_EEE9SelectKeyESJ_SL_E10test_emptyEj
Tte:_MessageFormatter_ReadMethodResponse_m1946725361
hwi:_PKCS12__ctor_m1587304645
BZa:__ZN13RenderTexture23VirtualRedirectTransferER18StreamedBinaryReadILb0EE
JEc:_UNITY_tt_face_lookup_table
S1c:_BaseRaycaster_ToString_m2535186737
xpc:__ZN5Unity9rapidjson13GenericReaderINS0_4UTF8IcEES3_13JSONAllocatorE9ParseHex4INS0_25GenericInsituStringStreamIS3_EEEEjRT_
xFa:__Z17ComputeMipmapSizeiii14GraphicsFormat
hAc:_cf2_stack_pushFixed
Ibd:_Dropdown_OnCancel_m1495594239
Xjj:__ZNK15dense_hashtableINSt3__24pairIK10KeyWrapperINS1_IP11Il2CppClassjEEES4_EES6_N6il2cpp8metadata14ArrayClassHashEN14dense_hash_mapIS6_S4_SB_NS6_14EqualsComparerINSA_17ArrayClassCompareEEENS0_9allocatorIS8_EEE9SelectKeyESF_SH_E3endEv
yzd:_CollectionBase_OnValidate_m1606907366
aug:_MonoBehaviour_StopCoroutineViaEnumerator_Auto_m3883784228
uIc:_TT_Get_MM_Blend
vZ:__Z16realloc_internalPvjj10MemLabelId15AllocateOptionsPKci
mYg:__Z78RuntimeInvoker_Void_t1185182177_RuntimeObject_RuntimeObject_Single_t1397266774PFvvEPK10MethodInfoPvPS4_
oSc:__Z50CanvasRenderer_CUSTOM_CreateUIVertexStreamInternalP12Il2CppObjectS0_S0_S0_S0_S0_S0_S0_S0_S0_
Eea:__ZN14PlayableOutput15PrepareTraverseERK9FrameData
lDb:__ZL19RequireCorLibMethodPKcS0_S0_
z2:__ZNK5Unity9Component22GetTypeVirtualInternalEv
Hyc:_UNITY_FT_Outline_Get_CBox
cm:_emscripten_get_fullscreen_status
sBa:__ZN6prcoreL26RemapGenericIntegerToFloatI17TexFormatARGB888817TexFormatRGBFloatEEvPKNS_9InnerInfoE
Npe:_MethodDictionary_SetMethodProperty_m3032369066
C9i:__ZN6il2cpp2vm14TypeNameParser26ParseTypeArgumentsOptionalERi
nWb:__ZN15LODGroupManager27GarbageCollectCameraLODDataEv
HXg:__Z139RuntimeInvoker_Void_t1185182177_RuntimeObject_Color32_t2600501292_Int32_t2950945753_Int32_t2950945753_Single_t1397266774_Single_t1397266774PFvvEPK10MethodInfoPvPS4_
DZb:__ZN13ScreenManagerC2Ev
dhg:_Enumerator_System_Collections_IEnumerator_Reset_m3289381690_gshared
Pw:__ZN7mecanim20ValueArrayBlendBeginILb1EEEvRNS_14ValueArrayMaskE
lmc:__ZN12GUIClipState20CalculateMouseValuesER10InputEvent
vub:__Z18Transfer_BlittableI24GenerateTypeTreeTransferLb0E12PropertyNameEvRK29SerializationCommandArgumentsR31RuntimeSerializationCommandInfo
rua:__ZN7ApiGLES4InitERK14GfxContextGLESR16GfxDeviceLevelGL
Nke:_RemotingServices_CreateClientProxy_m809906894
ZUc:__Z31CustomEventData_CUSTOM_AddSByteP12Il2CppObjectP12Il2CppStringa
F5:__ZNK11LightProbes14LightProbeData33GetLightProbeInterpolationWeightsERK8Vector3fRiR8Vector4fRf
fPd:_Stream_Dispose_m2589290611
vre:_ReturnMessage_get_LogicalCallContext_m2352570297
Zfa:__ZN11TypeManager36FatalErrorOnPersistentTypeIDConflictEiPKc
UV:__ZN21UnityDefaultAllocatorI17LowLevelAllocatorED0Ev
HX:__ZN8Renderer15SetIsRenderableEb
bIh:__ZL54IEnumerator_t1853284238_CustomAttributesCacheGeneratorP21CustomAttributesCache
GBa:__Z14DecodeBC7BlockP9HDRColorAPKh
N7e:_BigInteger_op_RightShift_m2934036419
f6b:__ZNK24RendererAnimationBinding12GetPPtrValueERKN11UnityEngine9Animation10BoundCurveE
uUg:__Z95RuntimeInvoker_Boolean_t97287965_RuntimeObject_TextGenerationSettings_t1351628751_RuntimeObjectPFvvEPK10MethodInfoPvPS4_
Zsd:_Boolean_System_IConvertible_ToSByte_m806999
itd:_Boolean_System_IConvertible_ToUInt32_m2723177447_AdjustorThunk
W2g:__Z84RuntimeInvoker_Boolean_t97287965_RaycastResult_t3360306849_RaycastResult_t3360306849PFvvEPK10MethodInfoPvPS4_
_Dj:_GC_new_proc_inner
lc:invoke_fiiffi
L4e:_MSCompatUnicodeTable_BuildTailoringTables_m1316979344
Wnb:__Z35Transfer_Blittable_FixedBufferFieldI14SafeBinaryReadiEvRK29SerializationCommandArgumentsR31RuntimeSerializationCommandInfo
dNb:__ZNK25CameraStackRenderingState21IsRenderingLastCameraEv
Vcg:_EqualityComparer_1_System_Collections_IEqualityComparer_Equals_m1538289377_gshared
Sya:__ZL24stbir__filter_catmullromff
Erf:_SecurityElement_AddChild_m1606852781
z7i:__ZN6il2cpp6icalls8mscorlib6SystemL16CheckMemberMatchI9EventInfoNS_5utils10functional6FilterINSt3__212basic_stringIcNS8_11char_traitsIcEENS8_9allocatorIcEEEENS5_13VmStringUtils21CaseSensitiveComparerEEEEEbPKT_PK11Il2CppClassSN_iRKT0_
TYg:__Z83RuntimeInvoker_Boolean_t97287965_SpriteStateU26_t2382775785_SpriteState_t1362986479PFvvEPK10MethodInfoPvPS4_
IRf:_Array_LastIndexOf_TisRuntimeObject_m1677937501_gshared
wYb:__Z23ValidateScriptComponentP10MonoScriptPN4core12basic_stringIcNS1_20StringStorageDefaultIcEEEE
Cji:__ZL68Selectable_t3250028441_CustomAttributesCacheGenerator_m_InteractableP21CustomAttributesCache
Eu:__ZN7mecanim9animation12GetHumanPoseIfEEvRKNS0_18ClipMuscleConstantEPKT_RNS_5human9HumanPoseE
$7a:__ZNSt3__215__inplace_mergeIRNS_4lessI4PPtrI11SpriteAtlasEEENS_11__wrap_iterIPS4_EEEEvT0_SA_SA_T_NS_15iterator_traitsISA_E15difference_typeESE_PNSD_10value_typeEi
bD:__ZN11UnityEngine9Animation30CreateAvatarBindingConstantOptER9TransformPKN7mecanim9animation14AvatarConstantERNS3_6memory9AllocatorE
xua:__ZN26SinglePassStereoSupportExt27InitSinglePassStereoSupportEP21ISinglePassStereoImplP9GfxDevice
c4c:_PointerEventData_set_button_m2912797404
LV:__ZNSt3__23mapIN19CloudServiceHandler11ServiceTypeEPS1_NS_4lessIS2_EE13stl_allocatorINS_4pairIKS2_S3_EEL18MemLabelIdentifier88ELi16EEEixERS8_
MDc:_ft_get_adobe_glyph_index
gqe:_MethodCall_get_GenericArguments_m1010093584
lGj:__ZNSt3__26__treeINS_12__value_typeINS_12basic_stringIcNS_11char_traitsIcEENS_9allocatorIcEEEEPFvvEEENS_19__map_value_compareIS7_SA_NS_4lessIS7_EELb1EEENS5_ISA_EEE25__emplace_unique_key_argsIS7_JRKNS_21piecewise_construct_tENS_5tupleIJOS7_EEENSL_IJEEEEEENS_4pairINS_15__tree_iteratorISA_PNS_11__tree_nodeISA_PvEEiEEbEERKT_DpOT0_
Ajc:__Z47Register_UnityEngine_Texture_Internal_GetHeightv
Ltf:_Single_ToString_m3947131094_AdjustorThunk
PEb:__Z25scripting_field_get_flags17ScriptingFieldPtr
Q4e:_MSCompatUnicodeTable_Level3_m1870873670
kkb:__ZNSt3__218__insertion_sort_3IRPFbRK23TransformAccessReadOnlyS3_EPS1_EEvT0_S8_T_
Ohf:_X509ChainStatus_GetInformation_m245493206
BCg:_Vector3_Lerp_m407887542
l9g:_Collection_1__ctor_m2277581063_gshared
uzi:_MatchCollection__ctor_m4138850022
D0e:_ScrollRect_set_verticalScrollbarSpacing_m1091218920
cvc:__ZN8JSONRead8TransferIyEEvRT_PKc17TransferMetaFlagsb
Aob:__Z18Transfer_BlittableI14SafeBinaryReadLb0EtEvRK29SerializationCommandArgumentsR31RuntimeSerializationCommandInfo
g5i:__ZN6il2cpp2vm13MetadataCache24InitializeMethodMetadataEj
LW:__ZNK20DynamicHeapAllocatorI17LowLevelAllocatorE8ContainsEPKv
Akd:_HMAC_HashFinal_m1921180827
Qzf:_DateTime__ParseString_m2913931606
Poj:__ZN6il2cpp2vm14PlatformInvoke36MarshalCppStringToCSharpStringResultEPKc
WTb:__ZN8Material23GetStencilWriteMaterialEv
aEa:__Z12GetBlockSize14GraphicsFormat
XLf:_Array_InternalArray__ICollection_Contains_TisIntPtr_t_m272531112_gshared
Lse:_RemotingProxy_get_TypeName_m4085898624
T_d:_GenericTypeParameterBuilder_not_supported_m3358960901
XRa:__ZN10TagManager8TransferI24GenerateTypeTreeTransferEEvRT_
O4g:_Collection_1_ConvertItem_m169929357_gshared
cMd:_MonoIO_GetCurrentDirectory_m762333289
$ac:__Z35AllocExtractMeshComponentFromScriptRK4Mesh30InternalScriptingShaderChannel34InternalScriptingVertexChannelTypei
Qw:__ZN7mecanim12SetValueMaskILb1EEEvPNS_14ValueArrayMaskEb
V7f:_Dictionary_2_ContainsKey_m415531417_gshared
KRa:__ZN10TagManager23VirtualRedirectTransferER24GenerateTypeTreeTransfer
yUf:_Array_InternalArray__Insert_TisCustomAttributeNamedArgument_t287865710_m3526512389_gshared
Qeg:_EqualityComparer_1__cctor_m818408565_gshared
Mya:__ZL23stbir__filter_trapezoidff
rQ:__Z44Register_UnityEngine_AudioClip_get_ambisonicv
E3f:_UInt32_System_IConvertible_ToBoolean_m1763673183
kXb:__ZN23ScriptableRenderContextD2Ev
kMh:__ZL52ArrayList_t2718874744_CustomAttributesCacheGeneratorP21CustomAttributesCache
Rhd:_SByte_System_IConvertible_ToUInt32_m4275534457
cug:_MonoBehaviour_StopCoroutine_Auto_m820288890
Wcj:__ZN15dense_hashtableINSt3__24pairIK10KeyWrapperINS1_IPK10MethodInfoP11Il2CppClassEEEjEES9_17ReflectionMapHashIS8_EN14dense_hash_mapIS9_jSD_NS9_14EqualsComparerINS0_8equal_toIS8_EEEENS0_9allocatorISB_EEE9SelectKeyESI_SK_E15insert_noresizeERKSB_
CNc:__Z32TextGenerator_CUSTOM_Dispose_cppP12Il2CppObject
mmj:__ZN6il2cpp6icalls8mscorlib6System19ExtractWidenedValueE14Il2CppTypeEnumPv
wof:_SHA256Managed_HashFinal_m2914312286
oJb:__ZN12GPUFencePoolC2Ev
GDj:_GC_invoke_finalizers
Bvf:_String_Format_m2556382932
TXi:__ZL14adjustScale128PyS_i
Fbi:__ZL59EventType_t3528516131_CustomAttributesCacheGenerator_ignoreP21CustomAttributesCache
Nob:__Z18Transfer_BlittableI14SafeBinaryReadLb0E8BitFieldEvRK29SerializationCommandArgumentsR31RuntimeSerializationCommandInfo
Usi:_Array_InternalArray__get_Item_TisTimeSpan_t881159249_m1885583191_gshared
GKf:_Guid__ctor_m3421080095
J5:__ZNK10GameObject25QueryComponentByExactTypeEPKN5Unity4TypeE
tve:_U3CGetEnumeratorU3Ec__Iterator0_System_Collections_Generic_IEnumeratorU3CTU3E_get_Current_m52354244_gshared
e4:__ZNK9ShaderLab22ShaderStencilStateDesc17ToGfxStencilStateEPK19ShaderPropertySheetS3_RK14GfxRasterStateR15GfxStencilState
$8g:_Collection_1_Remove_m2372638279_gshared
S$e:_U3CClickRepeatU3Ec__Iterator0_MoveNext_m2800364313
MFc:_tt_cmap0_char_next
HBa:__Z15DecodeBC6HBlockP9HDRColorAPKh
Hmg:_Camera_get_farClipPlane_m538536689
z2b:__Z13RegisterClassI10GUIElementEvv
xjd:_DSA_Create_m1220983153
NDj:_GC_malloc_uncollectable
lmd:_Array_Clone_m2672907798
Imb:__ZNK16MemoryFileSystem6ParentERK13FileEntryDataRN4core12basic_stringIcNS3_20StringStorageDefaultIcEEEE
xQd:_SynchronizedWriter_Write_m1297715977
_cd:_Graphic_get_rectTransform_m1167152468
Cca:__ZN15LODGroupManagerD2Ev
due:_ObjectReader_ReadRefTypeObjectInstance_m3311150386
gwc:__ZN8JSONRead21TransferSTLStyleArrayI13dynamic_arrayIN4math12int2_storageELj4EEEEvRT_17TransferMetaFlags
hWg:__Z115RuntimeInvoker_Boolean_t97287965_RuntimeObject_RuntimeObject_Single_t1397266774_SByte_t1669577662_Int32_t2950945753PFvvEPK10MethodInfoPvPS4_
d7e:_BigInteger_op_Multiply_m3801644593
Srg:_DefaultValueAttribute_Equals_m443523471
XOa:__ZN12IFileAdapter9SetLengthER13FileEntryDatay
Uic:__Z39SortingLayer_CUSTOM_GetLayerValueFromIDi
Nc:_Mix_PlayMusic
hyf:_DateTime_System_IConvertible_ToSByte_m4130251280
pog:_CullingGroup_SendEvents_m2491312335
HBc:_cff_cmap_encoding_init
e$c:__Z34GetUnityWebRequestScriptingClassesv
MRj:___cxa_pure_virtual__wrapper
GId:_Int32_System_IConvertible_ToSByte_m3133688512_AdjustorThunk
Um:FUNCTION_TABLE_fii
Bic:__Z57Register_UnityEngine_RectTransform_INTERNAL_set_sizeDeltav
xVg:__Z57RuntimeInvoker_Void_t1185182177_RaycastResult_t3360306849PFvvEPK10MethodInfoPvPS4_
umg:_Bounds_op_Equality_m3322991400
V5c:_StandaloneInputModule_Process_m309156323
qcj:__ZNK15dense_hashtableINSt3__24pairIK10KeyWrapperIPK10Il2CppTypeEjEES6_N6il2cpp8metadata14Il2CppTypeHashEN14dense_hash_mapIS6_jSB_NS6_14EqualsComparerINSA_26Il2CppTypeEqualityComparerEEENS0_9allocatorIS8_EEE9SelectKeyESF_SH_E12test_deletedEj
pKa:__ZN10SpookyHash7Hash128EPKvjPyS2_
GVb:__ZL60CombineDirectionalShadowCasterCullingIndexListsAndDestroyJobP20ShadowCullingJobData
Rzd:_Hashtable__ctor_m3890751112
hCg:_Vector2_ToString_m1205609053_AdjustorThunk
RCc:_otv_MarkBasePos_validate
yka:__ZN9ShaderLab18SerializedPropertyC2ERKS0_
Myc:_cff_driver_init
c$f:_ThreadPool_QueueUserWorkItem_m1526970260
mt:__ZN17AnimationPlayable23ConnectNoTopologyChangeEPS_S0_ii
R4b:__ZN16ReflectionProbes20DidChangeActiveSceneEP10UnitySceneS1_
yvf:_String_ToUpperInvariant_m2531236323
R6a:__ZN16SpriteRenderData8TransferI14SafeBinaryReadEEvRT_
ARj:_emscripten_glVertexAttrib3f__wrapper
ljd:_DESTransform_GetStrongKey_m1464830895
bmd:_RijndaelTransform_Encrypt192_m3191066202
SJe:_Enumerator_Reset_m1314900927_gshared
bmb:__ZN20LocalFileSystemPosix4CopyER13FileEntryDataS1_
H1i:__ZNK15dense_hashtableI10KeyWrapperIPK19Il2CppGenericMethodES4_N6il2cpp8metadata23Il2CppGenericMethodHashEN14dense_hash_setIS4_S7_NS4_14EqualsComparerINS6_26Il2CppGenericMethodCompareEEENSt3__29allocatorIS4_EEE8IdentityESB_SE_E3endEv
QTb:__ZL31SetRenderStateForStencilMarkingR9GfxDeviceR17ShaderPassContextjj
APa:__ZN20ArchiveStorageReader20FillChunkCachedBlockEPNS_11CachedBlockE
T7f:_Dictionary_2_Add_m653869716_gshared
kPd:_StreamAsyncResult__ctor_m3118856368
zzf:_DateTime_Equals_m611432332_AdjustorThunk
QM:__ZN10AudioMixer16ResumeProcessingEv
cdd:_Graphic_OnBeforeTransformParentChanged_m4229077069
Iqb:__ZNSt3__26vectorI17AnimationCurveTplIfE13stl_allocatorIS2_L18MemLabelIdentifier1ELi16EEE7reserveEj
apg:_Display_GetRenderingExtImpl_m2069813991
WQc:__ZN2UI13CanvasManager21EmitGeometryForCameraEP6Camera
Y$:__Z31AudioFilterReadValidateCallback18ScriptingMethodPtr17ScriptingClassPtrP6Object
nTe:_InputField_SetDrawRangeToContainCaretPosition_m1009661083
Kla:__ZN9ShaderLab16SerializedTagMap8TransferI19StreamedBinaryWriteILb0EEEEvRT_
IOd:_MonoIO_get_PathSeparator_m4045322458
QB:__ZN7mecanim5human30HumanPoseAdjustForMissingBonesEPKNS0_5HumanEPNS0_9HumanPoseE
ckf:_X509SubjectKeyIdentifierExtension_FromHex_m1011249985
cnj:__ZN6il2cpp6icalls8mscorlib6System9Threading6Thread25SetCachedCurrentUICultureEP12Il2CppThreadP12Il2CppObject
Jpd:_ArithmeticException__ctor_m479063094
eue:_ObjectReader_ReadObjectInstance_m3952621118
CEc:_UNITY_FT_Bitmap_Convert
HVb:__Z22CullDirectionalShadowsR9IndexListPK9SceneNodePK4AABBR22DirectionalCullContext
YWd:_Default_BindToMethod_m490530316
jJd:_Int32_ToString_m2507389746
pgf:_X509KeyUsageExtension_ToString_m3542316380
Mld:_RijndaelManaged__ctor_m1562735454
yee:_SslCipherSuite__ctor_m1470082018
g4i:__ZN15dense_hashtableINSt3__24pairIK10KeyWrapperIPK11Il2CppClassEPKcEES6_N6il2cpp5utils11PointerHashIS3_EEN14dense_hash_mapIS6_S9_SE_NS6_14EqualsComparerINS0_8equal_toIS5_EEEENS0_9allocatorISA_EEE9SelectKeyESJ_SL_E4findERS7_
xYe:_LayoutUtility_U3CGetMinHeightU3Em__4_m2382889764
q4f:_UInt32_ToString_m2574561716_AdjustorThunk
HU:__ZN11UnityEngine15CloudWebService14RestDownloader7OnAbortEv
rCj:_alloc_mark_stack
Q8i:_AnalyticsSessionInfo_CallSessionStateChanged_m2615824008
VL:__ZNK11AudioSource22GetTypeVirtualInternalEv
psa:__ZNK13GfxDeviceGLES18GetDefaultRTFormatEv
WHc:_UNITY_FT_Get_Glyph_Name
y5:__Z13VFormatBufferPciPKcPi
jvb:__Z19TransferField_ArrayI24GenerateTypeTreeTransfer27Converter_SimpleNativeClassI8GradientEEvRK23StaticTransferFieldInfoR31RuntimeSerializationCommandInfoRT0_
jui:_TlsCipherSuite__ctor_m3580955828
Mkg:_Enumerator_System_Collections_IEnumerator_Reset_m2355925297_AdjustorThunk
drg:_GameObject_get_layer_m4158800245
bS:__ZN11UnityEngine15CloudWebService16SessionContainer16MarkAsDispatchedERKN4core12basic_stringIcNS2_20StringStorageDefaultIcEEEE
$xe:_InternalEnumerator_1_System_Collections_IEnumerator_get_Current_m2667908392_gshared
TOb:__Z16CopyActiveLightsRK12ActiveLightsRS_
Klc:__ZN16memory_pool_implILi28EE15AutoPoolWrapper10InitializeEPv
ovh:_List_1_System_Collections_IList_IndexOf_m3921550135_gshared
uNf:_Array_InternalArray__ICollection_Remove_TisUInt64_t4134040092_m2664745791_gshared
fkc:__Z26Transform_CUSTOM_IsChildOfP12Il2CppObjectS0_
mr:__ZN4core8hash_mapIN11UnityEngine9Animation14GenericBindingENS2_10BoundIndexENS2_25GenericBindingHashFunctorENS2_30GenericBindingValueArrayUniqueEE4findERKS3_
DAi:_PatternLinkStack_SetCurrent_m366511098
zHj:__ZNSt3__26vectorINS_12basic_stringIDsNS_11char_traitsIDsEENS_9allocatorIDsEEEENS4_IS6_EEE18__construct_at_endEj
Gng:_Color32__ctor_m4150508762_AdjustorThunk
XYf:_UTF7Decoder__ctor_m546843796
oFf:_Double_System_IConvertible_ToUInt32_m271206838_AdjustorThunk
Bpa:__ZNK13GfxDeviceGLES11GetViewportEv
Mbc:__ZN14AsyncOperation26ClearCachedScriptingObjectEv
THc:_UNITY_tt_face_load_cvt
Wif:_X509CertificateCollection_get_Item_m1464788693
aeh:_ReadOnlyCollection_1_System_Collections_IList_Add_m1881324749_gshared
b5i:__ZL32InitializeCustomAttributesCachesPv
dQa:__ZN20ArchiveStorageReaderD0Ev
jha:__ZN6Shader23VirtualRedirectTransferER19StreamedBinaryWriteILb0EE
M_c:__ZN19TransportJavaScript7PrepareEv
SAh:_List_1_System_Collections_IList_IndexOf_m1088859899_gshared
zEi:_Uri__ctor_m3848281005
ruc:__Z35Transfer_Blittable_FixedBufferFieldI8JSONReadaEvRK29SerializationCommandArgumentsR31RuntimeSerializationCommandInfo
hmb:__ZNK20LocalFileSystemPosix20GetApplicationFolderEv
Ugd:_StreamingContext_Equals_m2722903674_AdjustorThunk
dS:__ZN11UnityEngine15CloudWebService14DataDispatcher31SetupSessionContainerToDispatchEv
TCb:__Z29Transfer_Blittable_ArrayFieldI18StreamedBinaryReadILb0EE8Vector3fEvRT_R9ArrayInfoRK23StaticTransferFieldInfo
Wid:_CspParameters__ctor_m1928090281
p$a:__ZN9ShaderLab11shaderprops9GetVectorEPK19ShaderPropertySheetS3_NS_16FastPropertyNameE
tI:__ZN4FMOD12ChannelGroup10getDSPHeadEPPNS_3DSPE
GGc:_UNITY_tt_size_run_prep
PH:__ZN12AudioManager17MainThreadCleanupEv
rrf:_Evidence_CopyTo_m872435527
pod:_SecurityParser_OnEndElement_m2088612360
Y1:__ZNK6Camera18ScreenToWorldPointERK8Vector3f
Rmj:__ZN6il2cpp6icalls8mscorlib6System9Threading6Thread11GetDomainIDEv
yva:__ZNK13TranslateGLES13GetFormatDescE14GraphicsFormat
zx:__ZN7mecanim9animation22MotionAddOverrideLayerEPNS0_12MotionOutputEPKS1_fbbRKNS_6bitsetILj83EEE
fNa:__ZN17ArchiveFileSystemD0Ev
bBi:_BackslashNumber_ResolveReference_m4176908213
Vze:_InternalEnumerator_1_System_Collections_IEnumerator_get_Current_m888718134_AdjustorThunk
cyd:_SynchronizedArrayListWrapper_IndexOf_m1028529531
edd:_GraphicRegistry_UnregisterGraphicForCanvas_m2540204166
FSb:__ZN14qsort_internal5QSortIP20ShadowCasterSortDatai26ShadowCasterSortDataSorterEEvT_S4_T0_T1_
SU:__ZN11UnityEngine15CloudWebService19SessionEventManager5StartERKN4core12basic_stringIcNS2_20StringStorageDefaultIcEEEEii
Imc:__ZN16GUIKeyboardState16SaveFromGUIStateER8GUIState
Dqb:__Z22TransferField_NonArrayI14SafeBinaryRead27Converter_SimpleNativeClassI8GradientEEvRK23StaticTransferFieldInfoR31RuntimeSerializationCommandInfoRT0_
Cf:_emscripten_glBufferData
XPb:__Z25DoForwardShaderRenderLoopRK17RenderLoopContextR13dynamic_arrayI16RenderObjectDataLj4EERK11CullResultsbbbN6Camera10RenderFlagE
OQc:__ZZN2UI23InitializeCanvasManagerEvEN53UIEventsCanvasManagerEmitOffScreenGeometryRegistrator7ForwardEv
Gf:_glUniform3iv
Xtg:_Mesh_RecalculateBounds_m39931642
Qug:_Plane__ctor_m2890438515
XFi:_GUI_get_skin_m1874615010
Zyh:_List_1_System_Collections_IList_Contains_m453976393_gshared
arc:__Z18Transfer_BlittableI9JSONWriteLb0E9BoundsIntEvRK29SerializationCommandArgumentsR31RuntimeSerializationCommandInfo
W1f:_Type_GetMethod_m1197120913
wLj:_fwrite
M7d:_COMException__ctor_m3707984232
Abg:_DefaultComparer_Equals_m962817516_gshared
vSg:__Z107RuntimeInvoker_Void_t1185182177_Single_t1397266774_Single_t1397266774_Single_t1397266774_Single_t1397266774PFvvEPK10MethodInfoPvPS4_
EDb:__ZN13MonoBehaviourD0Ev
iQc:__ZN2UI6Canvas18UpdateEventIndexesEv
sIi:_SymmetricTransform_CTS_m764800021
$Kj:_pipe
ewi:_SubjectAltNameExtension_ToString_m3628154311
Nqg:_RenderPipelineManager_get_currentPipeline_m1638613344
hWi:_CanvasRenderer_SetPopMaterial_m2720611463
oic:__Z50RectTransform_CUSTOM_INTERNAL_set_anchoredPositionP12Il2CppObjectRK13Vector2fIcall
nka:__ZNSt3__26vectorIN9ShaderLab19SerializedSubShaderENS_9allocatorIS2_EEE6resizeEj
esi:_LayoutGroup_SetProperty_TisVector2_t2156229523_m2721164497_gshared
RMa:__ZN4FileC2Ev
XOg:__Z81RuntimeInvoker_Void_t1185182177_RuntimeObject_Double_t594665363_Int32_t2950945753PFvvEPK10MethodInfoPvPS4_
B8e:_BitConverterLE_UIntFromBytes_m3974925535
u1f:_Type_GetTypeFromHandle_m1620074514
bdj:__ZN15dense_hashtableINSt3__24pairIK10KeyWrapperINS1_IPK10MethodInfoP11Il2CppClassEEEjEES9_17ReflectionMapHashIS8_EN14dense_hash_mapIS9_jSD_NS9_14EqualsComparerINS0_8equal_toIS8_EEEENS0_9allocatorISB_EEE9SelectKeyESI_SK_E12maybe_shrinkEv
xRa:__ZN14BatchAllocator16AllocateInternalEPPvijjj
irg:_GameObject_SendMessage_m3720186693
R2b:__Z13RegisterClassI6SpriteEvv
zNf:_Array_InternalArray__ICollection_Remove_TisKeyframe_t4206410242_m3222074551_gshared
Bpd:_ArgumentException_get_Message_m520762021
pxe:_InternalEnumerator_1_System_Collections_IEnumerator_get_Current_m1641466962_AdjustorThunk
a1i:__ZN14dense_hash_setI10KeyWrapperIPK17Il2CppGenericInstEN6il2cpp8metadata21Il2CppGenericInstHashENS4_14EqualsComparerINS6_24Il2CppGenericInstCompareEEENSt3__29allocatorIS4_EEEC2EjRKS7_RKSA_
mcf:_HybridDictionary_Switch_m3818192922
IBj:_min_bytes_allocd
Jzb:__ZN17AnimationCurveTplIfE15InvalidateCacheEv
b2e:_Selectable_Awake_m2577497063
ZPf:_Array_compare_TisUIVertex_t4057497605_m3950502696_gshared
jlc:__Z29Mesh_Get_Custom_PropCanAccessP12Il2CppObject
z7a:__ZN6Sprite8TransferI19StreamedBinaryWriteILb0EEEEvRT_
NJe:_Enumerator_System_Collections_IEnumerator_get_Current_m2979767597_gshared
vTf:_Array_InternalArray__ICollection_CopyTo_TisLabelData_t360167391_m175414846_gshared
a7e:_BigInteger_op_Implicit_m378428706
tug:_PlayerConnection_DisconnectedCallback_m1697017309
Lfb:__Z14resize_trimmedINSt3__26vectorIi13stl_allocatorIiL18MemLabelIdentifier13ELi16EEEEEvRT_j
BE:__ZN7mecanim9animation18ControllerConstant15InitializeClassEv
_Ff:_Enum_System_IConvertible_ToDateTime_m3823814707
zo:FUNCTION_TABLE_iiiiiiiffiiiiiiiiiffffiiii
wFf:_Double_CompareTo_m3151899116_AdjustorThunk
zUd:_NumberFormatter_Init_m2982613221
Mzc:_cf2_getMaxstack
a_d:_EnumBuilder_GetCustomAttributes_m166600193
HIi:_Check_Source_m4098695967
Ozg:_SpaceAttribute__ctor_m2972541600
oEd:_Convert_ToInt32_m2128774575
rIe:_DefaultComparer_Compare_m297694671_gshared
ZAc:_cff_parser_run
EDj:_GC_notify_or_invoke_finalizers
Jvj:__ZN6il2cpp2os6Thread5SleepEjb
Muf:_String_Compare_m1293271421
vId:_Int32_System_IConvertible_ToDateTime_m1824716955_AdjustorThunk
zRj:_emscripten_glUniform3f__wrapper
Ln:FUNCTION_TABLE_viiiifii
K7f:_Dictionary_2_Init_m1051918563_gshared
juh:_List_1_set_Item_m3289315279_gshared
RId:_Int32_CompareTo_m2864982090
qyj:__ZN15dense_hashtableINSt3__24pairIK10KeyWrapperIPK19Il2CppGenericMethodEP10MethodInfoEES6_N6il2cpp8metadata23Il2CppGenericMethodHashEN14dense_hash_mapIS6_S9_SD_NS6_14EqualsComparerINSC_26Il2CppGenericMethodCompareEEENS0_9allocatorISA_EEE9SelectKeyESH_SJ_E4findERS7_
RRa:__ZN10TagManager23AddDefaultLayerIfNeededEv
fUa:__ZN10FlareLayer12AddToManagerEv
Nda:__ZN18AsyncUploadManagerC2E10MemLabelId
vHa:__ZNSt3__26vectorINS_4pairI5CbKeyPN19ConstantBuffersGLES11ConstBufferEEENS_9allocatorIS6_EEE21__push_back_slow_pathIKS6_EEvRT_
jlj:__ZNK15dense_hashtableINSt3__24pairIK10KeyWrapperINS1_IP11Il2CppClassjEEES4_EES6_N6il2cpp8metadata14ArrayClassHashEN14dense_hash_mapIS6_S4_SB_NS6_14EqualsComparerINSA_17ArrayClassCompareEEENS0_9allocatorIS8_EEE9SelectKeyESF_SH_E12test_deletedEj
adb:__ZN13BuildSettings23VirtualRedirectTransferER24GenerateTypeTreeTransfer
$ub:__ZN24GenerateTypeTreeTransfer21TransferSTLStyleArrayINSt3__26vectorI8GUIStyle13stl_allocatorIS3_L18MemLabelIdentifier1ELi16EEEEEEvRT_17TransferMetaFlags
sRe:_Enumerator_get_Current_m926428745_AdjustorThunk
zAc:_cf2_arrstack_clear
Dtc:__Z18Transfer_BlittableI8JSONReadLb1E8Vector2fEvRK29SerializationCommandArgumentsR31RuntimeSerializationCommandInfo
fke:_SslStreamBase_BeginRead_m3146234303
NFf:_Double_ToString_m1051753975
nPc:__ZN2UI14CanvasRenderer23VirtualRedirectTransferER24GenerateTypeTreeTransfer
sLb:__Z16PresentAfterDrawN9GfxDevice11PresentModeE
Uwa:__ZN10DynamicVBO19FillQuadIndexBufferER21DynamicVBOChunkHandle
bxi:_PKCS12_Clone_m2085085101
Rfg:_EqualityComparer_1__cctor_m3880019879_gshared
Oyj:__ZN6il2cpp2vm6String8NewUtf16ERKNS_5utils10StringViewIDsEE
Gbe:_MD5SHA1__ctor_m4081016482
KTj:_glGenFramebuffers__wrapper
zXe:_LayoutGroup_GetAlignmentOnAxis_m1696038011
P9:__ZN23TransformChangeDispatch15InitializeClassEPv
CS:__ZN9JSONWrite8TransferIyEEvRT_PKc17TransferMetaFlags
oQb:__ZN22MotionVectorRenderLoop16PerformRenderingER8JobFence
kWj:_glTexSubImage2D__wrapper
kU:__ZN11UnityEngine15CloudWebService18RestFileDownloader13OnReceiveDataEPKvj
PGc:_UNITY_TT_RunIns
SGc:_Current_Ppem
$pc:__ZN5Unity9rapidjson6WriterI16TempBufferWriterNS0_4UTF8IcEES4_13JSONAllocatorE10StartArrayEv
vdh:_ReadOnlyCollection_1_System_Collections_IEnumerable_GetEnumerator_m610559569_gshared
Ogg:_GenericEqualityComparer_1_Equals_m3279253448_gshared
uQj:dynCall_iiiiiiiii
cha:__ZN6ShaderD0Ev
c2b:__ZN18BackgroundJobQueue19ScheduleJobInternalEPFvPvES0_RKNS_8JobFenceE
Hsj:__ZN6il2cpp2gc8GCHandle9GetTargetEj
RLb:__ZN25CameraStackRenderingState18EndStereoRenderingEv
Llb:__ZN20LocalFileSystemPosix9SetLengthER13FileEntryDatay
Mfi:__ZL64StandaloneInputModule_t2760469101_CustomAttributesCacheGeneratorP21CustomAttributesCache
HHj:__ZN6il2cpp5utils25NativeDelegateMethodCache17GetNativeDelegateEPFvvE
EWa:__Z27ConvertSubMeshesToTrianglesItEvR13dynamic_arrayI7SubMeshLj4EERS0_IhLj1EE
dk:_emscripten_glGetProgramiv
AUi:_InputBuffer_add_onCommandSent_m2926830140
ieb:__ZN26PlayerSettingsSplashScreen8TransferI24GenerateTypeTreeTransferEEvRT_
xAa:__ZN6prcoreL17RemapGenericFloatI18TexFormatRGBAFloat14TexFormatRHalfEEvPKNS_9InnerInfoE
QGf:_Environment_get_Platform_m520224871
DFf:_FormatException__ctor_m1479314061
Cg:_glScissor
nJf:_CultureInfo_insert_into_shared_tables_m4239017467
GXc:__ZNSt3__26__treeINS_12__value_typeIN4core12basic_stringIcNS2_20StringStorageDefaultIcEEEE14CallbackArray2IRKS6_R8JSONReadEEENS_19__map_value_compareIS6_SD_NS_4lessIS6_EELb1EEE13stl_allocatorISD_L18MemLabelIdentifier6ELi16EEE7destroyEPNS_11__tree_nodeISD_PvEE
mWi:_CanvasRenderer_SplitUIVertexStreamsInternal_m3280623346
VYe:_CullStateChangedEvent__ctor_m4089558259
yui:_TlsClientSettings_set_ClientCertificate_m3374228612
qOd:_MemoryStream_Read_m337792459
xUf:_Array_InternalArray__Insert_TisRuntimeObject_m1619219378_gshared
$Pd:_StreamWriter_LowLevelWrite_m1318762026
bUd:_MulticastDelegate_GetHashCode_m3864330728
vAh:_List_1_Insert_m1643593161_gshared
pIg:__Z133RuntimeInvoker_Int32_t2950945753_RuntimeObject_RuntimeObject_Int32_t2950945753_Int32_t2950945753_RuntimeObject_ContextU26_t3937453398PFvvEPK10MethodInfoPvPS4_
cra:__ZN13GfxDeviceGLES21RegisterNativeTextureE9TextureIDi16TextureDimension
Tic:__Z44Register_UnityEngine_Material_DisableKeywordv
ln:FUNCTION_TABLE_iiiiiiif
_Jg:__Z118RuntimeInvoker_Int32_t2950945753_IntPtr_t_RuntimeObject_Int32_t2950945753_Int32_t2950945753_MonoIOErrorU26_t1548853198PFvvEPK10MethodInfoPvPS4_
EXj:_emscripten_glUniform4fv__wrapper
hn:FUNCTION_TABLE_iiiiiiii
_fa:__ZN4core8hash_mapIiP4RTTIN11TypeManager27HashFunctorPersistentTypeIDENSt3__28equal_toIiEEEixERKi
uad:_DefaultControls_CreateUIElementRoot_m3904573408
Uxc:__ZN19ControllerHitReportD2Ev
PAe:_InternalEnumerator_1_System_Collections_IEnumerator_get_Current_m4189894603_gshared
qFj:__ZN6il2cpp2os11MutexHandle4WaitEv
$T:__ZN11UnityEngine15CloudWebService23WebRequestUploadHandler8GetBytesEv
Xsf:_Single_System_IConvertible_ToChar_m1898259383
jza:__ZN6prcoreL12RemapGenericI11TexFormatI817TexFormatARGB4444EEvPKNS_9InnerInfoE
_Tf:_Array_InternalArray__ICollection_CopyTo_TisVector2_t2156229523_m4226925582_gshared
WKf:_Guid_Equals_m1866984197_AdjustorThunk
Odb:__ZNK14PlayerSettings22GetTypeVirtualInternalEv
Ofh:_ReadOnlyCollection_1_System_Collections_IList_Insert_m2216746332_gshared
jDd:_Convert_ToChar_m2261593104
Oqj:__ZN15dense_hashtableINSt3__24pairIK10KeyWrapperINS1_IPKcS4_EEEiEES6_24NamespaceAndNamePairHashN14dense_hash_mapIS6_iS9_NS6_14EqualsComparerI26NamespaceAndNamePairEqualsEENS0_9allocatorIS8_EEE9SelectKeyESD_SF_EC2ERKSI_j
tLh:__ZL61ComImportAttribute_t1295173782_CustomAttributesCacheGeneratorP21CustomAttributesCache
nGf:_Enum_FormatSpecifier_X_m2932245600
UYd:_DerivedType_GetInterfaces_m2159651138
Smg:_Camera_ScreenToViewportPoint_m3569032523
pea:__ZN15DirectorManager12RegisterJobsEP13PlayableGraph
pCd:_Stack_Push_m2529252115
Pnc:__Z38Event_CUSTOM_Internal_GetMousePositionP12Il2CppObjectP13Vector2fIcall
NU:__ZN11UnityEngine15CloudWebService14DataDispatcher10InitializeERKN4core12basic_stringIcNS2_20StringStorageDefaultIcEEEEPvjRNS0_18ICloudJobSchedulerE
p_c:__ZN22CrashReportingSettingsC2Ev
HAc:_cff_free_glyph_data
qjd:_DESTransform__cctor_m244488330
yqa:__ZN13GfxDeviceGLES23ResolveDepthIntoTextureE12ObjectHandleI17RenderSurface_TagP17RenderSurfaceBaseES4_
Xvf:_String_CreateString_m3400201881
