Ac:_glClearStencil
M2f:_UInt16_System_IConvertible_ToChar_m2096055221_AdjustorThunk
MNf:_Array_TrueForAll_TisRuntimeObject_m1084992726_gshared
eCh:_List_1_Contains_m2043664690_gshared
Pwj:__ZN6il2cpp2vm5Array13GetByteLengthEP11Il2CppArray
gIi:_KeyBuilder_get_Rng_m3373220441
G_c:__ZN15DownloadHandler7OnAbortEv
ySa:__Z30GetIntermediateRendererManagerv
Ykh:_U3CCreateWhereIteratorU3Ec__Iterator1D_1_System_Collections_Generic_IEnumeratorU3CTSourceU3E_get_Current_m1909387290_gshared
bya:__Z21SourceMipLevelForBlitiiii
_Wa:__ZN31CanvasBatchIntermediateRenderer15AddAsRenderNodeER15RenderNodeQueueRK20DeprecatedSourceData
$$f:_TimeSpan_get_Hours_m550761902
edi:__ZL95CanvasRenderer_t2598313366_CustomAttributesCacheGenerator_CanvasRenderer_SetMaterial_m824577244P21CustomAttributesCache
Ybi:__ZL72GUISkin_t1244372282_CustomAttributesCacheGenerator_m_verticalSliderThumbP21CustomAttributesCache
e5h:__ZL63PlayableOutputHandle_t4208053793_CustomAttributesCacheGeneratorP21CustomAttributesCache
BRd:_UnmanagedMemoryStream_Write_m930787521
rWc:__ZN11UnityEngine7Connect14AppUpdateEventD0Ev
nKh:__ZL66RuntimeArray_CustomAttributesCacheGenerator_Array_Sort_m3287581440P21CustomAttributesCache
vJi:_AnalyticsEventTracker_SendEvent_m1365958832
cX:__ZdlPv
Er:__ZN11UnityEngine9Animation28GenericAnimationBindingCacheD2Ev
AZf:_UTF8Encoding_GetHashCode_m641510078
Pyi:_X509Store_LoadCrl_m1881903843
Vpi:_Array_Sort_TisUICharInfo_t75501106_TisUICharInfo_t75501106_m722747892_gshared
Nyd:_CaseInsensitiveComparer__ctor_m2101975011
_Hg:__Z67RuntimeInvoker_Byte_t1134296376_Int32_t2950945753_Int32_t2950945753PFvvEPK10MethodInfoPvPS4_
DGg:__Z53RuntimeInvoker_UInt32_t2560061978_Decimal_t2948259380PFvvEPK10MethodInfoPvPS4_
dYb:__Z18RestoreRenderStateR20CameraRenderOldStateR17ShaderPassContext
zyb:__Z18Transfer_BlittableI18StreamedBinaryReadILb1EELb1E5RectTIfEEvRK29SerializationCommandArgumentsR31RuntimeSerializationCommandInfo
rub:__Z18Transfer_BlittableI24GenerateTypeTreeTransferLb0E11ColorRGBA32EvRK29SerializationCommandArgumentsR31RuntimeSerializationCommandInfo
kDb:__Z25scripting_class_from_name17ScriptingImagePtrPKcS1_
KQf:_Array_InternalArray__IndexOf_TisKeyValuePair_2_t3699644050_m1021241249_gshared
thj:__ZN14dense_hash_mapI10KeyWrapperINSt3__24pairIPK12PropertyInfoP11Il2CppClassEEEj17ReflectionMapHashIS8_ENS9_14EqualsComparerINS1_8equal_toIS8_EEEENS1_9allocatorINS2_IKS9_jEEEEE15set_deleted_keyERSH_
LEb:__Z29scripting_class_enum_basetype17ScriptingClassPtr
dCh:_List_1_Clear_m3097985365_gshared
SX:__ZNK12BaseRenderer18GetRenderNodeCountEv
j1d:_PropertyBuilder_get_CanWrite_m2657562188
eHe:_InternalEnumerator_1_get_Current_m1477715453_gshared
fjg:_Enumerator__ctor_m2827156589_AdjustorThunk
Olb:__ZNK20LocalFileSystemPosix6ParentERK13FileEntryDataRN4core12basic_stringIcNS3_20StringStorageDefaultIcEEEE
Byg:_RectTransform_GetWorldCorners_m3553547973
N5g:_Collection_1_System_Collections_IList_Remove_m1476284619_gshared
z4e:_ContractionComparer__ctor_m3439667810
CTd:_MonoType_IsPrimitiveImpl_m2401722705
Znf:_SHA1CryptoServiceProvider__ctor_m4195188793
eog:_CSSMeasureFunc_BeginInvoke_m3802154595
Jbd:_Dropdown_Hide_m504034854
NLa:__ZN17PersistentManager22CheckInstanceIDsLoadedEPii
V3a:__ZN9Texture2D25CreateScaledAndPaddedDataEPP17SharedTextureDataS2_
vCg:_Vector2_get_up_m2647420593
Hva:__ZN7ApiGLES17CopyBufferSubDataEjjlll
LTf:_Array_InternalArray__ICollection_CopyTo_TisUInt64_t4134040092_m691431926_gshared
r5g:__ZN23InterfaceActionInvoker2Ii22OrderBlock_t1585977831E6InvokeEjP11Il2CppClassP12Il2CppObjectiS0_
Mef:_IPAddress_ToString_m1181734207
HXf:_StringBuilder_Append_m1965104174
apc:__ZN5Unity9rapidjson15GenericDocumentINS0_4UTF8IcEE13JSONAllocatorS4_E11ParseStreamILj1ES3_NS0_25GenericInsituStringStreamIS3_EEEERS5_RT1_
g$i:__ZNSt3__26vectorIPK10Il2CppTypeNS_9allocatorIS3_EEE7reserveEj
Tcg:_EqualityComparer_1__cctor_m3766928733_gshared
kQb:__ZN25CameraStackRenderingState20GetOrCreateBuiltinRTE24BuiltinRenderTextureTypeii17DepthBufferFormat19RenderTextureFormatj22RenderTextureReadWrite14VRTextureUsagei
ioh:_UnityAction_1_Invoke_m610765085_gshared
zO:__ZN11AudioModule26SetDefaultMicrophoneDriverEPv
k9d:_Kernel_modInverse_m652700340
q8a:__ZNK14Texture2DArray26CanReuploadDataToGfxDeviceEv
zUb:__ZN17PrePassRenderLoop14RenderBasePassEP13RenderTextureRK14LightingLayersR13dynamic_arrayI16RenderObjectDataLj4EERbR10MinMaxAABB
xQa:__ZN17GlobalGameManager23VirtualRedirectTransferER17RemapPPtrTransfer
RFc:_sfnt_stream_close
Rmc:__ZN5IMGUI18RepaintModalWindowER8GUIState
jcf:_HybridDictionary_get_IsSynchronized_m2987560362
q4:__ZNK15dense_hashtableINSt3__24pairIKN9ShaderLab7Program23ShaderKeywordSetAndHashEPKNS2_10SubProgramEEES4_NS3_24ShaderKeywordHashFunctorEN14dense_hash_mapIS4_S8_SA_NS0_8equal_toIS4_EE13stl_allocatorIS9_L18MemLabelIdentifier67ELi16EEE9SelectKeyESD_SG_E23find_position_with_hashERS5_j
mIf:_CompareInfo_Finalize_m404687489
$6a:__Z23SetSpriteMeshIndexCountP14SharedMeshDataj
DZf:_UTF8Decoder_GetChars_m1236346907
NAg:_TouchScreenKeyboard_Open_m231964201
b$a:__ZN7Texture13SetFilterModeEi
jwg:_Quaternion_GetHashCode_m2636680144_AdjustorThunk
EIb:__ZNSt3__26vectorINS_4pairIiN17InstancingBatcher12PropertyTypeEEE13stl_allocatorIS4_L18MemLabelIdentifier1ELi16EEE21__push_back_slow_pathIKS4_EEvRT_
oai:__ZL99AudioSource_t3935305588_CustomAttributesCacheGenerator_AudioSource_t3935305588____clip_PropertyInfoP21CustomAttributesCache
pyj:__ZN6il2cpp8metadata13GenericMethod9GetMethodEPK19Il2CppGenericMethod
sq:__ZNSt3__26vectorIN4core12basic_stringIcNS1_20StringStorageDefaultIcEEEENS_9allocatorIS5_EEE7reserveEj
hXd:_Default_SelectProperty_m1220817815
Oke:_RemotingConfiguration_IsRemotelyActivatedClientType_m4117048589
Dyg:_Transform_TransformPoint_m226827784
TSi:_ListPool_1_Get_m738675669_gshared
Apa:__ZN13GfxDeviceGLES11SetViewportERK5RectTIiE
Hjc:__Z24Time_Get_Custom_PropTimev
Rd:_emscripten_glDepthRange
Vje:_SslStreamBase_BeginNegotiateHandshake_m4180435790
s_b:__ZNSt3__26vectorINS_4pairIN4core12basic_stringIcNS2_20StringStorageDefaultIcEEEES6_EE13stl_allocatorIS7_L18MemLabelIdentifier38ELi16EEE12__move_rangeEPS7_SC_SC_
Kia:__Z14resize_trimmedINSt3__26vectorIN9ShaderLab20SerializedSubProgram12UAVParameterENS0_9allocatorIS4_EEEEEvRT_j
upc:__ZN5Unity9rapidjson13GenericReaderINS0_4UTF8IcEES3_13JSONAllocatorE11ParseObjectILj1ENS0_25GenericInsituStringStreamIS3_EENS0_15GenericDocumentIS3_S4_S4_EEEEvRT0_RT1_
b6c:_StandaloneInputModule_GetRawMoveVector_m2737091079
zji:__ZL62Selectable_t3250028441_CustomAttributesCacheGenerator_m_ColorsP21CustomAttributesCache
mke:_SslStreamBase_EndWrite_m4073224031
P1:__ZNSt3__218__insertion_sort_3IRNS_6__lessI14ObjectLoadDataS2_EEPS2_EEvT0_S6_T_
Aai:__ZL92Event_t2956885303_CustomAttributesCacheGenerator_Event_Internal_GetMousePosition_m1101229675P21CustomAttributesCache
tvh:_List_1_System_Collections_ICollection_get_SyncRoot_m1244917400_gshared
xxa:__ZN4crndL20crnd_default_reallocEPvjPjbS0_
x1g:__Z54RuntimeInvoker_CustomAttributeNamedArgument_t287865710PFvvEPK10MethodInfoPvPS4_
hMj:__ZNSt3__212basic_stringIcNS_11char_traitsIcEENS_9allocatorIcEEEC2ERKS5_
R7a:__ZN18SpriteAtlasManager19AddRequestingSpriteE4PPtrI6SpriteE
Gig:_Enumerator__ctor_m247851533_gshared
sjc:__Z33Texture_CUSTOM_Internal_GetHeightP12Il2CppObject
_ai:__ZL102GUIStyle_t3956901511_CustomAttributesCacheGenerator_GUIStyle_INTERNAL_CALL_GetRectOffsetPtr_m152975056P21CustomAttributesCache
iM:__ZNK4PPtrI9AudioClipEptEv
aSe:_ValueCollection_System_Collections_ICollection_get_SyncRoot_m3381653267_gshared
W7c:_CanvasScaler_get_defaultSpriteDPI_m871626936
iXb:__ZN23ScriptableRenderContextC2Ev
xed:_GridLayoutGroup_get_spacing_m2409263614
KSa:__ZN4PPtrI13RenderTextureE8TransferI18StreamedBinaryReadILb0EEEEvRT_
VQe:_Enumerator_MoveNext_m3051926902_gshared
dsh:_List_1_CheckIndex_m581273900_gshared
LHc:_UNITY_FT_Stream_GetChar
nDg:_WaitForSeconds_t1699091251_marshal_pinvoke
iTi:_ObjectPool_1_get_countAll_m819305395_gshared
_yb:__Z18Transfer_BlittableI18StreamedBinaryReadILb1EELb1EdEvRK29SerializationCommandArgumentsR31RuntimeSerializationCommandInfo
Pxh:_List_1_ToArray_m190175978_gshared
TEb:__Z26BuildSerializationCacheFor17ScriptingClassPtrRb
e2c:_EventSystem_get_firstSelectedGameObject_m1576206896
HDa:__ZN7ApiGLES15BlitFramebufferEN2gl6HandleILNS0_10ObjectTypeE9EEENS0_15FramebufferReadES3_S3_iiiiiiiiNS0_15FramebufferTypeE
qij:_il2cpp_class_get_name
jQg:__Z112RuntimeInvoker_RuntimeObject_RuntimeObject_RuntimeObject_RuntimeObject_RuntimeObject_RuntimeObject_RuntimeObjectPFvvEPK10MethodInfoPvPS4_
tGe:_InternalEnumerator_1_System_Collections_IEnumerator_get_Current_m3553395619_AdjustorThunk
QMh:__ZL70AssemblyVersionCompatibility_t766556580_CustomAttributesCacheGeneratorP21CustomAttributesCache
Cqd:_Array_SetValue_m3998268557
Mvc:__ZN8JSONRead8TransferI8Vector4fEEvRT_PKc17TransferMetaFlagsb
T8c:_ColorBlock_set_highlightedColor_m2089444414_AdjustorThunk
yZg:__Z59RuntimeInvoker_Boolean_t97287965_X509ChainStatus_t133602714PFvvEPK10MethodInfoPvPS4_
myg:_RectTransform_INTERNAL_set_anchoredPosition_m939517950
Gge:_Context_EndSwitchingSecurityParameters_m4148956166
PCc:_otv_PairPos_validate
KWh:__ZL63ThreadStateException_t3003788475_CustomAttributesCacheGeneratorP21CustomAttributesCache
gw:__ZN7mecanim9animation14CopyHumanPosesEPKNS0_18AnimationNodeStateEPS1_RKNS_6bitsetILj83EEE
n7i:__ZN6il2cpp6icalls8mscorlib6SystemL8IsStaticEPK12PropertyInfo
iGb:__Z9InitInputv
Fgj:__ZN30dense_hashtable_const_iteratorINSt3__24pairIK10KeyWrapperIPK22Il2CppGenericParameterEPK24MonoGenericParameterInfoEES6_N6il2cpp5utils11PointerHashIS4_EEN14dense_hash_mapIS6_SA_SF_NS6_14EqualsComparerINS0_8equal_toIS5_EEEENS0_9allocatorISB_EEE9SelectKeyESK_SM_E30advance_past_empty_and_deletedEv
KEc:_UNITY_tt_face_build_cmaps
Qcj:__ZN6il2cpp2gc19AppendOnlyGCHashMapINSt3__24pairIPK10MethodInfoP11Il2CppClassEEP22Il2CppReflectionMethod17ReflectionMapHashIS9_ENS2_8equal_toIS9_EEE3AddERKS9_SB_
Tmb:__ZN16MemoryFileSystem6DeleteER13FileEntryDatab
VKg:__Z81RuntimeInvoker_Void_t1185182177_RuntimeObject_Int64_t3736567304_Int32_t2950945753PFvvEPK10MethodInfoPvPS4_
nth:_List_1_set_Item_m1979164443_gshared
tya:__ZL21BlitScaleStbImageImplRK14ImageReferenceRS_NS_10ColorSpaceE
ftd:_Boolean_System_IConvertible_ToUInt16_m3465173538_AdjustorThunk
hUe:_InputField_get_keyboardType_m1248105267
iqb:__Z29Transfer_Blittable_ArrayFieldI14SafeBinaryReadyEvRT_R9ArrayInfoRK23StaticTransferFieldInfo
oM:__ZN20SoundChannelInstance15setChannelGroupEPN4FMOD12ChannelGroupE
lzi:_Match__ctor_m2425511580
PNh:__ZL63FileNotFoundException_t225391025_CustomAttributesCacheGeneratorP21CustomAttributesCache
A1h:__ZL84Behaviour_t1437897464_CustomAttributesCacheGenerator_Behaviour_set_enabled_m20417929P21CustomAttributesCache
oc:invoke_vifffii
KBb:__Z35Transfer_Blittable_FixedBufferFieldI18StreamedBinaryReadILb0EEaEvRK29SerializationCommandArgumentsR31RuntimeSerializationCommandInfo
goj:__ZN6il2cpp2vm9Exception27RaiseNullReferenceExceptionEv
COa:__ZNK25MultiBlocksMemoryFileData5CloneEv
kAe:_InternalEnumerator_1_System_Collections_IEnumerator_Reset_m3873091784_AdjustorThunk
XDj:_GC_add_ext_descriptor
fbj:__ZNK15dense_hashtableINSt3__24pairIK10KeyWrapperINS1_IPK14Il2CppAssemblyP11Il2CppClassEEEjEES9_17ReflectionMapHashIS8_EN14dense_hash_mapIS9_jSD_NS9_14EqualsComparerINS0_8equal_toIS8_EEEENS0_9allocatorISB_EEE9SelectKeyESI_SK_E23find_position_with_hashERSA_j
$ri:_LayoutGroup_SetProperty_TisSingle_t1397266774_m793506911_gshared
ZEj:__ZN6il2cpp2os14WindowsRuntime22GetRestrictedErrorInfoEv
Jid:_CryptoConfig_CreateFromName_m1538277313
bEh:_Queue_1__ctor_m263978079_gshared
HNa:__ZN17ArchiveFileSystem11CreateAsDirER13FileEntryData
iOj:dynCall_iiiiiiiiiiii
sUe:_InputField_set_caretPositionInternal_m3823580651
OJa:__ZN22VertexDeclarationCacheD0Ev
V1e:_Selectable_set_interactable_m3105888815
kXa:__ZL26KeywordSetToStringDontSortRKNSt3__26vectorIN4core12basic_stringIcNS1_20StringStorageDefaultIcEEEENS_9allocatorIS5_EEEERS5_
jVc:__Z54Register_UnityEngine_Analytics_CustomEventData_AddCharv
lAa:__ZN6prcoreL17RemapGenericFloatI16TexFormatRGFloat17TexFormatRGBAHalfEEvPKNS_9InnerInfoE
xG:__ZN12AudioManager22CreateFMODSoundFromWWWEP10IWWWStream15FMOD_SOUND_TYPE17FMOD_SOUND_FORMATjjbbP10SampleClip
X5b:__ZNK32RendererMaterialAnimationBinding15GenerateBindingERKN4core12basic_stringIcNS0_20StringStorageDefaultIcEEEEbRN11UnityEngine9Animation14GenericBindingE
i6d:_TargetException__ctor_m4172127019
Mwh:_List_1_CheckCollection_m274117203_gshared
aei:__ZL70EventSystem_t1003666588_CustomAttributesCacheGenerator_m_FirstSelectedP21CustomAttributesCache
j_:__ZN8Remapper23GetOrGenerateInstanceIDERK26SerializedObjectIdentifier
F9c:_ColorTween_get_startColor_m3792586410_AdjustorThunk
ONa:__ZN17FileSystemHandler10AtomicMoveER13FileEntryDataS1_
Ya:invoke_iiiiiifffiiifii
SHg:__Z85RuntimeInvoker_Void_t1185182177_Int32_t2950945753_Int32_t2950945753_Int32_t2950945753PFvvEPK10MethodInfoPvPS4_
Nte:_BinaryFormatter_get_SurrogateSelector_m2111882017
dnd:_X509CertificateCollection__ctor_m3365535796
YUd:_CustomInfo__ctor_m426096741
w2c:_EventSystem_ToString_m3779610692
k7a:__ZN6Sprite8TransferI24GenerateTypeTreeTransferEEvRT_
bse:_SoapTypeAttribute_get_IsInteropXmlType_m629667929
wkc:__Z48Register_UnityEngine_Transform_SetAsFirstSiblingv
w1a:__ZNK18DelayedCallManager22GetTypeVirtualInternalEv
n7a:__ZN7SubMesh8TransferI24GenerateTypeTreeTransferEEvRT_
xDi:_Literal_IsComplex_m4067122560
IJb:__ZN19GfxThreadableDevice20SetShadersThreadableEPP10GpuProgramPPK20GpuProgramParametersPKPKh
F8g:_Collection_1_System_Collections_IList_Contains_m296643274_gshared
DLd:_DirectoryInfo__ctor_m126519516
J2d:_MethodBase_GetMethodFromIntPtr_m3014201362
T5g:__ZN21InterfaceFuncInvoker1I19Color32_t2600501292iE6InvokeEjP11Il2CppClassP12Il2CppObjecti
BCi:_Reference_get_CapturingGroup_m3861468528
zHg:__Z40RuntimeInvoker_TypeAttributes_t113483779PFvvEPK10MethodInfoPvPS4_
zcc:__ZN9Transform23SetSiblingIndexInternalEib
xxh:_List_1_Clear_m1143167521_gshared
m2d:_AddEventAdapter__ctor_m2428277574
Fah:_Collection_1_SetItem_m794903769_gshared
VBd:_Enumerator_MoveNext_m635366482
snd:_X509Extension_Equals_m1222951829
Au:__ZN7mecanim5human12HumanPoseSubERNS0_9HumanPoseERKS1_S4_
i3g:__Z37RuntimeInvoker_Enumerator_t1789501480PFvvEPK10MethodInfoPvPS4_
msj:__ZN6il2cpp8metadata15GenericMetadata15GetGenericClassEiPK17Il2CppGenericInst
Vvd:_Char_GetTypeCode_m2433327340_AdjustorThunk
Job:__Z18Transfer_BlittableI14SafeBinaryReadLb0E10Matrix4x4fEvRK29SerializationCommandArgumentsR31RuntimeSerializationCommandInfo
iEb:__Z24GetFixedBehaviourManagerv
_Ih:__ZL69IntPtr_t_CustomAttributesCacheGenerator_IntPtr_op_Equality_m408849716P21CustomAttributesCache
j6i:__ZN6il2cpp2vm10ThreadPool4WaitEP17Il2CppAsyncResultPPv
a4e:_Text_UpdateGeometry_m3634850647
zyi:_X509Crl_VerifySignature_m1377612461
wJj:_vfprintf
onc:__ZN10GUIManager12AddGUIScriptER8ListNodeI13MonoBehaviourE
HFf:_NumberFormatInfo_get_PositiveInfinitySymbol_m1141345134
iCd:_Stack_Clear_m2010200235
T0a:__ZL13SortTexByNameRKNSt3__24pairIN9ShaderLab16FastPropertyNameEN18UnityPropertySheet11UnityTexEnvEEES7_
tzc:_cf2_getVStore
m4c:_PointerEventData_set_pointerPressRaycast_m1363193059
gOb:__ZN20DynamicPropertySheetD0Ev
y8d:_SafeHandle_Dispose_m4229010569
w_b:__ZN14SafeBinaryRead17RegisterConverterEPKcS1_PFbPvRS_E
l6h:__ZL77RuntimePlatform_t4159857903_CustomAttributesCacheGenerator_OSXDashboardPlayerP21CustomAttributesCache
u8:__ZN35RegisterRuntimeInitializeAndCleanup8RegisterEPFvPvES2_iS0_
dwi:_SubjectAltNameExtension_get_IPAddresses_m1641002124
P_d:_FieldBuilder_SetValue_m828035213
LUf:_Array_InternalArray__Insert_TisSingle_t1397266774_m3161726127_gshared
Zgh:_ReadOnlyCollection_1_System_Collections_IList_get_IsFixedSize_m733459177_gshared
vJh:__ZL72Enum_t4135868527_CustomAttributesCacheGenerator_Enum_ToObject_m121962870P21CustomAttributesCache
gdh:__ZN23InterfaceActionInvoker2IP24ObjectU5BU5D_t2843939325iE6InvokeEjP11Il2CppClassP12Il2CppObjectS1_i
Akc:__Z21Object_CUSTOM_DestroyP12Il2CppObjectf
B6h:__ZL99SetupCoroutine_t2062820429_CustomAttributesCacheGenerator_SetupCoroutine_InvokeMoveNext_m3199342729P21CustomAttributesCache
noa:__ZN8Material26ResetAllCachedMaterialDataEP6Shader
NOg:__Z63RuntimeInvoker_Void_t1185182177_RuntimeObject_Int16_t2552820387PFvvEPK10MethodInfoPvPS4_
XHc:_UNITY_TT_Get_MM_Var
Xue:_ObjectManager_AddFixup_m2154325362
CIe:_Comparer_1__cctor_m3761458313_gshared
LAf:_DateTimeOffset_CompareTo_m1350732322_AdjustorThunk
aa:invoke_diddi
brh:_List_1_CopyTo_m1478726798_gshared
WPc:__ZNK2UI6Canvas13GetRenderModeEv
Ypg:_PersistentCall__ctor_m1217622171
OPf:_Array_compare_TisCustomAttributeTypedArgument_t2723150157_m1384644047_gshared
ybf:_StrongName_get_TokenAlgorithm_m1794722022
sLd:_BinaryReader_ReadInt32_m2994982418
Unb:__Z18Transfer_BlittableI14SafeBinaryReadLb0EiEvRK29SerializationCommandArgumentsR31RuntimeSerializationCommandInfo
X4i:__ZN6il2cpp2vm13MetadataCache30GetPropertyDefinitionFromIndexEi
oIi:_SymmetricTransform_Transform_m1683494363
txg:_Rect_Contains_m1232228501
IYc:__ZN22BaseUnityConnectClient17InitializeSessionERKN4core12basic_stringIcNS0_20StringStorageDefaultIcEEEES6_N19CloudServiceHandler13InitModeFlagsE
cMh:__ZL56KeyCollection_t4251528776_CustomAttributesCacheGeneratorP21CustomAttributesCache
FUg:__Z74RuntimeInvoker_RuntimeObject_Int32_t2950945753_RuntimeObject_RuntimeObjectPFvvEPK10MethodInfoPvPS4_
ACh:_List_1_get_Item_m200663048_gshared
Cre:_ReturnMessage_get_Exception_m3375728265
jUj:_emscripten_glDeleteBuffers__wrapper
iCe:_InternalEnumerator_1_MoveNext_m3664960764_AdjustorThunk
bec:__ZN13MonoBehaviour34StopCoroutineFromEnumeratorManagedE18ScriptingObjectPtr
gvh:_List_1__ctor_m1345008423_gshared
VFc:_gray_raster_reset
ACg:_Vector3__ctor_m1719387948_AdjustorThunk
Pwc:__ZN11UnityEngine9Analytics18SceneLoadTimeEvent12SetSceneLoadERKN4core12basic_stringIcNS2_20StringStorageDefaultIcEEEEiyyyy
jgb:__ZN30RuntimeInitializeOnLoadManager8TransferI18StreamedBinaryReadILb0EEEEvRT_
Xzf:_DateTimeOffset__ctor_m2084804982
kEc:_UNITY_tt_face_load_pclt
Gnb:__ZN9profiling17ScriptingProfiler31UpdateRegisteredScriptingEventsEv
xdc:__ZL34GetComponentsImplementationRecurseILb1ELi0ELi2EEbR10GameObjectbRK17CompareParametersRK39GetComponentsImplementation_ReturnValue
psg:_Material_GetTexture_m3545614349
EFg:__Z64RuntimeInvoker_RuntimeObject_Int32_t2950945753_Int16_t2552820387PFvvEPK10MethodInfoPvPS4_
k8e:_ASN1_get_Length_m1923878580
Pdg:_EqualityComparer_1__cctor_m4244842342_gshared
DNb:__ZNK6Camera18WorldToScreenPointERK8Vector3fPb
yzg:_SendMouseEvents_DoSendMouseEvents_m2140870850
MTc:__ZN14UnityAnalyticsD0Ev
lAi:_PatternCompiler_EmitJump_m3915926156
QCa:__Z18IsCompressedFormat14GraphicsFormat
Vu:__ZN7mecanim9animation19AdjustPoseForMotionERKNS0_14AvatarConstantERKNS0_14SkeletonTQSMapERKN4math4trsXERNS_10ValueArrayERNS_8skeleton13SkeletonPoseTIS8_EESG_
egd:_SerializationEntry_get_Name_m1530029541_AdjustorThunk
Fdf:_TypeConverterAttribute_GetHashCode_m948291090
o0f:__Z33il2cpp_codegen_check_add_overflowxx
lZ:__ZNSt3__227__insertion_sort_incompleteIRPFbRKN18AwakeFromLoadQueue4ItemES4_EPS2_EEbT0_S9_T_
yUg:__Z71RuntimeInvoker_Boolean_t97287965_AnimatorControllerPlayable_t1015767841PFvvEPK10MethodInfoPvPS4_
t6h:__ZL73RuntimePlatform_t4159857903_CustomAttributesCacheGenerator_MetroPlayerARMP21CustomAttributesCache
WKd:_InvalidOperationException__ctor_m1685032583
X2i:__ZN14dense_hash_mapI10KeyWrapperIN6il2cpp5utils13dynamic_arrayIPK10Il2CppTypeLj4EEEEPFvvENS1_8metadata19Il2CppSignatureHashENS8_14EqualsComparerINSB_22Il2CppSignatureCompareEEENSt3__29allocatorINSG_4pairIKS8_SA_EEEEE15set_deleted_keyERSJ_
W0f:_TimeSpan_op_Subtraction_m3592306516
Nfg:_EqualityComparer_1_System_Collections_IEqualityComparer_GetHashCode_m1517903420_gshared
M4a:__ZN26EnlightenSystemInformation8TransferI14SafeBinaryReadEEvRT_
ofb:__ZN24GenerateTypeTreeTransfer8TransferINSt3__26vectorIN15ResourceManager10DependencyE13stl_allocatorIS4_L18MemLabelIdentifier52ELi16EEEEEEvRT_PKc17TransferMetaFlags
lWi:_CanvasRenderer_SplitUIVertexStreams_m2753637362
iWg:__Z119RuntimeInvoker_Void_t1185182177_RuntimeObject_Single_t1397266774_Single_t1397266774_SByte_t1669577662_Int32_t2950945753PFvvEPK10MethodInfoPvPS4_
_Zc:__ZN11UnityEngine15PlatformWrapper20SetPlayerPrefsUInt64ERKN4core12basic_stringIcNS1_20StringStorageDefaultIcEEEEy
Bbb:__ZN12MeshRendererD0Ev
MP:__ZN12AudioManager35GetCurrentSpatializerDefinitionNameEv
SAg:_TouchScreenKeyboard_get_active_m4267591905
HYi:_CustomEventData_InternalDestroy_m2184675245
bgj:__ZNK15dense_hashtableINSt3__24pairIK10KeyWrapperIPK14Il2CppAssemblyEPK22Il2CppMonoAssemblyNameEES6_N6il2cpp5utils11PointerHashIS4_EEN14dense_hash_mapIS6_SA_SF_NS6_14EqualsComparerINS0_8equal_toIS5_EEEENS0_9allocatorISB_EEE9SelectKeyESK_SM_E8min_sizeEjj
Ch:_utime
e8h:__ZL56PlayableGraph_t3515989261_CustomAttributesCacheGeneratorP21CustomAttributesCache
FCi:_BalancingGroup_Compile_m2575117193
MB:__Z28SetExposedSkeletonTransformsRKN7mecanim9animation14AvatarConstantERKN11UnityEngine9Animation30AnimatorGenericBindingConstantERKNS_8skeleton13SkeletonPoseTIN4math4trsXEEERKNSA_INSB_7affineXEEERNS5_21AvatarBindingConstantEy
maj:__ZNSt3__26vectorIN6il2cpp2vm17TypeNameParseInfoENS_9allocatorIS3_EEE8allocateEj
gzi:_Mark_get_Index_m3048692661_AdjustorThunk
Wui:_TlsServerSettings_get_CertificateRequest_m842655670
tn:FUNCTION_TABLE_viiiiif
cIe:_DefaultComparer_Compare_m3931992727_gshared
yn:FUNCTION_TABLE_viiiiii
XGe:_InternalEnumerator_1_System_Collections_IEnumerator_get_Current_m1847780851_AdjustorThunk
eHi:_GUILayoutUtility_get_spaceStyle_m3392862907
KId:_Int32_System_IConvertible_ToType_m3009233912_AdjustorThunk
Yzf:_DateTimeOffset__ctor_m74032857
mD:__ZN7mecanim9animation22DestroyAvatarWorkspaceEPNS0_15AvatarWorkspaceERNS_6memory9AllocatorE
P1f:_Type_type_is_assignable_from_m76737532
oZe:_MaskableGraphic_ParentMaskStateChanged_m1092090553
DUb:__ZN15LightmapSTCacheC2ER13BatchRendererR15RenderLoopStats
p1a:__ZN14PlayableOutput17SetSourcePlayableEP8Playable
Rjf:_X509ExtensionCollection_get_IsSynchronized_m2607599544
CC:__ZN7mecanim9animation29MotionOutputGetDeltaTransformEPKNS0_12MotionOutputE
FZh:__ZL64MissingFieldException_t1989070983_CustomAttributesCacheGeneratorP21CustomAttributesCache
Sih:_ReadOnlyCollection_1_System_Collections_Generic_ICollectionU3CTU3E_Add_m2369252587_gshared
Owc:__ZN27PerformanceReportingManager21OnSceneTimingCallbackERK15SceneLoadTimingRKN4core12basic_stringIcNS3_20StringStorageDefaultIcEEEE
yvi:_ValidationResult_get_ErrorCode_m1533688152
Vjc:__Z43Transform_CUSTOM_INTERNAL_get_localRotationP12Il2CppObjectP11Quaternionf
TIf:_CultureInfo_get_Parent_m672689885
pEj:__ZN6il2cpp6icalls8mscorlib6System10Reflection4Emit13ModuleBuilder13RegisterTokenEP29Il2CppReflectionModuleBuilderP12Il2CppObjecti
sNg:__Z50RuntimeInvoker_Int64_t3736567304_SByte_t1669577662PFvvEPK10MethodInfoPvPS4_
oSj:_glGetShaderInfoLog__wrapper
Gue:_ObjectReader_ReadObjectGraph_m340866276
XPe:_Transform_1_EndInvoke_m2716226219_gshared
fi:_emscripten_glGetTexParameteriv
XVc:__ZN11UnityEngine7Connect15DeviceInfoEvent7GFXInfoD2Ev
MTj:_glGenTextures__wrapper
gkj:__ZN15dense_hashtableINSt3__24pairIK10KeyWrapperINS1_IP11Il2CppClassjEEES4_EES6_N6il2cpp8metadata14ArrayClassHashEN14dense_hash_mapIS6_S4_SB_NS6_14EqualsComparerINSA_17ArrayClassCompareEEENS0_9allocatorIS8_EEE9SelectKeyESF_SH_EC2EjRKSB_RKSF_RKSJ_
pYf:_UnicodeEncoding_GetHashCode_m354003420
fja:__ZN9ShaderLab20SerializedSubProgram14ConstantBufferaSERKS1_
F2b:__Z13RegisterClassI4MeshEvv
C9h:__ZL74SharedBetweenAnimatorsAttribute_t2857104338_CustomAttributesCacheGeneratorP21CustomAttributesCache
MGf:_Enum_Equals_m3617313991
USg:__Z98RuntimeInvoker_Boolean_t97287965_PlayableOutputHandle_t4208053793_PlayableOutputHandle_t4208053793PFvvEPK10MethodInfoPvPS4_
JYg:__Z74RuntimeInvoker_Boolean_t97287965_LineTypeU26_t2430394419_Int32_t2950945753PFvvEPK10MethodInfoPvPS4_
O_a:__ZN8PlayableD0Ev
zg:emscriptenWebGLGetBufferBinding
aI:__ZN12AudioManager8TransferI19StreamedBinaryWriteILb0EEEEvRT_
w2e:_Slider_UpdateCachedReferences_m3259451627
ake:_SslStreamBase_get_KeyExchangeStrength_m217695965
hNg:__Z50RuntimeInvoker_Double_t594665363_Double_t594665363PFvvEPK10MethodInfoPvPS4_
QLg:__Z60RuntimeInvoker_Void_t1185182177_StreamingContext_t3711869237PFvvEPK10MethodInfoPvPS4_
Qzb:__ZN18StreamedBinaryReadILb1EE21TransferSTLStyleArrayI13dynamic_arrayI11ColorRGBA32Lj4EEEEvRT_17TransferMetaFlags
_kj:__ZN15dense_hashtableINSt3__24pairIK10KeyWrapperINS1_IP11Il2CppClassjEEES4_EES6_N6il2cpp8metadata14ArrayClassHashEN14dense_hash_mapIS6_S4_SB_NS6_14EqualsComparerINSA_17ArrayClassCompareEEENS0_9allocatorIS8_EEE9SelectKeyESF_SH_E6insertERKS8_
ecd:_U3CShowU3Ec__AnonStorey1_U3CU3Em__0_m2340880019
J1e:_Selectable_OnSetProperty_m1693943217
$rh:_List_1_GetIndex_m2300811709_gshared
W5b:__ZNK32RendererMaterialAnimationBinding12GetPPtrValueERKN11UnityEngine9Animation10BoundCurveE
VAb:__Z18Transfer_BlittableI18StreamedBinaryReadILb0EELb0E8Vector2fEvRK29SerializationCommandArgumentsR31RuntimeSerializationCommandInfo
xwf:_ASCIIEncoding_GetString_m58523364
jRc:__ZN2UI11CanvasGroup12CleanupClassEv
svi:_TlsStream_Flush_m3793197834
Wsh:_List_1_GetIndex_m2832472557_gshared
wlb:__ZN22LocalFileSystemHandler9MakeLocalER13FileEntryDatab
Nzj:__ZN6il2cpp2vm8Profiler10AllocationEP12Il2CppObjectP11Il2CppClass
shi:__ZL61Graphic_t1660335611_CustomAttributesCacheGenerator_m_MaterialP21CustomAttributesCache
sMc:__ZNSt3__23mapIN20TextRenderingPrivate7FontRefENS1_6OSFontENS_4lessIS2_EENS_9allocatorINS_4pairIKS2_S3_EEEEEixERS8_
uga:__Z13FormatOrderedPKcz
K7i:__ZN6il2cpp2vm8basepathEPKc
jif:_X509Chain_GetAuthorityKeyIdentifier_m614536199
SJc:__ZN14SafeBinaryRead21TransferSTLStyleArrayI10vector_mapINSt3__24pairIttEEfN20TextRenderingPrivate8FontImpl14KerningCompareENS2_9allocatorINS3_IS4_fEEEEEEEvRT_17TransferMetaFlags
tfe:_TlsServerFinished__ctor_m1445633918
fHd:_NumberFormatter_FastIntegerToString_m390846811
u6h:__ZL68RuntimePlatform_t4159857903_CustomAttributesCacheGenerator_WP8PlayerP21CustomAttributesCache
baf:_PKCS1_RSASP1_m3912327535
oUb:__ZN25DeferredRenderLoopScratchD0Ev
Yw:__ZN27AnimationLayerMixerPlayable14SetInputWeightEif
R3c:_PhysicsRaycaster_Raycast_m776323695
VBg:_UnityException__ctor_m1456865679
wu:__ZN7mecanim9animation17EvaluateHumanPoseERKNS0_18ClipMuscleConstantERKNS0_15ClipMuscleInputEPKfRKNS0_12MotionOutputERNS_5human9HumanPoseE
Vei:__ZL92PointerEventData_t3807901092_CustomAttributesCacheGenerator_U3CscrollDeltaU3Ek__BackingFieldP21CustomAttributesCache
pia:__ZN15dense_hashtableINSt3__24pairIKiN4core17string_with_labelILi1EEEEEi18SInt32HashFunctionN14dense_hash_mapIiS5_S7_NS0_8equal_toIiEE13stl_allocatorIS6_L18MemLabelIdentifier1ELi16EEE9SelectKeyESA_SD_E9copy_fromERKSG_j
HXd:_CustomAttributeNamedArgument_GetHashCode_m2317130892
Leb:__ZN15ResourceManagerD0Ev
Ndg:_EqualityComparer_1_get_Default_m990790318_gshared
ite:_WellKnownClientTypeEntry_ToString_m1119458503
D4:__ZN22CreateGpuProgramOutputD2Ev
EBh:_List_1_get_Item_m1378751541_gshared
mwb:__Z18Transfer_BlittableI19StreamedBinaryWriteILb0EELb1EsEvRK29SerializationCommandArgumentsR31RuntimeSerializationCommandInfo
aUh:__ZL52HMACSHA512_t923916539_CustomAttributesCacheGeneratorP21CustomAttributesCache
pSe:_ValueCollection_CopyTo_m2188334703_gshared
$nf:_SHA1CryptoServiceProvider_Finalize_m1793183797
SYh:__ZL78Convert_t2465617642_CustomAttributesCacheGenerator_Convert_ToUInt64_m409548990P21CustomAttributesCache
uhg:_HashSet_1_System_Collections_Generic_ICollectionU3CTU3E_CopyTo_m408073502_gshared
uP:__ZN14AudioBehaviourC2E10MemLabelId18ObjectCreationMode
Hkb:__ZN12HandlerChain4OpenER13FileEntryData14FilePermission16FileAutoBehavior
k0g:__Z72RuntimeInvoker_Void_t1185182177_Int32_t2950945753_RaycastHit_t1056001966PFvvEPK10MethodInfoPvPS4_
sYh:__ZL79Convert_t2465617642_CustomAttributesCacheGenerator_Convert_ToUInt16_m1147931813P21CustomAttributesCache
Ucj:__ZN15dense_hashtableINSt3__24pairIK10KeyWrapperINS1_IPK10MethodInfoP11Il2CppClassEEEjEES9_17ReflectionMapHashIS8_EN14dense_hash_mapIS9_jSD_NS9_14EqualsComparerINS0_8equal_toIS8_EEEENS0_9allocatorISB_EEE9SelectKeyESI_SK_E6insertERKSB_
_wc:__ZN27PerformanceReportingManager29OnSceneLoadedAfterAwakeStaticEPS_iR18AwakeFromLoadQueueN19RuntimeSceneManager11LoadingModeE
qZf:_UTF8Encoding_GetCharCount_m2272165989
Aqd:_Array_SetValue_m394135409
h1:__ZN14FileCacherReadD2Ev
Jhb:__ZN13RendererScene23UpdatePreviousFrameDataEii
ovf:_String_Remove_m562998446
Tfc:__Z50Register_UnityEngine_CullingGroup_FinalizerFailurev
Kti:_Mesh_GetAllocArrayFromChannel_TisVector2_t2156229523_m1057679375_gshared
Oqf:_SecurityPermission_IsSubsetOf_m545000671
rib:__ZN27UnloadUnusedAssetsOperationD0Ev
Px:__ZN26AnimatorControllerPlayable6MemoryD2Ev
KPb:__ZN28LightProbeProxyVolumeContextC2E10MemLabelId
gMj:__ZNKSt3__221__basic_string_commonILb1EE20__throw_out_of_rangeEv
vog:_Cursor_get_lockState_m2828192107
jIg:__Z78RuntimeInvoker_Boolean_t97287965_RuntimeObject_RuntimeObject_Int32_t2950945753PFvvEPK10MethodInfoPvPS4_
X8i:_UpdatedEventHandler_Invoke_m1320302085
rqj:__ZNK15dense_hashtableINSt3__24pairIK10KeyWrapperIP14Il2CppIUnknownEjEES5_N6il2cpp5utils11PointerHashIS3_EEN14dense_hash_mapIS5_jSB_NS5_14EqualsComparerINS0_8equal_toIS4_EEEENS0_9allocatorIS7_EEE9SelectKeyESG_SI_E12test_deletedERK24dense_hashtable_iteratorIS7_S5_SB_SK_SG_SI_E
PF:__ZN9AudioClip23VirtualRedirectTransferER18StreamedBinaryReadILb0EE
$Bh:_List_1_AddEnumerable_m2724989594_gshared
tma:__ZNSt3__26vectorIPN9ShaderLab9SubShaderENS_9allocatorIS3_EEE21__push_back_slow_pathIKS3_EEvRT_
aDh:_List_1_Contains_m2043463915_gshared
dVg:__Z82RuntimeInvoker_Vector2_t2156229523_Vector2_t2156229523_RuntimeObject_RuntimeObjectPFvvEPK10MethodInfoPvPS4_
xHa:__ZN18GlslGpuProgramGLESC2ERK13dynamic_arrayIhLj1EER22CreateGpuProgramOutput
Blc:__Z70Register_UnityEngine_Playables_PlayableHandle_GetPlayableType_Injectedv
qIb:__ZNK4PPtrI23ShaderVariantCollectionEcvPS0_Ev
RK:__ZN5audio5mixer22UpdateAudioMixerMemoryERKNS0_18AudioMixerConstantERNS0_16AudioMixerMemoryEfPN4FMOD6SystemEf
Hj:_glCopyTexSubImage2D
c6b:__ZNK24RendererAnimationBinding13GetFloatValueERKN11UnityEngine9Animation10BoundCurveE
RT:__ZNK15DownloadHandler14HasPendingDataEv
_Bg:_UnitySynchronizationContext_ExecuteTasks_m1310741010
Hmf:_RIPEMD160Managed_CompressFinal_m497690796
MZb:__ZN18ScreenManagerWebGL13SetShowCursorEb
Hye:_InternalEnumerator_1_MoveNext_m1773160976_gshared
JJb:__ZN13DrawImmediateC2ER9GfxDevice
HJj:_frexp
y9d:_Kernel_MultiplyMod2p32pmod_m451690680
Fob:__Z18Transfer_BlittableI14SafeBinaryReadLb0E5RectTIfEEvRK29SerializationCommandArgumentsR31RuntimeSerializationCommandInfo
fKd:_NumberFormatter_NumberToString_m2562899600
ppf:_SymmetricAlgorithm_get_FeedbackSize_m3666584308
XCc:_otv_u_C_x_Ox
nua:__ZN14GfxContextGLES14GetFramebufferEv
AUj:_emscripten_glGenVertexArrays__wrapper
a6f:_Version_Clone_m1749041863
cPe:_ShimEnumerator_get_Key_m4155849607_gshared
Yya:__ZN6prcoreL21CreateRemapAnyBlitterE13TextureFormatS0_
yce:_RSAManaged_ExportParameters_m1754454264
Dbc:__ZN17AnimationCurveTplIfE16StripInvalidKeysEv
ttd:_Boolean_Equals_m535526264_AdjustorThunk
u2g:__Z71RuntimeInvoker_KeyValuePair_2_t71524366_Int32_t2950945753_RuntimeObjectPFvvEPK10MethodInfoPvPS4_
bQc:__ZNK2UI6Canvas17GetSortingLayerIDEv
etd:_Convert_ToUInt16_m3116648921
fJh:__ZL40UIntPtr_t_CustomAttributesCacheGeneratorP21CustomAttributesCache
jjj:_il2cpp_method_has_attribute
x2b:__Z13RegisterClassI17GlobalGameManagerEvv
v6:__ZN8Renderer24SetupNewRendererForSceneEv
K1f:_Type_internal_from_name_m1721940673
tqi:_Array_swap_TisCustomAttributeTypedArgument_t2723150157_TisCustomAttributeTypedArgument_t2723150157_m365781156_gshared
TGf:_Environment_get_TickCount_m2088073110
dqe:_RemotingServices_GetMethodBaseFromName_m3194612939
Wtc:__Z35Transfer_Blittable_FixedBufferFieldI8JSONReadtEvRK29SerializationCommandArgumentsR31RuntimeSerializationCommandInfo
XTa:__ZN4PPtrI7TextureE8TransferI14SafeBinaryReadEEvRT_
M8b:__ZN14PlayableOutput6HandleEv
J6a:__ZNK6Sprite22GetTypeVirtualInternalEv
o0c:__ZN13RuntimeStaticINSt3__26vectorI23UnityVRDeviceDefinition13stl_allocatorIS2_L18MemLabelIdentifier90ELi16EEEELb0EE13StaticDestroyEPv
sn:FUNCTION_TABLE_iiiiiiiiiiiiii
x_c:__ZN19UnityConnectService18OnPlayerQuitStaticEPS_
ODc:_UNITY_tt_get_cmap_info
Cje:_SslClientStream_RaiseServerCertificateValidation_m3477149273
rvb:__Z29Transfer_Blittable_ArrayFieldI24GenerateTypeTreeTransfer5RectTIiEEvRT_R9ArrayInfoRK23StaticTransferFieldInfo
RXa:__ZN16ReflectionProbes8ScheduleEN18ReflectionProbeJob7JobTypeEP15ReflectionProbei
xfe:_ClientSessionInfo_KeepAlive_m1020179566
lQc:__ZN13dynamic_arrayIN2UI13UIInstructionELj4EE12emplace_backEv
rDh:_List_1_ToArray_m4056539300_gshared
$Mh:__ZL51Calendar_t1661121569_CustomAttributesCacheGeneratorP21CustomAttributesCache
rMa:__Z18IsDirectoryCreatedRKN4core12basic_stringIcNS_20StringStorageDefaultIcEEEE
Bqf:_String_FormatHelper_m3913915042
aPc:__ZN2UI13CanvasManagerD2Ev
mXd:_ConstructorInfo__cctor_m1016079270
g0i:__ZN15dense_hashtableINSt3__24pairIK10KeyWrapperIPKcEP11Il2CppClassEES5_N6il2cpp5utils11StringUtils12StringHasherIS4_EEN14dense_hash_mapIS5_S8_SE_NS5_14EqualsComparerINSB_13VmStringUtils21CaseSensitiveComparerEEENS0_9allocatorIS9_EEE9SelectKeyESJ_SL_E15set_deleted_keyERKS9_
kWg:__Z38RuntimeInvoker_ContentType_t1787303396PFvvEPK10MethodInfoPvPS4_
Xbh:_ReadOnlyCollection_1_Contains_m1700717617_gshared
yod:_AttrListImpl_get_Names_m977594476
eTh:__ZL53IFormatter_t3549834567_CustomAttributesCacheGeneratorP21CustomAttributesCache
VLc:_UNITY_FT_GlyphLoader_Done
bbi:__ZL89GUIStyle_t3956901511_CustomAttributesCacheGenerator_GUIStyle_get_stretchWidth_m3556443132P21CustomAttributesCache
a6d:_Pointer_Box_m389276611
HEf:_StackTrace_get_FrameCount_m344690939
oRd:_UnexceptionalStreamWriter_Write_m363195622
bWb:__ZNK21IntermediateRenderers16GetBoundingBoxesEv
qMc:__ZN20TextRenderingPrivate25ReadFontFileAndAddToCacheERKN4core12basic_stringIcNS0_20StringStorageDefaultIcEEEE
PEc:_tt_cmap14_char_var_index
TBb:__Z35Transfer_Blittable_FixedBufferFieldI18StreamedBinaryReadILb0EEdEvRK29SerializationCommandArgumentsR31RuntimeSerializationCommandInfo
fVe:_Selectable_OnPointerDown_m1086067264
_Ic:_psh_globals_new
ybd:_Dropdown_SetupTemplate_m628218778
JZf:_Thread_GetCompressedStack_m2923422412
jyd:_SynchronizedArrayListWrapper_CopyTo_m4207791406
ygf:_X509BasicConstraintsExtension_ToString_m1809935297
Moa:__ZN9GfxDevice20SetMaxBufferedFramesEi
FSi:_TweenRunner_1_StartTween_m1055628540_gshared
feh:_ReadOnlyCollection_1_System_Collections_IList_Remove_m4129318771_gshared
Nri:_GameObject_GetComponents_TisRuntimeObject_m1246177135_gshared
OK:__ZN24AudioScriptBufferManagerD2Ev
yOj:dynCall_vdd
_Rd:_MethodAccessException__ctor_m3542088436
R$b:__Z23ConvertIntegerToTypePtrIsEbPvR14SafeBinaryRead
Wwd:_ArrayListWrapper_get_Capacity_m51087796
MWe:_LayoutElement_get_minHeight_m4160507569
cdg:_EqualityComparer_1_System_Collections_IEqualityComparer_GetHashCode_m2230215241_gshared
Gki:__ZL60ContentSizeFitter_t3850442145_CustomAttributesCacheGeneratorP21CustomAttributesCache
rAd:_Hashtable_Contains_m2145146412
Y0h:__ZL64UnmarshalledAttribute_t1517743549_CustomAttributesCacheGeneratorP21CustomAttributesCache
Jac:__ZN4Mesh24UpdateSubMeshVertexRangeEi
Iqg:_MaterialEffectPlayable_Equals_m3750885802
cbj:__ZNK15dense_hashtableINSt3__24pairIK10KeyWrapperINS1_IPK14Il2CppAssemblyP11Il2CppClassEEEjEES9_17ReflectionMapHashIS8_EN14dense_hash_mapIS9_jSD_NS9_14EqualsComparerINS0_8equal_toIS8_EEEENS0_9allocatorISB_EEE9SelectKeyESI_SK_E12test_deletedEj
VGj:__ZN6il2cpp2os9FastMutex4LockEv
WGd:_Int32_FindCurrency_m3541026887
nmf:_Interval_CompareTo_m3282557545
vWj:_pthread_cond_wait__wrapper
BTb:__ZNK14RenderSettings19GetFlatAmbientColorEv
yya:__ZN6prcoreL10inner_flipILj4EEEvPhS1_j
tdb:__ZN18StreamedBinaryReadILb0EE21TransferSTLStyleArrayI10vector_mapIPKN5Unity4TypeE7Hash128NSt3__24lessIS6_EENS8_9allocatorINS8_4pairIS6_S7_EEEEEEEvRT_17TransferMetaFlags
Vy:__ZNK27StateMachineBehaviourPlayer15IsSenderEnabledEv
aki:__ZL58Text_t1901882714_CustomAttributesCacheGenerator_m_FontDataP21CustomAttributesCache
j$d:_GenericTypeParameterBuilder_IsPrimitiveImpl_m1952010459
Ldh:_ReadOnlyCollection_1_CopyTo_m3474153465_gshared
Yld:_RijndaelManagedTransform_TransformBlock_m1610137419
rkc:__Z40Register_UnityEngine_Transform_SetParentv
cVh:__ZL94WindowsIdentity_t2948242406_CustomAttributesCacheGenerator_WindowsIdentity_Dispose_m3466258450P21CustomAttributesCache
y8a:__ZN14Texture2DArray17UploadToGfxDeviceEv
JJ:__Z14FMODMemoryFreePvjPKc
I5h:__ZL100RectTransform_t3704657025_CustomAttributesCacheGenerator_RectTransform_INTERNAL_get_rect_m3130887130P21CustomAttributesCache
Ikg:_Enumerator__ctor_m2029608698_gshared
Rpg:_NetFxCoreExtensions_GetMethodInfo_m444570327
GRb:__Z14SetSHConstantsR13BatchRendererR17ShaderPassContextRK20SphericalHarmonicsL2b
Uud:_Char_System_IConvertible_ToDecimal_m3534906463
_zc:_cf2_glyphpath_moveTo
cBh:_List_1_AddCollection_m1469681717_gshared
QLh:__ZL86MSCompatUnicodeTable_t1453885583_CustomAttributesCacheGenerator_U3CU3Ef__switchU24map4P21CustomAttributesCache
fAg:_StackTraceUtility_SetProjectFolder_m830524047
wv:__ZN7mecanim23TransformValueArrayLoopEiiiRKN4math4trsXES3_RNS_10ValueArrayEf
Mfe:_ClientSessionInfo_Finalize_m2165787049
jnc:__ZN5IMGUI14GUIWindowStateD2Ev
Jee:_ClientContext_Clear_m1774063253
Vac:__ZN4Mesh17SetIndicesComplexEPKvjj16GfxPrimitiveTypeij
nzf:_DateTime_AddSeconds_m332574389_AdjustorThunk
OBg:_RequestAtlasCallback_Invoke_m378128467
aud:_Byte_System_IConvertible_ToSByte_m1869482168
iLg:__Z99RuntimeInvoker_RuntimeObject_RuntimeObject_RuntimeObject_StreamingContext_t3711869237_RuntimeObjectPFvvEPK10MethodInfoPvPS4_
EJi:_AnalyticsEventTracker_Awake_m2780522130
OB:__ZN7mecanim5human10RetargetToEPKNS0_5HumanEPKNS0_9HumanPoseES6_RKN4math4trsXEPS4_PNS_8skeleton13SkeletonPoseTIS8_EESF_
ov:__ZN7mecanim9animation8SeekClipERKNS0_12StreamedClipERNS0_18StreamedClipMemoryEf
$qg:_GameObject_Internal_AddComponentWithType_m3797731663
nm:_emscripten_glIsTexture
Uk:_emscripten_glHint
aPi:__ZL24UnresolvedVirtualCall_73P12Il2CppObjectPK10MethodInfo
IIi:_Check_SourceAndPredicate_m2332465641
xUg:__Z67RuntimeInvoker_Boolean_t97287965_TextGenerationSettings_t1351628751PFvvEPK10MethodInfoPvPS4_
JHc:_ft_var_readpackeddeltas
Srf:_String_op_Inequality_m215368492
Aag:_Dictionary_2_Clear_m1938428402_gshared
vyb:__Z35Transfer_Blittable_FixedBufferFieldI18StreamedBinaryReadILb1EEtEvRK29SerializationCommandArgumentsR31RuntimeSerializationCommandInfo
U3f:_UInt32_System_IConvertible_ToInt64_m2261037378
qm:_SDL_UpperBlit
NXa:__Z35GetTextureDecodeValuesWithIntensity16TextureUsageMode17TextureColorSpace10ColorSpacef
LMf:_Array_InternalArray__ICollection_Remove_TisChar_t3634460470_m4143749387_gshared
XJb:__ZN15dense_hashtableINSt3__24pairIK9TextureIDiEES2_14GfxGenericHashIS2_EN14GfxDoubleCacheIS2_iS6_NS0_8equal_toIS2_EEN31GfxDoubleCacheConcurrencyPolicy11LocklessGetE42GfxDoubleCacheDefaultEmptyDeletedGeneratorIS2_EE9SelectKeyES9_13stl_allocatorIS4_L18MemLabelIdentifier24ELi16EEE14squash_deletedEv
mhj:__ZN15dense_hashtableINSt3__24pairIK10KeyWrapperINS1_IPK9EventInfoP11Il2CppClassEEEjEES9_17ReflectionMapHashIS8_EN14dense_hash_mapIS9_jSD_NS9_14EqualsComparerINS0_8equal_toIS8_EEEENS0_9allocatorISB_EEE9SelectKeyESI_SK_E15set_deleted_keyERKSB_
tej:__ZN15dense_hashtableINSt3__24pairIK10KeyWrapperINS1_IPK12PropertyInfoP11Il2CppClassEEEjEES9_17ReflectionMapHashIS8_EN14dense_hash_mapIS9_jSD_NS9_14EqualsComparerINS0_8equal_toIS8_EEEENS0_9allocatorISB_EEE9SelectKeyESI_SK_ED2Ev
mWf:_Encoding_GetBytes_m3823106599
Hyf:_GregorianCalendar__ctor_m979779718
$ie:_SslClientStream__ctor_m2402546929
qEb:__ZN14SafeBinaryRead20OverrideRootTypeNameEPKc
Mcf:_DictionaryNodeEnumerator_get_Entry_m2309234501
hZi:__ZNK10KeyWrapperIPK22Il2CppGenericParameterE14EqualsComparerINSt3__28equal_toIS2_EEEclERKS3_SA_
l1:__ZN14FileCacherRead16UnlockCacheBlockEj
Vjg:_Enumerator_Dispose_m951715887_AdjustorThunk
Sze:_InternalEnumerator_1_System_Collections_IEnumerator_Reset_m521819017_AdjustorThunk
wMd:_IsolatedStorageException__ctor_m1022659452
z9:__ZN10InstancingL21OnGraphicsCapsChangedEv
$rb:__Z18Transfer_BlittableI17RemapPPtrTransferLb1E8Vector3fEvRK29SerializationCommandArgumentsR31RuntimeSerializationCommandInfo
xQh:__ZL61ClassInterfaceType_t4029497327_CustomAttributesCacheGeneratorP21CustomAttributesCache
J$f:_WaitHandle_get_Handle_m3260446580
Qkg:_Enumerator_VerifyState_m1745883925_AdjustorThunk
Mc:_emscripten_glUniform1f
oBd:_SortedList__ctor_m1261191695
kjh:_ReadOnlyCollection_1_System_Collections_IList_get_IsReadOnly_m165706550_gshared
sGg:__Z75RuntimeInvoker_Int32_t2950945753_DecimalU26_t3714369516_Int64U26_t200113976PFvvEPK10MethodInfoPvPS4_
yMc:__Z20ParseImageParametersR11UTF16StringRiRN20TextRenderingPrivate16TextFormatChangeE
vki:__ZL55CanvasScaler_t2767979955_CustomAttributesCacheGeneratorP21CustomAttributesCache
P9g:_Collection_1_RemoveItem_m2942561924_gshared
Rc:_emscripten_glUniform1i
Ptb:__Z18Transfer_BlittableI24GenerateTypeTreeTransferLb1EN4math12int3_storageEEvRK29SerializationCommandArgumentsR31RuntimeSerializationCommandInfo
j9:__Z33UnregisterDeviceEventCallbackImplPFv23UnityGfxDeviceEventTypeE
Z_e:__Z14bankers_roundff
jka:__ZN9ShaderLab16SerializedTagMapaSERKS0_
lS:__ZN11UnityEngine15CloudWebService16SessionContainer20RestoreSessionHeaderERKN4core12basic_stringIcNS2_20StringStorageDefaultIcEEEES8_RNS0_13SessionHeaderE
T$c:__ZN22UnityWebRequestManager13BackendRetainEv
scc:__ZN8Material28ApplyMaterialPropertyDrawersEv
fGj:__ZN6il2cpp2os12Cryptography23GetCryptographyProviderEv
OZi:__ZN24dense_hashtable_iteratorINSt3__24pairIK10KeyWrapperIPK22Il2CppGenericParameterEP11Il2CppClassEES6_N6il2cpp5utils11PointerHashIS4_EEN14dense_hash_mapIS6_S9_SE_NS6_14EqualsComparerINS0_8equal_toIS5_EEEENS0_9allocatorISA_EEE9SelectKeyESJ_SL_E30advance_past_empty_and_deletedEv
aD:__ZN11UnityEngine9Animation27CreateAvatarBindingConstantER9TransformPKN7mecanim9animation14AvatarConstantERNS3_6memory9AllocatorE
CQc:__ZN2UI14CanvasRenderer13SyncTransformENS0_8SyncFlagEb
WYe:_MaskableGraphic_get_onCullStateChanged_m3331479633
yKg:__Z151RuntimeInvoker_RuntimeObject_Int32_t2950945753_RuntimeObject_ObjectU5BU5DU26_t712384779_RuntimeObject_RuntimeObject_RuntimeObject_ObjectU26_t2146539884PFvvEPK10MethodInfoPvPS4_
pec:__ZN9BlobWriteC2ER13dynamic_arrayIhLj16EE24TransferInstructionFlags19BuildTargetPlatform
i8c:_CanvasUpdateRegistry__ctor_m2005397069
x3h:__ZL77Input_t1431474628_CustomAttributesCacheGenerator_Input_GetAxisRaw_m2316819917P21CustomAttributesCache
z$:__ZN14MessageHandler3GetEv
y3d:_MonoMethodInfo_GetCallingConvention_m3156036493
AXe:_LayoutGroup_SetLayoutInputForAxis_m2458344630
dd:_emscripten_glAttachShader
Loa:__ZN9GfxDevice13SetActiveTierE12GraphicsTier
_fd:_Image__cctor_m1927508576
s_f:_SendOrPostCallback_EndInvoke_m2485163446
Bka:__ZNSt3__26vectorIN4core12basic_stringIcNS1_20StringStorageDefaultIcEEEENS_9allocatorIS5_EEE6assignIPS5_EENS_9enable_ifIXaasr21__is_forward_iteratorIT_EE5valuesr16is_constructibleIS5_NS_15iterator_traitsISC_E9referenceEEE5valueEvE4typeESC_SC_
cGj:__ZN6il2cpp6icalls8mscorlib6System21CurrentSystemTimeZone15GetTimeZoneDataEiPP11Il2CppArrayS6_
LKe:_Enumerator__ctor_m1195706188_gshared
vIh:__ZL76String_t_CustomAttributesCacheGenerator_String_Concat_m1809518182____values0P21CustomAttributesCache
mob:__Z18Transfer_BlittableI14SafeBinaryReadLb0E11QuaternionfEvRK29SerializationCommandArgumentsR31RuntimeSerializationCommandInfo
BBb:__Z18Transfer_BlittableI18StreamedBinaryReadILb0EELb1E12PropertyNameEvRK29SerializationCommandArgumentsR31RuntimeSerializationCommandInfo
QW:_tlsf_walk_heap
nKg:__Z49RuntimeInvoker_Void_t1185182177_OpCode_t123070264PFvvEPK10MethodInfoPvPS4_
nlj:__ZNK15dense_hashtableINSt3__24pairIK10KeyWrapperIP11Il2CppClassES4_EES5_N6il2cpp8metadata16SZArrayClassHashEN14dense_hash_mapIS5_S4_SA_NS5_14EqualsComparerINS9_19SZArrayClassCompareEEENS0_9allocatorIS7_EEE9SelectKeyESE_SG_E10test_emptyERK24dense_hashtable_iteratorIS7_S5_SA_SI_SE_SG_E
rTg:__Z69RuntimeInvoker_Void_t1185182177_Int32_t2950945753_HitInfo_t3229609740PFvvEPK10MethodInfoPvPS4_
s9h:__ZL59AnimatorClipInfo_t3156717155_CustomAttributesCacheGeneratorP21CustomAttributesCache
vFd:_Convert_ToUInt32_m3592050311
kb:invoke_vif
Cri:_Component_GetComponents_TisRuntimeObject_m2416546752_gshared
lb:invoke_vid
LDe:_InternalEnumerator_1__ctor_m2202456613_AdjustorThunk
yMj:__ZNSt3__212basic_stringIcNS_11char_traitsIcEENS_9allocatorIcEEE6insertEjPKc
nb:invoke_vii
cNb:__ZNK12ImageFilters8DoRenderER17ShaderPassContextP13RenderTextureS3_RKNSt3__26vectorI11ImageFilterNS4_9allocatorIS6_EEEE
Iif:_X509Certificate2Enumerator__ctor_m1083666285
NLg:__Z82RuntimeInvoker_Boolean_t97287965_SByte_t1669577662_RuntimeObject_SByte_t1669577662PFvvEPK10MethodInfoPvPS4_
kpa:__ZN9GfxDevice32UpdateStereoViewProjectionMatrixE21MonoOrStereoscopicEye
bSc:__Z41CanvasRenderer_CUSTOM_DisableRectClippingP12Il2CppObject
g8f:_Dictionary_2__ctor_m1324730059_gshared
jTd:_MonoType_GetConstructorImpl_m441167626
Gad:_DefaultControls_CreateRawImage_m4219873755
rHh:_Collection_1_IsFixedSize_m3709118201_gshared
nPa:__ZN25SingleBlockMemoryFileDataD0Ev
lLa:__ZNSt3__26vectorI14ConstantStringNS_9allocatorIS1_EEE6assignINS_11__wrap_iterIPS1_EEEENS_9enable_ifIXaasr21__is_forward_iteratorIT_EE5valuesr16is_constructibleIS1_NS_15iterator_traitsISA_E9referenceEEE5valueEvE4typeESA_SA_
ojh:_ReadOnlyCollection_1_CopyTo_m586367390_gshared
gS:__ZN11UnityEngine15CloudWebService16SessionContainer21ConvertFromFolderTimeERKN4core12basic_stringIcNS2_20StringStorageDefaultIcEEEEPjPt
pid:_CodeAccessPermission_Equals_m1555575992
Zpb:__ZNSt3__26vectorI8GUIStyle13stl_allocatorIS1_L18MemLabelIdentifier1ELi16EEE7reserveEj
neh:_ReadOnlyCollection_1_Contains_m3869904379_gshared
dnj:__ZN6il2cpp6icalls8mscorlib6System9Threading6Thread27GetSerializedCurrentCultureEP12Il2CppThread
JPf:__ZN21InterfaceFuncInvoker2IibbE6InvokeEjP11Il2CppClassP12Il2CppObjectbb
hge:_Context_set_ReadSequenceNumber_m2154909392
Tld:_RijndaelTransform_SubByte_m3037693507
h1b:__Z31CalculateHierarchyTransformType23TransformAccessReadOnly
T2b:__Z13RegisterClassI11TimeManagerEvv
AJ:__ZN4FMOD8ChannelI11setPositionEjj
Frg:_Input_INTERNAL_CALL_GetTouch_m3481893561
_Bj:_GC_set_fl_marks
Qfb:__ZNSt3__26vectorIN30RuntimeInitializeOnLoadManager15ClassMethodInfoE13stl_allocatorIS2_L18MemLabelIdentifier13ELi16EEE7reserveEj
npa:__ZN9GfxDevice17SetStereoViewportE15StereoscopicEyeRK5RectTIiE
Rfa:__ZN17BaseObjectManager13StaticDestroyEPv
dLa:__ZNK12TLSAllocatorI14StackAllocatorE24GetBookKeepingMemorySizeEv
YVi:_CanvasRenderer_INTERNAL_CALL_GetColor_m597074473
OIe:_Comparer_1__cctor_m3891417387_gshared
bZf:_UTF7Decoder_GetChars_m3413809261
h4h:__ZL81Shader_t4151988712_CustomAttributesCacheGenerator_Shader_PropertyToID_m1030499873P21CustomAttributesCache
DJh:__ZL70RuntimeArray_CustomAttributesCacheGenerator_Array_get_Rank_m3448755881P21CustomAttributesCache
e_d:_EnumBuilder_GetEvent_m4074915332
Bh:_sysconf
mBg:_Vector3_get_forward_m3100859705
xFf:_Double_Equals_m2309369974_AdjustorThunk
sI:__ZN4FMOD6Reverb13setPropertiesEPK22FMOD_REVERB_PROPERTIES
skj:__ZN15dense_hashtableINSt3__24pairIK10KeyWrapperIP11Il2CppClassES4_EES5_N6il2cpp8metadata16SZArrayClassHashEN14dense_hash_mapIS5_S4_SA_NS5_14EqualsComparerINS9_19SZArrayClassCompareEEENS0_9allocatorIS7_EEE9SelectKeyESE_SG_E5clearEv
POb:__ZN9DepthPass13PrepareSubsetEjRK10RenderNodeifRK17ShaderReplaceData
Auf:_String_IndexOf_m3406607758
oja:__ZN9ShaderLab20SerializedSubProgram16TextureParameter8TransferI14SafeBinaryReadEEvRT_
jae:_ASN1__ctor_m3517592395
abc:__Z35SetMeshComponentFromArrayFromScriptR4Mesh30InternalScriptingShaderChannel34InternalScriptingVertexChannelTypei17ScriptingArrayPtri
Fla:__ZN4PPtrI6ShaderE8TransferI19StreamedBinaryWriteILb0EEEEvRT_
oSf:_Array_InternalArray__ICollection_Add_TisCustomAttributeNamedArgument_t287865710_m4157175270_gshared
lq:__ZN4core20StringStorageDefaultIcE6assignEPKcj
Z4f:_UInt64_System_IConvertible_ToUInt64_m2135047981_AdjustorThunk
D9d:_BigInteger_ModPow_m3776562770
ytj:__ZN15dense_hashtableINSt3__24pairIK10KeyWrapperIP12Il2CppObjectEN6il2cpp2gc9CachedCCWEEES5_NS7_5utils11PointerHashIS3_EEN14dense_hash_mapIS5_S9_SD_NS5_14EqualsComparerINS0_8equal_toIS4_EEEENS0_9allocatorISA_EEE9SelectKeyESI_SK_E3endEv
tLd:_BinaryReader_ReadInt64_m939370142
gie:_RecordProtocol_ProcessChangeCipherSpec_m15839975
wwd:_ArrayList_IndexOf_m305368842
UCh:_List_1_Add_m2996644200_gshared
QXb:__ZN6Camera6SetFarEf
Ate:_FormatterConverter_ToBoolean_m1680758923
Oza:__ZN6prcoreL12RemapGenericI17TexFormatABGR888817TexFormatARGB8888EEvPKNS_9InnerInfoE
hQa:__ZN11GameManager17MainThreadCleanupEv
fCd:_Stack_get_Count_m2258661097
cch:_ReadOnlyCollection_1__ctor_m1345363288_gshared
ITc:__Z50Register_UnityEngine_UISystemProfilerApi_EndSamplev
B6f:_Dictionary_2_System_Collections_ICollection_get_SyncRoot_m2020472285_gshared
EFe:_InternalEnumerator_1_System_Collections_IEnumerator_Reset_m1775752715_AdjustorThunk
Jb:invoke_vffff
b1h:__ZL91Application_t1852185770_CustomAttributesCacheGenerator_Application_get_isPlaying_m100394690P21CustomAttributesCache
hme:_ConfigHandler_OnProcessingInstruction_m4212209262
Iyh:_List_1_Reverse_m3290386475_gshared
zue:_SerializationCallbacks_GetSerializationCallbacks_m2939476649
Zzd:_Hashtable__cctor_m4112166779
sGc:_UNITY_tt_slot_init
YKb:__ZZ23InitPlayerLoopCallbacksvEN41PostLateUpdateUpdateResolutionRegistrator7ForwardEv
jOe:_KeyCollection_GetEnumerator_m1168803204_gshared
mDb:__Z25scripting_array_class_get17ScriptingClassPtrj
Yrc:__ZL22Transfer_ManagedObjectI9JSONWriteLb1EEvRK29SerializationCommandArgumentsR31RuntimeSerializationCommandInfo
xF:__ZNK10SampleClip22GetTypeVirtualInternalEv
wqa:__ZN9GfxDevice20DestroyRenderSurfaceER12ObjectHandleI17RenderSurface_TagP17RenderSurfaceBaseE
cCd:_Stack__ctor_m2602729586
OEg:__Z77RuntimeInvoker_Byte_t1134296376_RuntimeObject_Int32_t2950945753_RuntimeObjectPFvvEPK10MethodInfoPvPS4_
xXh:__ZL81Convert_t2465617642_CustomAttributesCacheGenerator_Convert_ToDateTime_m1031474510P21CustomAttributesCache
CJa:__ZN9GfxDevice22UpdateComputeResourcesEjPK9TextureIDPK16TextureDimensionPKijPKjjPK15ComputeBufferIDS7_PK20ComputeBufferCounterjSC_S2_S5_S9_SF_
a2:__ZN12_GLOBAL__N_15qAsinEff
_og:_Display__ctor_m3105658851
QAd:_HashValues_get_IsSynchronized_m3461082747
hze:_InternalEnumerator_1_System_Collections_IEnumerator_get_Current_m2629988057_AdjustorThunk
fLa:__ZN12TLSAllocatorI14StackAllocatorE13ThreadCleanupEv
ZF:__Z18GetAudioManagerPtrv
Mze:_InternalEnumerator_1_Dispose_m2043273260_AdjustorThunk
Hzj:__ZThn4_N6il2cpp2vm13ComObjectBase16MarshalInterfaceEP13Il2CppIStreamRK10Il2CppGuidPvjS7_j
RDd:_Convert_ToDouble_m996590115
_Fb:__Z27FindActiveTransformWithPathPKc
tth:_List_1_System_Collections_IEnumerable_GetEnumerator_m3790284976_gshared
rgh:_ReadOnlyCollection_1_System_Collections_IList_Remove_m4169110229_gshared
y3f:_UInt16_ToString_m3020002356
YXe:_LayoutRebuilder_LayoutComplete_m68578143
s8i:_RequiredByNativeCodeAttribute__ctor_m119855101
gSa:__ZN12BaseRendererD0Ev
I$b:__Z29StdTemplateConversionFunctionIbyEbPvR14SafeBinaryRead
Old:_RijndaelManaged_GenerateKey_m1736287430
SGi:_GUIStyle_get_fixedWidth_m2576616348
Hei:__ZL90PointerEventData_t3807901092_CustomAttributesCacheGenerator_U3ClastPressU3Ek__BackingFieldP21CustomAttributesCache
EBd:_SortedList_Find_m3363512987
vY:__ZNK6Camera7GetNearEv
W_d:_GenericTypeParameterBuilder_GetConstructorImpl_m863833310
iNe:_Enumerator_get_Current_m3687673883_AdjustorThunk
JCa:__ZN7ApiGLES11UnmapBufferEjN2gl12BufferTargetE
Vzj:__ZN6il2cpp5utilsL24Utf32CharToSurrogatePairEjRA2_Ds
r3a:__Z25GetNextAllowedTextureSizeib13TextureFormat
SFb:__ZN20LocalFileSystemWebGL4CopyER13FileEntryDataS1_
PU:__ZN19CloudServiceHandler6RetainEv
VHj:__ZN6il2cpp2os9Semaphore4WaitEb
Vch:_ReadOnlyCollection_1_System_Collections_IList_IndexOf_m198887188_gshared
Unc:__Z36Event_CUSTOM_Internal_SetNativeEventPv
tYf:_UTF32Encoding_GetBytes_m3180303867
K3:__ZN12BaseRenderer20FlattenToRenderQueueER15RenderNodeQueueRK20DeprecatedSourceData
bDh:_List_1_CopyTo_m4034402519_gshared
Feh:_ReadOnlyCollection_1_System_Collections_IList_Clear_m2007013334_gshared
Gib:__Z34scripting_liveness_calculation_endPv
svj:__ZN6il2cpp2os6ThreadC2Ev
zve:_U3CGetEnumeratorU3Ec__Iterator0_System_Collections_Generic_IEnumeratorU3CTU3E_get_Current_m1566629109_gshared
_Af:_DateTimeOffset_get_UtcDateTime_m1021718282_AdjustorThunk
Kfa:__ZN16memory_pool_implILi64EE15AutoPoolWrapper12UninitializeEPv
jQi:__ZL25UnresolvedVirtualCall_136P12Il2CppObject19Vector2_t2156229523PK10MethodInfo
Lu:__ZN21AnimationClipPlayable22ProcessAnimationNoClipEPK35AnimationPlayableEvaluationConstantPK32AnimationPlayableEvaluationInputP33AnimationPlayableEvaluationOutput
icf:_HybridDictionary_get_Count_m1166314536
nvi:_TlsStream_Write_m1412844442
ytc:__Z18Transfer_BlittableI8JSONReadLb0E8Vector3fEvRK29SerializationCommandArgumentsR31RuntimeSerializationCommandInfo
vlj:__ZN6il2cpp2vm6Thread6DetachEP12Il2CppThread
Qvi:_GeneralNames_get_DNSNames_m3788548987
Nsh:_List_1_AddCollection_m2026039026_gshared
nJc:_Render_Single_Pass
OOi:__ZL24UnresolvedVirtualCall_59P12Il2CppObjectS0_aPK10MethodInfo
Cxc:__GLOBAL__sub_I_runtime_dynamics_2_cpp
MUi:_Hacker_OnUserInput_m1095014035
$fd:_SerializationEntry_t648286436_marshal_pinvoke
gD:__ZN7mecanim8skeleton30SkeletonBuildReverseIndexArrayEPiPKiPKNS0_8SkeletonES6_
Zlc:__Z19GetGUIBlendMaterialv
QRd:_Math_Round_m3018379666
KMg:__Z41RuntimeInvoker_Boolean_t97287965_IntPtr_tPFvvEPK10MethodInfoPvPS4_
hwj:__ZN6il2cpp2os10ThreadImpl5SleepEjb
Ebh:_ReadOnlyCollection_1_System_Collections_Generic_IListU3CTU3E_set_Item_m519295790_gshared
Xch:_ReadOnlyCollection_1_System_Collections_IList_Remove_m1965826685_gshared
RUc:__ZN11UnityEngine9Analytics15UserCustomEvent3AddEPKcb
aEf:_Delegate_CreateDelegate_m1051651521
SNf:_PlayableHandle_IsPlayableOfType_TisRuntimeObject_m503495943_AdjustorThunk
aUj:_glBindSampler__wrapper
$Pa:__ZNSt3__26vectorIN20ArchiveStorageHeader12StorageBlockE13stl_allocatorIS2_L18MemLabelIdentifier55ELi16EEE8__appendEj
Kf:_emscripten_set_mouseup_callback
Qsg:_Mathf_Clamp_m3350697880
rJa:__ZN9GfxDevice27SetRandomWriteTargetTextureEi9TextureID
n9f:_Dictionary_2_System_Collections_Generic_ICollectionU3CSystem_Collections_Generic_KeyValuePairU3CTKeyU2CTValueU3EU3E_Contains_m3033743418_gshared
_Lg:__Z165RuntimeInvoker_Void_t1185182177_UInt32U26_t3735378166_Int32_t2950945753_UInt32U26_t3735378166_Int32_t2950945753_Int32_t2950945753_Int32_t2950945753_Int32_t2950945753PFvvEPK10MethodInfoPvPS4_
Dsh:_List_1_System_Collections_IList_Remove_m3140917266_gshared
fWf:_Encoding_get_DecoderFallback_m1525880676
zSh:__ZL59ITrackingHandler_t1244553475_CustomAttributesCacheGeneratorP21CustomAttributesCache
XAi:_CompositeExpression__ctor_m2434860303
Sjd:_DSASignatureDeformatter__ctor_m2759753186
Ajf:_X509ChainElementCollection_System_Collections_IEnumerable_GetEnumerator_m3829089536
D8g:_Collection_1_System_Collections_IEnumerable_GetEnumerator_m801406918_gshared
QZb:__ZNK18ScreenManagerWebGL8GetWidthEv
S4i:__ZN6il2cpp2vm13MetadataCache33GetFieldDefaultValueDataFromIndexEi
uF:__ZN10SampleClipD2Ev
knh:_InvokableCall_1_remove_Delegate_m790146436_gshared
fmh:_Predicate_1_Invoke_m2389850270_gshared
gwj:__ZN6il2cpp2os10ThreadImpl13SetWaitObjectEPNS0_5posix15PosixWaitObjectE
$hb:__Z13GetGISettingsv
t5g:_Collection_1_RemoveAt_m1813368096_gshared
zU:__ZN11UnityEngine15CloudWebService20WebRequestRestClientC2Ev
LBc:_cff_cmap_unicode_init
YLf:_Array_InternalArray__ICollection_Contains_TisRuntimeObject_m4067783231_gshared
o1:__ZN14FileCacherRead13GetFileLengthEv
koh:_UnityAction_1_EndInvoke_m542551745_gshared
WFh:_Collection_1_IsValidItem_m3080586124_gshared
zbd:_DropdownItem_set_text_m3702712387
K8c:_ClipperRegistry_Register_m2407166513
_Kj:_readlink
Pej:__ZN15dense_hashtableINSt3__24pairIK10KeyWrapperINS1_IPK9EventInfoP11Il2CppClassEEEjEES9_17ReflectionMapHashIS8_EN14dense_hash_mapIS9_jSD_NS9_14EqualsComparerINS0_8equal_toIS8_EEEENS0_9allocatorISB_EEE9SelectKeyESI_SK_E12resize_deltaEjj
t3d:_MonoCMethod_Invoke_m2700167622
VAd:_KeyMarker__cctor_m2590194914
HKe:_Enumerator_Reset_m627751027_AdjustorThunk
AQi:__ZL25UnresolvedVirtualCall_153P12Il2CppObjectaPK10MethodInfo
acb:__ZNK6Sprite9GetBoundsE8Vector2fbb
xTa:__ZNK19RenderEventsContext21CleanupCommandBuffersEv
lUi:_TextGenerator_PopulateWithErrors_m1222498386
Bfh:_ReadOnlyCollection_1_System_Collections_Generic_ICollectionU3CTU3E_Clear_m2102011098_gshared
qua:__ZN11ContextGLES6CreateEi
NVi:_WillRenderCanvases_BeginInvoke_m1804779886
CTg:__Z52RuntimeInvoker_Boolean_t97287965_Vector3_t3722313464PFvvEPK10MethodInfoPvPS4_
_vh:_List_1_set_Capacity_m3382070520_gshared
VXg:__Z68RuntimeInvoker_Boolean_t97287965_RuntimeObject_ObjectU26_t2146539884PFvvEPK10MethodInfoPvPS4_
wWe:_U3CMouseDragOutsideRectU3Ec__Iterator1_Dispose_m267465418
_Cf:_Decimal_CompareTo_m3502307243_AdjustorThunk
pCb:__Z19TransferField_ArrayI18StreamedBinaryReadILb0EE27Converter_SimpleNativeClassI17AnimationCurveTplIfEEEvRK23StaticTransferFieldInfoR31RuntimeSerializationCommandInfoRT0_
IKa:__ZN14StackAllocator16FrameMaintenanceEb
TMa:__Z18ReadStringFromFilePN4core17string_with_labelILi1EEERKNS_12basic_stringIcNS_20StringStorageDefaultIcEEEE
Y_e:_Scrollbar_get_value_m760470106
AY:__ZNK10GameObject20QueryComponentByTypeEPKN5Unity4TypeE
nCf:_Decimal_System_IConvertible_ToInt32_m1488426794_AdjustorThunk
qSd:_MonoCustomAttrs_IsUserCattrProvider_m2878058089
_hi:__ZL71InputField_t3762917431_CustomAttributesCacheGenerator_m_HideMobileInputP21CustomAttributesCache
D2a:__ZN11TextureData5ResetEv
Agc:__Z53Register_UnityEngine_GameObject_get_activeInHierarchyv
Npf:_ToBase64Transform_InternalTransformFinalBlock_m360524956
Fod:_ActivationContext_Dispose_m2038725770
Rrb:__Z35Transfer_Blittable_FixedBufferFieldI17RemapPPtrTransferiEvRK29SerializationCommandArgumentsR31RuntimeSerializationCommandInfo
R_:__ZL30InitializeCoreScriptingClassesv
bhh:_ReadOnlyCollection_1_Contains_m1699971074_gshared
mDe:_InternalEnumerator_1_Dispose_m630370856_AdjustorThunk
Hg:_glBlitFramebuffer
SNa:__ZN17ArchiveFileSystem5TouchER13FileEntryData
qOe:_KeyCollection_System_Collections_Generic_IEnumerableU3CTKeyU3E_GetEnumerator_m818204647_gshared
Mrb:__Z35Transfer_Blittable_SingleValueFieldI14SafeBinaryReadhEvRT_R17GeneralMonoObjectRK23StaticTransferFieldInfo
M9b:__ZN12CachedWriter15CompleteWritingEv
I1a:__ZNK12CubemapArray22GetTypeVirtualInternalEv
Qn:FUNCTION_TABLE_vif
Rn:FUNCTION_TABLE_vid
Sqi:_Dictionary_2_Do_CopyTo_TisInt32_t2950945753_TisRuntimeObject_m213146570_gshared
Tn:FUNCTION_TABLE_vii
Rib:__Z40scripting_liveness_calculation_from_root18ScriptingObjectPtrPv
cgd:_SerializationEntry__ctor_m1411687997_AdjustorThunk
NRh:__ZL65IContributeDynamicSink_t2255997386_CustomAttributesCacheGeneratorP21CustomAttributesCache
F_a:__ZN7Texture23VirtualRedirectTransferER24GenerateTypeTreeTransfer
oLc:_UNITY_FT_Set_Transform
V5b:__ZNK32RendererMaterialAnimationBinding12SetPPtrValueERKN11UnityEngine9Animation10BoundCurveEi
Bsj:__ZN6il2cpp8metadata15GenericMetadata20RegisterGenericClassEP18Il2CppGenericClass
FTj:_glDeleteFramebuffers__wrapper
SEh:_Collection_1_System_Collections_IList_get_IsFixedSize_m2620019318_gshared
vIg:__Z220RuntimeInvoker_Boolean_t97287965_RuntimeObject_Int32U26_t1369213839_Int32_t2950945753_Int32_t2950945753_Int32_t2950945753_RuntimeObject_SByte_t1669577662_Int32_t2950945753_ContractionU26_t961830454_ContextU26_t3937453398PFvvEPK10MethodInfoPvPS4_
PQe:_Enumerator__ctor_m920120158_AdjustorThunk
dvg:_Playable_Equals_m328753404_AdjustorThunk
xNh:__ZL78TextInfo_t3810425522_CustomAttributesCacheGenerator_TextInfo_Clone_m3838580862P21CustomAttributesCache
Tzc:_cff_blend_build_vector
Cff:_WebHeaderCollection_ToString_m1263025316
VCe:_InternalEnumerator_1_MoveNext_m1015797184_gshared
t6b:__ZZN12MeshRenderer15InitializeClassEvEN29FunctorImpl_134kDidDeleteMesh4CallEPviR11MessageData
SKg:__Z91RuntimeInvoker_Void_t1185182177_RuntimeObject_RuntimeObject_RuntimeObject_Int32_t2950945753PFvvEPK10MethodInfoPvPS4_
B5d:_GetterAdapter_Invoke_m3767885970
$wh:_List_1__ctor_m747758800_gshared
Cyi:_X509Extension_get_Oid_m4107042796
_$d:_MethodBuilder_get_ReflectedType_m3038768129
Zvf:_String_CreateString_m2818852475
Bjg:_Enumerator_get_Current_m335492761_AdjustorThunk
O4a:__ZN28EnlightenRendererInformation8TransferI14SafeBinaryReadEEvRT_
uWi:_CanvasRenderer_get_hasMoved_m2236392341
xug:_MessageEvent__ctor_m1231650089
Dha:__ZNK15Lz4Decompressor16DecompressMemoryEPKvPjPvS2_
ZRd:_MemberAccessException__ctor_m3713703094
$Sa:__Z11IsCoroutine18ScriptingMethodPtrRK22CommonScriptingClasses
rOh:__ZL117GenericTypeParameterBuilder_t1988827940_CustomAttributesCacheGenerator_GenericTypeParameterBuilder_Equals_m3260957994P21CustomAttributesCache
V1b:__ZN4core8hash_mapINS_12basic_stringIcNS_20StringStorageDefaultIcEEEE10vector_setI4PPtrI11SpriteAtlasENSt3__24lessIS8_EE13stl_allocatorIS8_L18MemLabelIdentifier81ELi16EEENS_4hashIS4_EENS9_8equal_toIS4_EEEixERKS4_
xh:_glGetAttribLocation
COi:__ZL24UnresolvedVirtualCall_47P12Il2CppObject20DateTime_t3738529785PK10MethodInfo
F0a:__Z35UnityPropertySheet_MakeSortedColorsRKNSt3__23mapIN9ShaderLab16FastPropertyNameE10ColorRGBAfNS_4lessIS2_EENS_9allocatorINS_4pairIKS2_S3_EEEEEER10vector_mapIS2_S3_S5_NS6_INS7_IS2_S3_EEEEE
S_h:__ZL72PKCS12_t4101533061_CustomAttributesCacheGenerator_U3CU3Ef__switchU24map8P21CustomAttributesCache
eEc:_UNITY_tt_face_load_os2
s1h:__ZL90Coroutine_t3829159415_CustomAttributesCacheGenerator_Coroutine_ReleaseCoroutine_m809189848P21CustomAttributesCache
erb:__Z29Transfer_Blittable_ArrayFieldI14SafeBinaryRead8Vector4fEvRT_R9ArrayInfoRK23StaticTransferFieldInfo
$Wd:_Default_check_arguments_m3882727959
dAd:_Hashtable_get_IsSynchronized_m1426775249
vZf:_UTF8Encoding_GetMaxCharCount_m3762459613
kYd:_ModuleBuilder_RegisterToken_m4166846047
PKb:__ZZ23InitPlayerLoopCallbacksvEN51PostLateUpdateUpdateCustomRenderTexturesRegistrator7ForwardEv
f_e:_RawImage_OnPopulateMesh_m1115858855
WJg:__Z74RuntimeInvoker_MonoFileType_t221779374_IntPtr_t_MonoIOErrorU26_t1548853198PFvvEPK10MethodInfoPvPS4_
e5i:__ZN6il2cpp2vm13MetadataCache25GetStringLiteralFromIndexEi
fpd:_Hashtable_ToPrime_m33531354
hv:__ZN7mecanim9animation12EvaluateClipEPKNS0_4ClipEPKNS0_9ClipInputEPNS0_10ClipMemoryEPNS0_10ClipOutputE
j9g:_Collection_1_IsSynchronized_m1117613618_gshared
bOe:_KeyCollection_System_Collections_Generic_ICollectionU3CTKeyU3E_Remove_m2555909644_gshared
crb:__ZN15SerializeTraitsI13dynamic_arrayI5RectTIfELj4EEE19ResizeSTLStyleArrayERS3_i
D2f:_TypeInitializationException__ctor_m3546444694
Fcc:__ZNK9Transform16GetLocalRotationEv
SMe:_Enumerator_System_Collections_IEnumerator_Reset_m4278714428_gshared
Z4a:__ZN4PPtrI11LightProbesE8TransferI18StreamedBinaryReadILb0EEEEvRT_
ZT:__ZN11UnityEngine15CloudWebService23WebRequestUploadHandler17ConsumeUploadDataEj
_5i:__ZNSt3__214__split_bufferI6pollfdRNS_9allocatorIS1_EEEC2EjjS4_
Sle:_CrossAppDomainData_get_DomainID_m3516796532
DWg:__Z68RuntimeInvoker_Void_t1185182177_Single_t1397266774_SByte_t1669577662PFvvEPK10MethodInfoPvPS4_
nOd:_MemoryStream_set_Position_m3169779190
IWb:__ZN13RenderManager29SetCurrentCameraAndStackStateEP6CameraP25CameraStackRenderingState
v3c:_ExecuteEvents_get_scrollHandler_m2659345019
WRa:__ZNSt3__26__treeINS_12__value_typeIjN4core12basic_stringIcNS2_20StringStorageDefaultIcEEEEEENS_19__map_value_compareIjS7_NS_4lessIjEELb1EEE13stl_allocatorIS7_L18MemLabelIdentifier7ELi16EEE7destroyEPNS_11__tree_nodeIS7_PvEE
glj:__ZN15dense_hashtableINSt3__24pairIK10KeyWrapperINS1_IP11Il2CppClassjEEES4_EES6_N6il2cpp8metadata14ArrayClassHashEN14dense_hash_mapIS6_S4_SB_NS6_14EqualsComparerINSA_17ArrayClassCompareEEENS0_9allocatorIS8_EEE9SelectKeyESF_SH_E12resize_deltaEjj
Wh:_JS_WebRequest_Release
GS:__ZN11UnityEngine15CloudWebService14DataErrorEventD0Ev
Xoj:__ZN6il2cpp6icalls8mscorlib6System4Type20internal_from_handleEi
R0h:__ZL72RequiredByNativeCodeAttribute_t4130846357_CustomAttributesCacheGeneratorP21CustomAttributesCache
gne:_Context__ctor_m254302079
xsj:__ZN6il2cpp8metadata15GenericMetadata7InflateEPK19Il2CppGenericMethodPK20Il2CppGenericContext
Paf:_KeyGeneratedEventHandler_EndInvoke_m3057317531
d4a:__ZN19ShaderPropertySheet16SetArrayPropertyEN9ShaderLab16FastPropertyNameENS_12PropertyTypeEPKvj
G$e:_Selectable_FindSelectable_m2348614027
fad:_FloatTween_get_duration_m1227071020
etj:__ZN15dense_hashtableINSt3__24pairIK10KeyWrapperIP12Il2CppObjectEN6il2cpp2gc9CachedCCWEEES5_NS7_5utils11PointerHashIS3_EEN14dense_hash_mapIS5_S9_SD_NS5_14EqualsComparerINS0_8equal_toIS4_EEEENS0_9allocatorISA_EEE9SelectKeyESI_SK_E16reset_thresholdsEv
gcd:_DropdownItem_OnPointerEnter_m1492957598
QOc:__ZN2UI11CanvasGroup23VirtualRedirectTransferER19StreamedBinaryWriteILb0EE
K5d:_ParameterInfo_get_ParameterType_m4197803362
sJg:__Z91RuntimeInvoker_Void_t1185182177_Int32U26_t1369213839_Int32U26_t1369213839_Int32_t2950945753PFvvEPK10MethodInfoPvPS4_
rnc:__ZN8GUIState8EndOnGUIEv
zGc:_UNITY_TT_Get_VMetrics
hFg:__Z49RuntimeInvoker_Char_t3634460470_Int16_t2552820387PFvvEPK10MethodInfoPvPS4_
cTg:__Z69RuntimeInvoker_Color_t2555686324_Color_t2555686324_Single_t1397266774PFvvEPK10MethodInfoPvPS4_
beg:_EqualityComparer_1__ctor_m2283513024_gshared
Mxd:_SimpleEnumerator__cctor_m2844299657
DRd:_LocalDataStoreSlot__ctor_m4104083971
Loi:_Array_qsort_TisVector3_t3722313464_m4117329442_gshared
Kgh:_ReadOnlyCollection_1_System_Collections_Generic_IListU3CTU3E_RemoveAt_m3849058645_gshared
JMi:_AudioSource_ReadExtensionName_m725112169
Qxi:_X509CertificateEnumerator_System_Collections_IEnumerator_Reset_m2039524926
hPg:__Z128RuntimeInvoker_Void_t1185182177_RuntimeObject_BooleanU26_t4125257963_SByte_t1669577662_Int32U26_t1369213839_Int32U26_t1369213839PFvvEPK10MethodInfoPvPS4_
hxa:__ZN7Texture21GetMasterTextureLimitEv
JQe:_Enumerator_Dispose_m3503748991_AdjustorThunk
xYb:__Z12CanAddScriptR10GameObject17ScriptingClassPtrPS1_S2_
Phj:__ZN6il2cpp2vm10Reflection12HasAttributeEP12Il2CppObjectP11Il2CppClass
hVg:__Z103RuntimeInvoker_Boolean_t97287965_RuntimeObject_Vector2_t2156229523_RuntimeObject_Vector3U26_t3464235976PFvvEPK10MethodInfoPvPS4_
Hjh:_Comparison_1_BeginInvoke_m3263247262_gshared
V9:__ZN9ShaderLabL25StaticInitializeShaderLabEPv
U:Math_max
prh:_List_1_Sort_m1293013666_gshared
tPi:__ZL24UnresolvedVirtualCall_92P12Il2CppObjectPK10MethodInfo
pij:_il2cpp_class_get_methods
Hzg:_HitInfo_SendMessage_m1343099429_AdjustorThunk
Stb:__Z18Transfer_BlittableI24GenerateTypeTreeTransferLb0EN4math12int2_storageEEvRK29SerializationCommandArgumentsR31RuntimeSerializationCommandInfo
GEf:_StackTrace_get_trace_m1194606084
ztf:_Single_CompareTo_m2785801815_AdjustorThunk
Avj:__ZN6il2cpp2os6Thread16GetCurrentThreadEv
aVf:_Array_InternalArray__Insert_TisUILineInfo_t4195266810_m3191124053_gshared
S7b:__ZN10GameObject13ComponentPair15SetComponentPtrEPN5Unity9ComponentE
ZRj:_glBlitFramebuffer__wrapper
G2b:__Z13RegisterClassI10MeshFilterEvv
ugi:__ZL75U3COnFinishSubmitU3Ec__Iterator0_t3413438900_CustomAttributesCacheGeneratorP21CustomAttributesCache
aSa:__ZN10TagManager8TransferI19StreamedBinaryWriteILb0EEEEvRT_
kib:__ZN11PreloadData23VirtualRedirectTransferER18StreamedBinaryReadILb0EE
O7a:__ZN13sorted_vectorI4PPtrI11SpriteAtlasENSt3__24lessIS2_EE13stl_allocatorIS2_L18MemLabelIdentifier1ELi16EEE21sort_clear_duplicatesEv
Pvg:_PropertyNameUtils_PropertyNameFromString_Injected_m1259736140
hhi:__ZL60FontData_t746620069_CustomAttributesCacheGenerator_m_MinSizeP21CustomAttributesCache
Sud:_Char_System_IConvertible_ToDateTime_m3564102661
Vbj:__ZN15dense_hashtableINSt3__24pairIK10KeyWrapperINS1_IPK9FieldInfoP11Il2CppClassEEEjEES9_17ReflectionMapHashIS8_EN14dense_hash_mapIS9_jSD_NS9_14EqualsComparerINS0_8equal_toIS8_EEEENS0_9allocatorISB_EEE9SelectKeyESI_SK_E16reset_thresholdsEv
XOe:_ShimEnumerator_get_Key_m317201915_gshared
H6a:__ZN6Sprite17MainThreadCleanupEv
fSj:_glBlendFuncSeparate__wrapper
fL:__ZN10AudioMixer14UpdateMuteSoloEv
j0:__Z17GetMonoManagerPtrv
nRa:__ZN9Transform35SetLocalPositionWithoutNotificationERKN4math7_float3Ey
fbi:__ZL87GUIUtility_t1868551600_CustomAttributesCacheGenerator_U3CguiIsExitingU3Ek__BackingFieldP21CustomAttributesCache
QOg:__Z69RuntimeInvoker_UInt64_t4134040092_Int32_t2950945753_SByte_t1669577662PFvvEPK10MethodInfoPvPS4_
Xi:_JS_Eval_ClearTimeout
H_e:_Raycast2DCallback_Invoke_m1500574149
TBa:__ZN7ApiGLES16SetPatchVerticesEi
$Ci:_CharacterClass_Compile_m3296067317
rxj:__ZN6il2cpp2gc16GarbageCollector16InvokeFinalizersEv
$td:_Byte_System_IConvertible_ToInt64_m285584218_AdjustorThunk
ixg:_Rect_get_size_m477575021_AdjustorThunk
DZi:__ZN6il2cpp2vm5Class20FromGenericParameterEPK22Il2CppGenericParameter
mV:__ZN19CloudServiceHandler11FlushEventsEv
hfa:__ZN15GlobalCallbacksC2Ev
oqe:_MethodCall_System_Runtime_Remoting_Messaging_IInternalMessage_set_Uri_m1919576807
qSf:_Array_InternalArray__ICollection_Add_TisLabelData_t360167391_m1648183135_gshared
JJe:_Comparer_1_System_Collections_IComparer_Compare_m2016223770_gshared
Xli:__ZL57BaseMeshEffect_t2440176439_CustomAttributesCacheGeneratorP21CustomAttributesCache
fOg:__Z74RuntimeInvoker_DateTime_t3738529785_DateTime_t3738529785_Int32_t2950945753PFvvEPK10MethodInfoPvPS4_
DMc:_UNITY_FT_New_Memory_Face
L5g:_Collection_1_System_Collections_IList_IndexOf_m3271188411_gshared
HKc:__ZN20TextRenderingPrivate21TextMeshGeneratorImpl5FlushEv
$Nd:_MonoIO_GetFileStat_m678141354
vCc:_UNITY_FT_Load_Sfnt_Table
Mad:__Z15CastclassSealedP12Il2CppObjectP11Il2CppClass
i2b:__ZN15ApplicationInfo14GetSandboxTypeEv
Trb:__Z18Transfer_BlittableI17RemapPPtrTransferLb1EhEvRK29SerializationCommandArgumentsR31RuntimeSerializationCommandInfo
PCf:_Decimal_IsZero_m4250358244_AdjustorThunk
pRd:_UnmanagedMemoryStream_get_CanRead_m3770815400
Pxj:__ZNSt3__26vectorIjNS_9allocatorIjEEE26__swap_out_circular_bufferERNS_14__split_bufferIjRS2_EE
pXb:__ZN16ReflectionProbes40UpdateRealtimeReflectionProbesTimeslicedEv
Brj:__ZNSt3__26__treeINS_12__value_typeIP24Il2CppReflectionAssemblyPvEENS_19__map_value_compareIS3_S5_NS_4lessIS3_EELb1EEENS_9allocatorIS5_EEE16__insert_node_atEPNS_16__tree_node_baseIS4_EERSF_SF_
FCf:_Decimal_u64_m3374804932
W2f:_UInt16_System_IConvertible_ToInt32_m1950778303_AdjustorThunk
zfb:__ZNK30RuntimeInitializeOnLoadManager22GetTypeVirtualInternalEv
p2i:__ZN15dense_hashtableINSt3__24pairIK10KeyWrapperIN6il2cpp5utils13dynamic_arrayIPK10Il2CppTypeLj4EEEEPFvvEEESA_NS3_8metadata19Il2CppSignatureHashEN14dense_hash_mapISA_SD_SG_NSA_14EqualsComparerINSF_22Il2CppSignatureCompareEEENS0_9allocatorISE_EEE9SelectKeyESK_SM_E12resize_deltaEjj
B5b:__ZN16ReflectionProbes15InitializeClassEv
yJh:__ZL71Enum_t4135868527_CustomAttributesCacheGenerator_Enum_Format_m2588135982P21CustomAttributesCache
H3i:__ZNK15dense_hashtableINSt3__24pairIK10KeyWrapperIPK11Il2CppClassEPKcEES6_N6il2cpp5utils11PointerHashIS3_EEN14dense_hash_mapIS6_S9_SE_NS6_14EqualsComparerINS0_8equal_toIS5_EEEENS0_9allocatorISA_EEE9SelectKeyESJ_SL_E12test_deletedEj
JKh:__ZL107ArrayReadOnlyList_1_t221793636_CustomAttributesCacheGenerator_ArrayReadOnlyList_1_GetEnumerator_m2012327150P21CustomAttributesCache
Ceh:_ReadOnlyCollection_1_System_Collections_ICollection_CopyTo_m2527663815_gshared
bri:_Dictionary_2_Do_ICollectionCopyTo_TisKeyValuePair_2_t3699644050_m4159638770_gshared
wqj:__ZN6il2cpp2vm5Image9GetCorlibEv
SCg:_Vector3_get_left_m2428419009
kA:__ZN8Animator13BatchedFKPassERK13dynamic_arrayIP14PlayableOutputLj4EE
SPh:__ZL50Pointer_t2088917139_CustomAttributesCacheGeneratorP21CustomAttributesCache
PCj:_GC_reclaim_uninit
shb:__ZN16LightmapSettings11UnshareDataEv
i3c:_ExecuteEvents_Execute_m113814934
Eba:__ZN13RuntimeStaticINSt3__23mapIN4core12basic_stringIcNS2_20StringStorageDefaultIcEEEES6_NS0_4lessIS6_EE13stl_allocatorINS0_4pairIKS6_S6_EEL18MemLabelIdentifier13ELi16EEEELb0EE13StaticDestroyEPv
yoi:_Array_qsort_TisColor32_t2600501292_m1362211604_gshared
QJe:_Enumerator_System_Collections_IEnumerator_get_Current_m2979767597_AdjustorThunk
old:_MD5CryptoServiceProvider_ProcessFinalBlock_m2241588515
Q0e:_ScrollRect_GetBounds_m449872505
Wj:_glIsVertexArray
Qnd:_SmallXmlParser_Read_m3485223434
LGd:_Int16_Parse_m2276856944
ZCe:_InternalEnumerator_1__ctor_m3443175323_AdjustorThunk
i6:__ZN5Unity9Component8TransferI18StreamedBinaryReadILb0EEEEvRT_
vPh:__ZL131CustomAttributeData_t1084486650_CustomAttributesCacheGenerator_CustomAttributeData_t1084486650____ConstructorArguments_PropertyInfoP21CustomAttributesCache
ea:invoke_fff
PKj:_mbsinit
MQj:b14
xlf:_RepeatContext_get_Expression_m255006542
$Nc:__ZN2UI6Canvas17MainThreadCleanupEv
wza:__ZN6prcoreL12RemapGenericI17TexFormatARGB155517TexFormatRGBA8888EEvPKNS_9InnerInfoE
B$i:__ZN13Il2CppHashMapIPK19Il2CppGenericMethodPK26Il2CppGenericMethodIndicesN6il2cpp8metadata23Il2CppGenericMethodHashENS7_26Il2CppGenericMethodCompareENSt3__29allocatorINSA_4pairIK10KeyWrapperIS2_ES5_EEEEEC2EjRKS8_RKS9_
Q1d:_TypeBuilder_HasElementTypeImpl_m1871001960
Esf:_SecurityFrame__ctor_m2140076703_AdjustorThunk
Acg:_DefaultComparer_Equals_m2458578172_gshared
vDa:__ZN7ApiGLES13CreateProgramEv
PKe:_Enumerator_VerifyState_m4003066746_gshared
wxa:__ZN4crnd12crn_unpackerD2Ev
hk:_emscripten_glTexImage2D
DIe:_Comparer_1_System_Collections_IComparer_Compare_m2537217645_gshared
F_:__ZN18ScriptingArguments9AddStringEPKc
hDj:_setup_header
Thg:_KeyValuePair_2__ctor_m3953574590_AdjustorThunk
Rvd:_Char_ToString_m3588025615
dOf:_SetPropertyUtility_SetStruct_TisAspectMode_t3417192999_m1565063249_gshared
AGh:_Collection_1_get_Count_m2853642267_gshared
Oeh:_ReadOnlyCollection_1_System_Collections_IList_get_IsReadOnly_m375760151_gshared
ESh:__ZL53IEnvoyInfo_t2180778907_CustomAttributesCacheGeneratorP21CustomAttributesCache
V8e:_CryptoConvert_ToCapiKeyBlob_m3371450375
Eya:__ZL23stbir__resize_arbitraryPvPKviiiS_iiiffffPfiij14stbir_datatype12stbir_filterS4_10stbir_edgeS5_16stbir_colorspace
kub:__Z18Transfer_BlittableI24GenerateTypeTreeTransferLb1E8Vector4fEvRK29SerializationCommandArgumentsR31RuntimeSerializationCommandInfo
QQj:b18
sk:_pthread_detach
v5i:__ZN6il2cpp2vm19SocketPollingThread7RunLoopEv
Ocd:_FontUpdateTracker_UntrackText_m1981515690
hyh:_List_1_System_Collections_ICollection_get_SyncRoot_m1937857346_gshared
hmi:__ZL64AnalyticsEventTracker_t2285229262_CustomAttributesCacheGeneratorP21CustomAttributesCache
u8b:__ZN15DirectorManager20ScheduleGraphDestroyERK14HPlayableGraph
cDb:__ZNSt3__213__stable_sortIRN10vector_mapI17ScriptingClassPtrPKN5Unity4TypeENS_4lessIS2_EENS_9allocatorINS_4pairIS2_S6_EEEEE13value_compareENS_11__wrap_iterIPSB_EEEEvT0_SJ_T_NS_15iterator_traitsISJ_E15difference_typeEPNSM_10value_typeEi
E5e:_SimpleCollator_FillSurrogateSortKeyRaw_m725998232
lzh:_List_1_AddEnumerable_m1284696147_gshared
Pef:_IPAddress_Equals_m1823478787
Zne:_Context_CreateNewContext_m3053563976
h3h:__ZL83RectOffset_t1369453676_CustomAttributesCacheGenerator_RectOffset_set_top_m713260669P21CustomAttributesCache
cla:__ZN9ShaderLab25SerializedTextureProperty8TransferI24GenerateTypeTreeTransferEEvRT_
Iqi:_Array_swap_TisVector2_t2156229523_TisVector2_t2156229523_m345092822_gshared
TFh:_Collection_1_get_Item_m1773274637_gshared
Hfj:__ZN6il2cpp2gc19AppendOnlyGCHashMapINSt3__24pairIPK14Il2CppAssemblyP11Il2CppClassEEP24Il2CppReflectionAssembly17ReflectionMapHashIS9_ENS2_8equal_toIS9_EEEC2Ev
OEc:_tt_cmap14_char_next
Xwb:__Z18Transfer_BlittableI19StreamedBinaryWriteILb0EELb0EdEvRK29SerializationCommandArgumentsR31RuntimeSerializationCommandInfo
fla:__ZN11NamedObject8TransferI18StreamedBinaryReadILb0EEEEvRT_
HGa:__ZNK17GPUSkinPoseBuffer12GetBoneCountEv
Npg:_InvokableCall_remove_Delegate_m1376110510
qAd:_Hashtable_Clear_m3112193608
dZf:_UTF8Encoding_InternalGetByteCount_m771565606
bqj:__ZNK15dense_hashtableINSt3__24pairIK10KeyWrapperIP14Il2CppIUnknownEjEES5_N6il2cpp5utils11PointerHashIS3_EEN14dense_hash_mapIS5_jSB_NS5_14EqualsComparerINS0_8equal_toIS4_EEEENS0_9allocatorIS7_EEE9SelectKeyESG_SI_E12test_deletedEj
a9e:_DSAManaged_GenerateKeyPair_m2236915969
uuh:_List_1_System_Collections_IList_Remove_m3654336679_gshared
n3h:__ZL51GUILayer_t2783472903_CustomAttributesCacheGeneratorP21CustomAttributesCache
eMh:__ZL56IDictionary_2_t3177279192_CustomAttributesCacheGeneratorP21CustomAttributesCache
gPf:_Array_InternalArray__IEnumerable_GetEnumerator_TisUInt64_t4134040092_m1382862496_gshared
Pk:_emscripten_glMatrixMode
sZe:_MaskableGraphic_UnityEngine_UI_IClippable_get_gameObject_m1739855597
PJf:_NumberFormatInfo_get_RawPercentGroupSizes_m97703232
Vs:__ZN8Animator23VirtualRedirectTransferER18StreamedBinaryReadILb0EE
PKf:_Guid__ctor_m3562600567_AdjustorThunk
byf:_DateTime_System_IConvertible_ToInt16_m3239820399
aS:__ZN11UnityEngine15CloudWebService14DataDispatcher16PrepareDataBlockERNS0_16SessionContainerE
cIa:__ZN18GfxFramebufferGLES5ClearE13GfxClearFlagsRK10ColorRGBAffib
RRf:_MonoProperty_StaticGetterAdapterFrame_TisRuntimeObject_m4131530968_gshared
GBb:__ZL26Transfer_SimpleNativeClassI18StreamedBinaryReadILb0EE10RectOffsetLb0EEvRK29SerializationCommandArgumentsR31RuntimeSerializationCommandInfo
WBe:_InternalEnumerator_1_get_Current_m2316281569_gshared
yOb:__ZL12DepthPassJobPN21GfxDeviceAsyncCommand10ArgScratchEPKNS_3ArgE
qja:__ZNSt3__26vectorIN9ShaderLab20SerializedSubProgram16TextureParameterENS_9allocatorIS3_EEE6assignINS_11__wrap_iterIPS3_EEEENS_9enable_ifIXaasr21__is_forward_iteratorIT_EE5valuesr16is_constructibleIS3_NS_15iterator_traitsISC_E9referenceEEE5valueEvE4typeESC_SC_
xQe:_Transform_1_EndInvoke_m1701794896_gshared
Rpc:__ZN5Unity9rapidjson6WriterI16TempBufferWriterNS0_4UTF8IcEES4_13JSONAllocatorE11WriteDoubleEd
L_f:_Thread_SetCachedCurrentUICulture_m1729523031
ZRc:__Z55Register_UnityEngine_CanvasGroup_get_ignoreParentGroupsv
iWe:_InputField_get_minHeight_m2822964544
e3b:__Z13RegisterClassI19LowerResBlitTextureEvv
Iee:_ClientContext_set_ClientHelloProtocol_m4189379912
Qm:FUNCTION_TABLE_iiiiiiiiiiii
Qyh:_List_1_get_Item_m1686506901_gshared
cOe:_KeyCollection_System_Collections_Generic_IEnumerableU3CTKeyU3E_GetEnumerator_m1982109872_gshared
mUa:__ZN16GraphicsSettingsD0Ev
n$b:__Z29StdTemplateConversionFunctionIshEbPvR14SafeBinaryRead
n:cttz_i8
Hzc:_UNITY_FT_GlyphLoader_Add
dNi:_AudioListener_INTERNAL_CALL_ReadExtensionPropertyName_m330480156
sQh:__ZL62ActivationArguments_t4219999170_CustomAttributesCacheGeneratorP21CustomAttributesCache
eRg:__Z53RuntimeInvoker_Interval_t1802865632_Int32_t2950945753PFvvEPK10MethodInfoPvPS4_
fFd:_Convert_ToUInt16_m867476252
Ml:_emscripten_glViewport
uzj:__ZN6il2cpp6icalls8mscorlib6System15MonoCustomAttrs17IsDefinedInternalEP12Il2CppObjectP20Il2CppReflectionType
Pjg:_Enumerator__ctor_m40451936_AdjustorThunk
ATg:__Z53RuntimeInvoker_Vector3_t3722313464_Single_t1397266774PFvvEPK10MethodInfoPvPS4_
CXi:_SkeletonBone_t4134054672_marshal_pinvoke_back
VRh:__ZL115SynchronizationAttribute_t3946661254_CustomAttributesCacheGenerator_SynchronizationAttribute_IsContextOK_m324067792P21CustomAttributesCache
qXd:_CustomAttributeData_get_Constructor_m489601093
dBc:_cff_parse_font_bbox
N4e:_MSCompatUnicodeTable_Category_m1834196420
Aec:__Z35Application_Get_Custom_PropIsEditorv
Qdb:__ZN14PlayerSettings23VirtualRedirectTransferER18StreamedBinaryReadILb0EE
Emi:__ZL105TrackableField_t1772682203_CustomAttributesCacheGenerator_TrackableField__ctor_m3758796351____validTypes0P21CustomAttributesCache
vFf:_Double_CompareTo_m3151899116
oIj:__ZN6il2cpp2os5Event5ResetEv
LTb:__Z26CombineDepthNormalsTextureRK17RenderLoopContextR13dynamic_arrayI16RenderObjectDataLj4EE
xEc:_tt_name_ascii_from_other
GLi:_ToggleGroup__ctor_m3308114662
isj:__ZN6il2cpp8metadata15GenericMetadata17InflateParametersEPK13ParameterInfohPK20Il2CppGenericContextb
nSa:__ZN6Camera13AwakeFromLoadE17AwakeFromLoadMode
Zpi:_Array_Sort_TisUILineInfo_t4195266810_m3737783007_gshared
ivg:_PlayableAsset_Internal_CreatePlayable_m2550417712
bw:__ZNK17AnimationPlayable27GetNextCompatibleDescendantEi
WZh:__ZL59ResolveEventArgs_t1779456501_CustomAttributesCacheGeneratorP21CustomAttributesCache
vKa:__ZN4PPtrI6SpriteE8TransferI18StreamedBinaryReadILb0EEEEvRT_
Rsd:_Convert_ToInt16_m3324557887
wvi:_TlsStream_Write_m188217214
pzb:__ZN4PPtrI9Texture2DE8TransferI18StreamedBinaryReadILb1EEEEvRT_
FGb:__Z25SetNeedToPerformRenderingb
JMj:__ZN10__cxxabiv116__shim_type_infoD2Ev
XBi:_Alternation__ctor_m1629257642
M4f:_UInt64_System_IConvertible_ToInt32_m949522652_AdjustorThunk
AQa:__ZN10GameObjectD2Ev
NOb:__ZN14qsort_internal30FindAndMovePivotToLastPositionIP15RODataDepthPassi17ROSorterDepthPassEEvT_S4_T0_T1_
$Rd:_MethodAccessException__ctor_m3411913042
hOi:__ZL24UnresolvedVirtualCall_26P12Il2CppObjectS0_iiPK10MethodInfo
rfg:_EqualityComparer_1__ctor_m1767308726_gshared
yWb:__ZN12CullingGroup10SendEventsEPK17CullingGroupEventj
a6i:__ZNSt3__214__split_bufferI6pollfdRNS_9allocatorIS1_EEED2Ev
TJf:_NumberFormatInfo_get_PerMilleSymbol_m1360140831
Rce:_EncryptedData_get_EncryptionAlgorithm_m905084934
ROf:_Array_InternalArray__IEnumerable_GetEnumerator_TisCustomAttributeTypedArgument_t2723150157_m1333528454_gshared
K4c:_PointerInputModule__ctor_m3728889932
MX:__ZThn32_NK8Renderer8GetLayerEv
mkg:_Enumerator_System_Collections_IEnumerator_Reset_m2915500989_gshared
iBc:_cff_parse_vsindex
Yqj:__ZN30dense_hashtable_const_iteratorINSt3__24pairIK10KeyWrapperINS1_IPKcS4_EEEiEES6_24NamespaceAndNamePairHashN14dense_hash_mapIS6_iS9_NS6_14EqualsComparerI26NamespaceAndNamePairEqualsEENS0_9allocatorIS8_EEE9SelectKeyESD_SF_E30advance_past_empty_and_deletedEv
XGd:_Int32_ValidDigit_m1059003769
nXj:_emscripten_glTexParameterfv__wrapper
o_h:__ZL54MemberFilter_t426314064_CustomAttributesCacheGeneratorP21CustomAttributesCache
gXe:_LayoutGroup_get_rectTransform_m442863741
tob:__Z18Transfer_BlittableI14SafeBinaryReadLb1E9BoundsIntEvRK29SerializationCommandArgumentsR31RuntimeSerializationCommandInfo
gjj:_il2cpp_method_get_param_count
jcc:__ZN10systeminfo19ISOToSystemLanguageERN4core12basic_stringIcNS0_20StringStorageDefaultIcEEEE
zej:__ZNK15dense_hashtableINSt3__24pairIK10KeyWrapperINS1_IPK12PropertyInfoP11Il2CppClassEEEjEES9_17ReflectionMapHashIS8_EN14dense_hash_mapIS9_jSD_NS9_14EqualsComparerINS0_8equal_toIS8_EEEENS0_9allocatorISB_EEE9SelectKeyESI_SK_E3endEv
bsi:_LayoutGroup_SetProperty_TisAxis_t3613393006_m3591044743_gshared
z5f:_UnauthorizedAccessException__ctor_m40101894
OJh:__ZL69RuntimeArray_CustomAttributesCacheGenerator_Array_SetValue_m282347242P21CustomAttributesCache
AIc:_ps_dimension_done
PNc:__Z46Register_UnityEngine_TextGenerator_Dispose_cppv
WKg:__Z67RuntimeInvoker_GCHandle_t3351438187_RuntimeObject_Int32_t2950945753PFvvEPK10MethodInfoPvPS4_
AFf:_Double_Parse_m4153729520
Iph:_IndexedSet_1_AddUnique_m861843892_gshared
r$h:__ZL59HybridDictionary_t4070033136_CustomAttributesCacheGeneratorP21CustomAttributesCache
t4a:__ZN16LightmapSettings8TransferI14SafeBinaryReadEEvRT_
Doa:__ZN17BufferManagerGLES13ReleaseBufferEP14DataBufferGLES
Hde:_CipherSuite_Write_m1172814058
AQd:_SynchronizedWriter_Write_m301917713
N8:__ZN9profiling6MarkerC2EPKc13ProfilerGroupNS0_5FlagsE
gIe:__ZN21InterfaceFuncInvoker1Ii22UILineInfo_t4195266810E6InvokeEjP11Il2CppClassP12Il2CppObjectS0_
tuc:__Z18Transfer_BlittableI8JSONReadLb1EjEvRK29SerializationCommandArgumentsR31RuntimeSerializationCommandInfo
oYd:_ConstructorBuilder_get_IsCompilerContext_m3364441562
Nog:_Debug_LogWarning_m3752629331
Wih:_ReadOnlyCollection_1_System_Collections_Generic_IListU3CTU3E_RemoveAt_m4037795630_gshared
qMg:__Z117RuntimeInvoker_Void_t1185182177_RuntimeObject_Int32_t2950945753_Int32_t2950945753_Int32_t2950945753_Int32_t2950945753PFvvEPK10MethodInfoPvPS4_
wii:__ZL81U3CMouseDragOutsideRectU3Ec__Iterator1_t3909241878_CustomAttributesCacheGeneratorP21CustomAttributesCache
E7c:_U3COnFinishSubmitU3Ec__Iterator0_Reset_m3632769946
fp:stackSave
wU:__ZN5Unity9rapidjson15GenericDocumentINS0_4UTF8IcEE13JSONAllocatorNS0_12CrtAllocatorEE6StringEPKcjb
H9c:_ColorTween_get_targetColor_m1724075482_AdjustorThunk
VIc:_ps_dimension_end
nlc:__Z41Register_UnityEngine_Mesh_Internal_Createv
anb:__ZN16MemoryFileSystem5TouchER13FileEntryData
gsj:__ZNK15dense_hashtableI10KeyWrapperIP18Il2CppGenericClassES3_N6il2cpp8metadata22Il2CppGenericClassHashEN14dense_hash_setIS3_S6_NS3_14EqualsComparerINS5_25Il2CppGenericClassCompareEEENSt3__29allocatorIS3_EEE8IdentityESA_SD_E12test_deletedERK30dense_hashtable_const_iteratorIS3_S3_S6_SF_SA_SD_E
Pkg:_Enumerator_Dispose_m2498245804_AdjustorThunk
zCd:_Console_Open_m3077673205
Xxi:_X509StoreManager_get_CurrentUser_m4040993045
XXb:__ZN6Camera9SetAspectEf
RQf:_Array_InternalArray__IndexOf_TisDateTime_t3738529785_m2463359116_gshared
va:invoke_viiffiii
rUi:_Display_Start_m3623905221
TAe:_InternalEnumerator_1_MoveNext_m4138204635_gshared
tyj:__ZN15dense_hashtableINSt3__24pairIK10KeyWrapperIPK19Il2CppGenericMethodEP10MethodInfoEES6_N6il2cpp8metadata23Il2CppGenericMethodHashEN14dense_hash_mapIS6_S9_SD_NS6_14EqualsComparerINSC_26Il2CppGenericMethodCompareEEENS0_9allocatorISA_EEE9SelectKeyESH_SJ_E12resize_deltaEjj
yVj:_emscripten_glBindVertexArray__wrapper
_uj:__ZN6il2cpp6icalls8mscorlib6System4Enum19get_underlying_typeEP20Il2CppReflectionType
JDi:_Parser_IsECMAScript_m674158805
rF:__ZN10ObjectPoolIN4FMOD3DSPENS0_4DSPIEE7GetFreeEi
vRa:__ZN9Transform37InitializeTransformHierarchyRecursiveER18TransformHierarchyRii
SHa:__ZN26SinglePassStereoSupportExt23SetupStereoMatrixParamsE21MonoOrStereoscopicEye24BuiltinShaderMatrixParamRK10Matrix4x4f
ipi:_Array_Resize_TisVector2_t2156229523_m1564542050_gshared
KKj:_fscanf
x$c:__ZNK25UnityWebRequestJavaScript16GetUploadedBytesEv
$P:__Z46AudioListener_CUSTOM_GetNumExtensionPropertiesP12Il2CppObject
G6i:__ZN6il2cpp6icalls8mscorlib6SystemL16CheckMemberMatchI9FieldInfoNS_5utils10functional6FilterINSt3__212basic_stringIcNS8_11char_traitsIcEENS8_9allocatorIcEEEENS5_13VmStringUtils23CaseInsensitiveComparerEEEEEbPKT_PK11Il2CppClassSN_iRKT0_
g$:__Z14GetMonoManagerv
cRf:_Array_InternalArray__IndexOf_TisMonoResource_t4103430009_m1351751258_gshared
vtj:__ZN6il2cpp2gc16GarbageCollector12RunFinalizerEPvS2_
uHf:_FieldAccessException__ctor_m3583219052
jkc:__Z57Register_UnityEngine_Transform_INTERNAL_set_localPositionv
L5h:__ZL105RectTransform_t3704657025_CustomAttributesCacheGenerator_RectTransform_INTERNAL_get_anchorMax_m1239315619P21CustomAttributesCache
Hsa:__ZN13GfxDeviceGLES26SetRandomWriteTargetBufferEi15ComputeBufferID
gDj:_GC_split_block
dpi:_Array_Resize_TisUICharInfo_t75501106_m3903846016_gshared
Hfh:_ReadOnlyCollection_1_System_Collections_Generic_ICollectionU3CTU3E_get_IsReadOnly_m3887826072_gshared
qej:__ZNK15dense_hashtableINSt3__24pairIK10KeyWrapperINS1_IPK12PropertyInfoP11Il2CppClassEEEjEES9_17ReflectionMapHashIS8_EN14dense_hash_mapIS9_jSD_NS9_14EqualsComparerINS0_8equal_toIS8_EEEENS0_9allocatorISB_EEE9SelectKeyESI_SK_E8min_sizeEjj
DKb:__ZZ23InitPlayerLoopCallbacksvEN49EarlyUpdateResetFrameStatsAfterPresentRegistrator7ForwardEv
hLj:_poll
Jfh:_ReadOnlyCollection_1_System_Collections_IEnumerable_GetEnumerator_m1671097018_gshared
k5f:_UInt64_ToString_m1529093114_AdjustorThunk
Nji:__ZL85Selectable_t3250028441_CustomAttributesCacheGenerator_Selectable_IsPressed_m907486548P21CustomAttributesCache
B8d:_TypeLibImportClassAttribute__ctor_m2302178978
m6e:_Escape_t3294788190_marshal_pinvoke
CVe:_InputField_OnUpdateSelected_m1118869681
Aqj:__ZN6il2cpp2vmL36AddNestedTypesToNametoClassHashTableEP40Il2CppNameToTypeDefinitionIndexHashTablePKcRKNSt3__212basic_stringIcNS5_11char_traitsIcEENS5_9allocatorIcEEEEP11Il2CppClass
jgd:_SerializationException__ctor_m3131447373
Gxa:__ZN4crnd12crn_unpacker11unpack_dxt1EPPhjjj
Tbc:__ZNK11ICallString6ToUTF8Ev
L1g:__Z39RuntimeInvoker_MonoResource_t4103430009PFvvEPK10MethodInfoPvPS4_
JZi:__ZN15dense_hashtableINSt3__24pairIK10KeyWrapperIPK22Il2CppGenericParameterEP11Il2CppClassEES6_N6il2cpp5utils11PointerHashIS4_EEN14dense_hash_mapIS6_S9_SE_NS6_14EqualsComparerINS0_8equal_toIS5_EEEENS0_9allocatorISA_EEE9SelectKeyESJ_SL_E15insert_noresizeERKSA_
VPe:_Transform_1_Invoke_m2468053724_gshared
fLg:__Z51RuntimeInvoker_Void_t1185182177_TimeSpan_t881159249PFvvEPK10MethodInfoPvPS4_
OOb:__ZNSt3__211__sift_downIR17ROSorterDepthPassP15RODataDepthPassEEvT0_S5_T_NS_15iterator_traitsIS5_E15difference_typeES5_
c0a:__ZN18UnityPropertySheet11UnityTexEnvC2Ev
tec:__ZNSt3__214__split_bufferIPN9BlobWrite11TypeContextENS_9allocatorIS3_EEE10push_frontERKS3_
zpd:_ArgumentException__ctor_m3200406061
EA:__ZN8Animator17ApplyOnAnimatorIKEiRNS_11AnimatorJobE
w1:__ZN12FileAccessor4ReadEyyPvPy
MCb:__Z29Transfer_Blittable_ArrayFieldI18StreamedBinaryReadILb0EE11QuaternionfEvRT_R9ArrayInfoRK23StaticTransferFieldInfo
GAh:_List_1_set_Capacity_m2777925136_gshared
ixc:__ZN11UnityEngine9Analytics18RenderingInfoEvent13SetFrameStatsERK13dynamic_arrayIjLj4EEjjj
yXb:__ZN13RenderTexture9SetHeightEi
su:__ZN7mecanim9animation17ClearMotionOutputEPNS0_18AnimationNodeStateE
tee:_CipherSuiteCollection_get_IsFixedSize_m3127823890
GXa:__ZN16LevelGameManager8TransferI24GenerateTypeTreeTransferEEvRT_
dHe:_InternalEnumerator_1_System_Collections_IEnumerator_get_Current_m3537550566_gshared
X_e:_Scrollbar_UpdateVisuals_m2492252165
Nwi:_PKCS12_get_Keys_m2165478388
qnj:__ZN6il2cpp6icalls8mscorlib6System2IO6MonoIO17GetFileAttributesEP12Il2CppStringPi
Fkd:_HMACMD5__ctor_m3008609295
Rzf:_DateTime__ParseAmPm_m3478436123
vAf:_DateTime_ToString_m2992030064_AdjustorThunk
qFc:_tt_cmap8_char_index
e$:__Z24scripting_class_get_name17ScriptingClassPtr
jPd:_Stream_WriteByte_m1519852120
dMi:_VerticalLayoutGroup_CalculateLayoutInputHorizontal_m1404590745
mca:__ZN13RuntimeStaticI15GUIEventManagerLb0EE13StaticDestroyEPv
cTd:_ShortComparer_Compare_m1881262465
kqb:__Z29Transfer_Blittable_ArrayFieldI14SafeBinaryReadjEvRT_R9ArrayInfoRK23StaticTransferFieldInfo
o1g:__Z53RuntimeInvoker_Keyframe_t4206410242_Int32_t2950945753PFvvEPK10MethodInfoPvPS4_
he:_emscripten_set_keydown_callback
MVf:_EncoderReplacementFallback__ctor_m1483565116
Blf:_Interpreter_IsWordChar_m2858055765
nAd:_Hashtable_CopyTo_m2905447224
E1:__ZN12FileAccessorC2Ev
q0g:__Z96RuntimeInvoker_Void_t1185182177_BooleanU5BU5DU26_t3454195888_Int32_t2950945753_Int32_t2950945753PFvvEPK10MethodInfoPvPS4_
pfg:_EqualityComparer_1_System_Collections_IEqualityComparer_Equals_m3855544238_gshared
cuf:_String_System_IConvertible_ToDouble_m3740733360
wy:__ZThn152_NK26AnimatorControllerPlayable25GetStateMachineBehavioursEv
Dph:_EventFunction_1_Invoke_m2429482587_gshared
hgf:_AsnEncodedData_SubjectAltName_m4049949414
V7i:__ZN6il2cpp2vm7Runtime12GetConfigDirEv
cMi:_VerticalLayoutGroup__ctor_m321345421
er:__ZN4PPtrI13MonoBehaviourE8TransferI18StreamedBinaryReadILb0EEEEvRT_
Mjg:_Enumerator_MoveNext_m1177880931_AdjustorThunk
x2e:_Slider_UpdateVisuals_m3662961057
Dai:__ZL82Event_t2956885303_CustomAttributesCacheGenerator_Event_get_commandName_m4275147343P21CustomAttributesCache
jUi:_TextGenerator_Populate_m194003733
w1h:__ZL111ScriptableObject_t2528358522_CustomAttributesCacheGenerator_ScriptableObject_CreateInstanceFromType_m1997111014P21CustomAttributesCache
rZd:_DerivedType_get_FullName_m1025358827
Lid:_CryptoConfig_MapNameToOID_m2044758263
cii:__ZL70InputField_t3762917431_CustomAttributesCacheGenerator_m_OnValueChangedP21CustomAttributesCache
xHb:__ZN13RenderManager22OnWindowSizeHasChangedEv
VEb:__Z39WriteQueueForTransferSignatureIntoCacheRK31TransferFunctionScriptingTraitsRK24TransferRequestSignature17ScriptingClassPtrR23CachedSerializationDataRb
ehb:__ZN13RenderManager18UpdateAllRenderersEv
YWf:_Encoding_get_UTF8UnmarkedUnsafe_m320312322
U_f:_Thread_Thread_free_internal_m333849022
hrc:__Z35Transfer_Blittable_FixedBufferFieldI9JSONWritexEvRK29SerializationCommandArgumentsR31RuntimeSerializationCommandInfo
Vyi:_CostDelegate_BeginInvoke_m2828452701
LVc:__ZN22BaseUnityConnectClient30OnEnteringStatePausedOrStoppedEv
L7g:_Collection_1_ConvertItem_m1556170494_gshared
Gu:__ZN7mecanim5human12HumanPoseAddERNS0_9HumanPoseERKS1_S4_
pyf:_DateTime_ToUniversalTime_m1945318289
Lwd:_ArrayList_ToArray_m3827492363
P2e:_Slider_get_stepSize_m1423227661
f5f:_UInt64_Parse_m819899889
rpf:_SymmetricAlgorithm_set_IV_m3196220308
J$d:_GenericTypeParameterBuilder_GetHashCode_m852224381
rFd:_Convert_ToUInt32_m1453583008
pIf:_CompareInfo_Compare_m894311506
dRa:__Z24MergeTransformComponentsR9TransformS0_b
I1i:__ZNK15dense_hashtableI10KeyWrapperIPK19Il2CppGenericMethodES4_N6il2cpp8metadata23Il2CppGenericMethodHashEN14dense_hash_setIS4_S7_NS4_14EqualsComparerINS6_26Il2CppGenericMethodCompareEEENSt3__29allocatorIS4_EEE8IdentityESB_SE_E10test_emptyEj
t1c:_EventSystem_UpdateModules_m3643806022
oxj:__ZN6il2cpp2gc16GarbageCollector10StartWorldEv
hXi:_AnimationOffsetPlayable__cctor_m1029460816
pnh:_InvokableCall_1__ctor_m2610016537_gshared
orf:_Evidence_get_SyncRoot_m2835084965
cOf:_SetPropertyUtility_SetStruct_TisTouchScreenKeyboardType_t1530597702_m2455393348_gshared
ybg:_DefaultComparer__ctor_m2280347240_gshared
cUh:__ZL59ICryptoTransform_t2733259762_CustomAttributesCacheGeneratorP21CustomAttributesCache
wzj:__ZN6il2cpp2vm13ComObjectBase19GetRuntimeClassNameEPP15Il2CppHString__
QBb:__Z35Transfer_Blittable_FixedBufferFieldI18StreamedBinaryReadILb0EEyEvRK29SerializationCommandArgumentsR31RuntimeSerializationCommandInfo
Uj:_emscripten_glVertexAttribPointer
hNj:__ZNSt11logic_errorD0Ev
VVa:__ZNK20IntermediateRenderer12GetSceneMaskEv
IHb:__ZN14PreloadManager26UpdatePreloadingSingleStepENS_21UpdatePreloadingFlagsEi
xSi:_TweenRunner_1__ctor_m340723704_gshared
D1e:_ScrollRect_SetLayoutHorizontal_m3078869633
b5e:_SimpleCollator__ctor_m1587210019
vic:__Z57Register_UnityEngine_RectTransform_INTERNAL_set_anchorMinv
nFd:_Convert_ToUInt16_m1480956416
dza:__ZN6prcoreL25inner_stretch_i8_bilinearEPKNS_9InnerInfoE
yib:__ZL30RegisterFilteredObjectCallbackPP12Il2CppObjectiPv
sih:_ReadOnlyCollection_1_System_Collections_Generic_IListU3CTU3E_RemoveAt_m3317217538_gshared
bai:__ZL54AudioSource_t3935305588_CustomAttributesCacheGeneratorP21CustomAttributesCache
_Hb:__Z19InitializeGfxDevicev
wS:__ZN11UnityEngine15CloudWebService16SessionContainer24GetSessionHeaderJsonDataERKN4core12basic_stringIcNS2_20StringStorageDefaultIcEEEERNS2_13StringBuilderE
WYd:_DerivedType_GetEvent_m4157575360
_ba:__ZN13RuntimeStaticI21AssetReferenceStorageLb0EE13StaticDestroyEPv
Ohd:_SByte_System_IConvertible_ToType_m4075253447_AdjustorThunk
zzd:_Comparer__ctor_m2831654082
rVf:_Array_InternalArray__set_Item_TisKeyValuePair_2_t2530217319_m258011711_gshared
LWg:__Z72RuntimeInvoker_Bounds_t2266837910_RuntimeObject_Matrix4x4U26_t3606180965PFvvEPK10MethodInfoPvPS4_
jvj:__ZN6il2cpp6icalls8mscorlib6System9AppDomain22InternalGetProcessGuidEP12Il2CppString
ozc:_cf2_builder_moveTo
zYh:__ZL79Convert_t2465617642_CustomAttributesCacheGenerator_Convert_ToUInt32_m3188121845P21CustomAttributesCache
eGg:__Z48RuntimeInvoker_RuntimeObject_Decimal_t2948259380PFvvEPK10MethodInfoPvPS4_
i$f:_ThreadStart_EndInvoke_m3768045394
BNa:__ZNK17FileSystemHandler10IsReadOnlyERK13FileEntryData
N6i:__ZNSt3__214__split_bufferIP9FieldInfoRNS_9allocatorIS2_EEEC2EjjS5_
Qgd:_StreamingContext__ctor_m2604757771_AdjustorThunk
Hub:__Z18Transfer_BlittableI24GenerateTypeTreeTransferLb1EjEvRK29SerializationCommandArgumentsR31RuntimeSerializationCommandInfo
Wdj:__ZNK15dense_hashtableINSt3__24pairIK10KeyWrapperINS1_IPK11Il2CppImageP11Il2CppClassEEEjEES9_17ReflectionMapHashIS8_EN14dense_hash_mapIS9_jSD_NS9_14EqualsComparerINS0_8equal_toIS8_EEEENS0_9allocatorISB_EEE9SelectKeyESI_SK_E10test_emptyERK30dense_hashtable_const_iteratorISB_S9_SD_SM_SI_SK_E
HZi:__ZN6il2cpp2os12FastAutoLockD2Ev
_Oh:__ZL68AssemblyCopyrightAttribute_t836190902_CustomAttributesCacheGeneratorP21CustomAttributesCache
f7:__ZN11ColorRGBA328TransferI14SafeBinaryReadEEvRT_
YGh:_Collection_1_Add_m1736908447_gshared
xBc:_cff_vstore_done
sRg:__Z68RuntimeInvoker_Void_t1185182177_UInt16_t2177724958_SByte_t1669577662PFvvEPK10MethodInfoPvPS4_
pfb:__ZN15ResourceManager10Dependency8TransferI24GenerateTypeTreeTransferEEvRT_
cld:_MACTripleDES_HashFinal_m3613553534
B4f:_UInt64_System_IConvertible_ToChar_m2074245892
hZf:_UTF8Encoding_InternalGetBytes_m1965760031
Mf:_emscripten_glClearDepth
Z6b:__ZNK8GUILayer22GetTypeVirtualInternalEv
z5a:__ZN14SafeBinaryRead21TransferSTLStyleArrayINSt3__26vectorIN15QualitySettings14QualitySettingENS1_9allocatorIS4_EEEEEEvRT_17TransferMetaFlags
Lnh:_UnityAction_1__ctor_m3007623985_gshared
LNe:_KeyCollection__ctor_m2388548663_gshared
rZg:__Z56RuntimeInvoker_Boolean_t97287965_ILTokenInfo_t2325775114PFvvEPK10MethodInfoPvPS4_
odb:__ZNSt3__26vectorINS_4pairIPKN5Unity4TypeE7Hash128EENS_9allocatorIS7_EEE8__appendEj
ABc:_cff_font_load
Pvj:__GLOBAL__sub_I_LibraryLoader_cpp
Ncc:__Z13IsPathCreatedRKN4core12basic_stringIcNS_20StringStorageDefaultIcEEEE
Qgi:__ZL99Dropdown_t2274391225_CustomAttributesCacheGenerator_Dropdown_DelayedDestroyDropdownList_m2082128994P21CustomAttributesCache
Pog:_Debug_LogWarningFormat_m2535776735
Kya:__ZL22stbir__encode_scanlineP11stbir__infoiPvPfiii
N7d:_ExternalException__ctor_m2877839282
syc:__ZN20QuadTreeNodeRenderer13StaticDestroyEPv
sT:__ZN11UnityEngine15CloudWebService20WebRequestRestClient5AbortEv
VBi:_Regex_Matches_m2080913806
c4b:__ZN9Transform12CleanupClassEv
Pzg:_Sprite_get_rect_m2575211689
Asg:_Mathf_Sin_m3411839043
GMc:_UNITY_FT_Set_Pixel_Sizes
tVd:_OperatingSystem_Clone_m1122165140
tti:_GameObject_AddComponent_TisRuntimeObject_m3469369570_gshared
lka:__ZNSt3__26vectorIN9ShaderLab19SerializedSubShaderENS_9allocatorIS2_EEE26__swap_out_circular_bufferERNS_14__split_bufferIS2_RS4_EE
jA:__ZN11UnityEngine9Animation33SetGenericTransformPropertyValuesERKNS0_30AnimatorGenericBindingConstantERKN7mecanim10ValueArrayEP9Transformy
fXh:__ZL59AttributeTargets_t1784037988_CustomAttributesCacheGeneratorP21CustomAttributesCache
e5g:_Collection_1_System_Collections_IList_get_Item_m3426129749_gshared
ulj:__ZN6il2cpp2vmL24thread_cleanup_on_cancelEPv
Owh:_List_1_RemoveAll_m3165362277_gshared
C1f:_Type_type_is_subtype_of_m1406623598
kPf:_Array_InternalArray__IEnumerable_GetEnumerator_TisRaycastResult_t3360306849_m3650537473_gshared
IZf:_Thread_get_CurrentThread_m4142136012
lWa:__Z30ProcessDynamicBatchGeometryJobP25DynamicVBOGeometryJobDataj
iPb:__ZNSt3__27__sort4IRNS_6__lessI11CulledLightS2_EEPS2_EEjT0_S6_S6_S6_T_
E9i:__ZN6il2cpp2vm14TypeNameParser26ParseArrayModifierOptionalEv
$Z:__Z26scripting_object_get_class18ScriptingObjectPtr
tmj:__ZN6il2cpp6icalls8mscorlib6System10Reflection8Assembly13get_code_baseEP24Il2CppReflectionAssemblyb
$fb:__ZNSt3__26vectorIN4core12basic_stringIcNS1_20StringStorageDefaultIcEEEE13stl_allocatorIS5_L18MemLabelIdentifier13ELi16EEE7reserveEj
Tjd:_DSASignatureDeformatter__ctor_m2889130126
pjf:_X509ChainElementCollection_Clear_m2271223414
H3b:__ZNK28MonoBehaviourPropertyBinding15GenerateBindingERKN4core12basic_stringIcNS0_20StringStorageDefaultIcEEEEbRN11UnityEngine9Animation14GenericBindingE
uyg:_RectTransform_INTERNAL_set_pivot_m1160676233
FBh:_List_1_set_Item_m35836043_gshared
vji:__ZL70ScrollRect_t4137855814_CustomAttributesCacheGenerator_m_OnValueChangedP21CustomAttributesCache
gjf:_X509ChainElementCollection__ctor_m3424079155
bzi:_LinkStack_Push_m3081279930
_Le:_Enumerator_MoveNext_m1107569389_gshared
O6i:__ZNSt3__26vectorIP9FieldInfoNS_9allocatorIS2_EEE26__swap_out_circular_bufferERNS_14__split_bufferIS2_RS4_EE
yph:_UnityEvent_3_GetDelegate_m1156357290_gshared
xxj:__ZN6il2cpp6icalls8mscorlib6System11Environment15internalGetHomeEv
ECe:_InternalEnumerator_1__ctor_m4200721464_gshared
$sg:_Matrix4x4_GetHashCode_m4034747639_AdjustorThunk
Q6d:_ResourceCacheItem_t51292791_marshal_pinvoke_cleanup
qX:__ZNK5Unity9Component7GetNameEv
q7i:__ZNSt3__214__split_bufferIN6il2cpp6icalls8mscorlib6System12PropertyPairERNS_9allocatorIS5_EEEC2EjjS8_
upf:_SymmetricAlgorithm_get_KeySize_m4185004893
Puh:_List_1_GetEnumerator_m232588170_gshared
LXe:_U3CDelayedSetDirtyU3Ec__Iterator0_Reset_m160466733
iog:_Native__cctor_m1435623442
Yzh:_List_1_System_Collections_IList_Remove_m1070694895_gshared
qGi:_LayoutCache__ctor_m3885940174
b6a:__ZN13ScreenManagerD0Ev
$Wi:_AnimationMotionXToDeltaPlayable_GetHandle_m1319190040_AdjustorThunk
wB:__ZN7mecanim8skeleton26SkeletonPoseComputeGlobalQEPKNS0_8SkeletonEPKNS0_13SkeletonPoseTIN4math4trsXEEEPS7_ii
A4f:_UInt64_System_IConvertible_ToByte_m1501504925_AdjustorThunk
cUi:_TextGenerator_Invalidate_m1072346986
fhe:_TlsClientHello_ProcessAsTls1_m2549285167
c3g:__Z74RuntimeInvoker_Boolean_t97287965_UIVertex_t4057497605_UIVertex_t4057497605PFvvEPK10MethodInfoPvPS4_
ngh:_ReadOnlyCollection_1_System_Collections_IList_Clear_m3591436538_gshared
k0e:_ScrollRect_set_decelerationRate_m723367336
YA:__ZN9BlobWrite8TransferI22OffsetPtrArrayTransferIiEEEvRT_PKc17TransferMetaFlags
hxf:_EncoderExceptionFallback_Equals_m2760188920
Vsb:__Z18Transfer_BlittableI17RemapPPtrTransferLb1EjEvRK29SerializationCommandArgumentsR31RuntimeSerializationCommandInfo
Dmf:_RIPEMD160Managed_HashCore_m2350629432
ZJ:__ZN4FMOD6System7releaseEv
Fwb:__Z18Transfer_BlittableI19StreamedBinaryWriteILb0EELb1E8BitFieldEvRK29SerializationCommandArgumentsR31RuntimeSerializationCommandInfo
mtd:_Boolean_CompareTo_m3665076258
xuf:_String_Split_m3580120853
paf:_PrivateKeyInfo__ctor_m2811023496
$0:__Z18PathToAbsolutePathRKN4core12basic_stringIcNS_20StringStorageDefaultIcEEEE
r1d:_PropertyBuilder_GetCustomAttributes_m2917594003
lHi:_GUILayoutUtility_LayoutFromEditorWindow_m2914699782
X8d:_BigInteger_SetBit_m1723423691
bYg:__Z78RuntimeInvoker_RuntimeObject_ObjectU26_t2146539884_RuntimeObject_RuntimeObjectPFvvEPK10MethodInfoPvPS4_
YLh:__ZL65X509ExtensionCollection_t609554708_CustomAttributesCacheGeneratorP21CustomAttributesCache
pUc:__ZN21UnityAnalyticsManager15ThreadedCleanupEv
mya:__ZL13BlitImageImplR14ImageReferenceiiRKS_NS_10ColorSpaceENS_8BlitModeEb
A8b:__ZN15DirectorManager17AcquireOutputNodeEv
vAa:__ZN6prcoreL17RemapGenericFloatI18TexFormatRGBAFloat17TexFormatRGBFloatEEvPKNS_9InnerInfoE
wti:_GameObject_GetComponentInChildren_TisRuntimeObject_m1310240902_gshared
w7h:__ZL69PersistentCall_t3407714124_CustomAttributesCacheGenerator_m_ArgumentsP21CustomAttributesCache
hHa:__ZN16GeometryJobTasks20ScheduleGeometryJobsER9GfxDevicePFvP15GeometryJobDataEPK22GeometryJobInstructionjb
the:_TlsServerCertificateRequest_ProcessAsSsl3_m1084200341
cI:__ZN12AudioManager29ShutdownReinitializeAndReloadEv
oYa:__ZN16ReflectionProbes28GetMinBakedCubemapResolutionEv
T9a:__ZN14BlendShapeData8TransferI14SafeBinaryReadEEvRT_
hRi:__ZL25UnresolvedVirtualCall_188P12Il2CppObject6Guid_tPK10MethodInfo
CQe:_Enumerator__ctor_m1849900510_gshared
Gyj:__GLOBAL__sub_I_String_cpp
GZi:__ZN15dense_hashtableINSt3__24pairIK10KeyWrapperIPK22Il2CppGenericParameterEP11Il2CppClassEES6_N6il2cpp5utils11PointerHashIS4_EEN14dense_hash_mapIS6_S9_SE_NS6_14EqualsComparerINS0_8equal_toIS5_EEEENS0_9allocatorISA_EEE9SelectKeyESJ_SL_E6insertERKSA_
LVe:_InputField_GenerateCaret_m1459647218
X5h:__ZL101SpriteAtlasManager_t3158462485_CustomAttributesCacheGenerator_SpriteAtlasManager_Register_m2413332465P21CustomAttributesCache
Fwi:_X509CertificateEnumerator__ctor_m85694331
hua:__ZN14DataBufferGLES16RecreateWithDataEjPKv
V2:__Z29GetGlobalAllowNameConversionsv
bUf:_Array_InternalArray__Insert_TisTableRange_t3332867892_m558285859_gshared
cZb:__ZN8Material8SetColorEN9ShaderLab16FastPropertyNameERK10ColorRGBAf
xei:__ZL77ExecuteEvents_t3484638744_CustomAttributesCacheGenerator_U3CU3Ef__mgU24cacheFP21CustomAttributesCache
tqh:_Enumerator_System_Collections_IEnumerator_Reset_m3754523291_gshared
$Wj:_glUniform3uiv__wrapper
qXh:__ZL77Convert_t2465617642_CustomAttributesCacheGenerator_Convert_ToByte_m2375887898P21CustomAttributesCache
XL:__ZN11AudioSource23VirtualRedirectTransferER18StreamedBinaryReadILb0EE
twg:_RangeInt_get_end_m4128831787
bca:__ZN21AssetReferenceStorageC2Ev
nnh:_InvokableCall_1_Find_m1741895083_gshared
kxb:__ZN10RectOffset8TransferI19StreamedBinaryWriteILb0EEEEvRT_
qOj:dynCall_iiifiii
i$:__ZL41AssemblyNameMatchesWithOrWithoutExtensionPKcS0_
Ryh:_List_1_set_Item_m2082115010_gshared
oWf:_Encoding_GetBytes_m3735967069
Zqd:_Array_Initialize_m3004991267
JDa:__ZN14GfxContextGLES43AddRenderSurfaceToDeferredFBOInvalidateListEPK17RenderSurfaceGLES
Vmj:__ZN6il2cpp6icalls8mscorlib6System9Threading6Thread15Thread_internalEP12Il2CppThreadP14Il2CppDelegate
zoa:__ZN11NamedObject23VirtualRedirectTransferER14SafeBinaryRead
J3e:_Text_get_resizeTextMinSize_m1002355407
vMc:__ZNSt3__26vectorIN20TextRenderingPrivate8FontImpl13CharacterInfoE13stl_allocatorIS3_L18MemLabelIdentifier1ELi16EEE6insertENS_11__wrap_iterIPKS3_EERS9_
tLa:__ZN23PreloadManagerOperation6IsDoneEv
zvh:_List_1_GrowIfNeeded_m3796726_gshared
cdj:__ZNK15dense_hashtableINSt3__24pairIK10KeyWrapperINS1_IPK10MethodInfoP11Il2CppClassEEEjEES9_17ReflectionMapHashIS8_EN14dense_hash_mapIS9_jSD_NS9_14EqualsComparerINS0_8equal_toIS8_EEEENS0_9allocatorISB_EEE9SelectKeyESI_SK_E8min_sizeEjj
Yyj:__ZN6il2cpp5utils11StringUtils11Utf16ToUtf8ERKNSt3__212basic_stringIDsNS2_11char_traitsIDsEENS2_9allocatorIDsEEEE
vbe:_MD4Managed_Decode_m4273685594
tNg:__Z50RuntimeInvoker_Int64_t3736567304_Int16_t2552820387PFvvEPK10MethodInfoPvPS4_
Ihb:__ZN21LightProbeProxyVolume18HasHardwareSupportEv
hSb:__ZN26LightProbeProxyVolumeCacheC2ER13BatchRendererR15RenderLoopStats
_ya:__ZN6prcoreL31inner_stretch_argb8888_bilinearEPKNS_9InnerInfoE
Hyb:__Z18Transfer_BlittableI18StreamedBinaryReadILb1EELb1E8BitFieldEvRK29SerializationCommandArgumentsR31RuntimeSerializationCommandInfo
P5:__ZNK4PPtrI11LightProbesEcvPS0_Ev
ZFc:_UNITY_FT_Outline_Decompose
sJd:_Int64_System_IConvertible_ToChar_m1509243576_AdjustorThunk
Rvi:_GeneralNames_get_IPAddresses_m4242915644
JDf:_Decimal_op_Implicit_m3873897383
xjg:_Enumerator_Dispose_m3500272053_AdjustorThunk
yDj:_GC_init_size_map
qTa:__Z20scripting_object_new17ScriptingClassPtr
iKh:__ZL69RuntimeArray_CustomAttributesCacheGenerator_Array_Reverse_m3714848183P21CustomAttributesCache
Caf:_KeyGeneratedEventHandler_Invoke_m2527485594
bhf:_X509Extension_set_Critical_m1180944253
ecj:__ZN24dense_hashtable_iteratorINSt3__24pairIK10KeyWrapperINS1_IPK9FieldInfoP11Il2CppClassEEEjEES9_17ReflectionMapHashIS8_EN14dense_hash_mapIS9_jSD_NS9_14EqualsComparerINS0_8equal_toIS8_EEEENS0_9allocatorISB_EEE9SelectKeyESI_SK_E30advance_past_empty_and_deletedEv
UDi:_Repetition_get_Expression_m2673886232
RBf:_Decimal__ctor_m1925875020_AdjustorThunk
Due:_SerializationCallbacks__ctor_m3863304525
ALa:__ZN23PreloadManagerOperation21MustCompleteNextFrameEv
rTh:__ZL59SerializationInfo_t950877179_CustomAttributesCacheGeneratorP21CustomAttributesCache
P:Math_exp
Amg:_Vector3_Min_m1803158933
Io:FUNCTION_TABLE_iiifi
Uuj:__ZN6il2cpp2os5posix13PosixAutoLockD2Ev
Yui:_TlsServerSettings_set_CertificateTypes_m2047242411
rIi:_SymmetricTransform_OFB_m3690147804
mGe:_InternalEnumerator_1_MoveNext_m3713722659_AdjustorThunk
Xyc:_cff_get_advances
pEb:__ZN13MonoBehaviour9SetScriptERK4PPtrI10MonoScriptE18ScriptingObjectPtr
v9i:_RaycastHit2D_get_collider_m1549426026
csb:__Z18Transfer_BlittableI17RemapPPtrTransferLb0E8Vector2fEvRK29SerializationCommandArgumentsR31RuntimeSerializationCommandInfo
Vpj:__ZNSt3__218uninitialized_copyIPNS_4pairIK10KeyWrapperIP14Il2CppIUnknownEjEES8_EET0_T_SA_S9_
J0g:__Z77RuntimeInvoker_Void_t1185182177_Vector2U5BU5DU26_t476646542_Int32_t2950945753PFvvEPK10MethodInfoPvPS4_
Sbf:_PKCS12_get_RNG_m2649456600
LMa:__ZNK10FileSystem16LastErrorMessageEv
eVf:_Array_InternalArray__Insert_TisVector3_t3722313464_m3862657277_gshared
h6h:__ZL104NativeClassAttribute_t2601352714_CustomAttributesCacheGenerator_U3CQualifiedNativeNameU3Ek__BackingFieldP21CustomAttributesCache
Irf:_SecurityException__ctor_m1631242336
L$i:__ZN15dense_hashtableINSt3__24pairIK10KeyWrapperIPK11Il2CppClassEPKcEES6_N6il2cpp5utils11PointerHashIS3_EEN14dense_hash_mapIS6_S9_SE_NS6_14EqualsComparerINS0_8equal_toIS5_EEEENS0_9allocatorISA_EEE9SelectKeyESJ_SL_E14squash_deletedEv
u2c:_EventSystem_Update_m1662072334
a0c:__ZN22UnityWebRequestManager10InitializeEv
GDb:__ZN13MonoBehaviour13AwakeFromLoadE17AwakeFromLoadMode
ONh:__ZL51FileMode_t1183438340_CustomAttributesCacheGeneratorP21CustomAttributesCache
Osb:__ZL26Transfer_SimpleNativeClassI17RemapPPtrTransfer8GradientLb1EEvRK29SerializationCommandArgumentsR31RuntimeSerializationCommandInfo
Y1c:_RaycasterManager_RemoveRaycasters_m3057093063
L9b:__ZN12CachedWriter9InitWriteER15CacheWriterBase
p8b:__Z21UnsignedInt64ToStringy
w_e:_GetRaycastNonAllocCallback_BeginInvoke_m3984885848
UAe:_InternalEnumerator_1_MoveNext_m4138204635_AdjustorThunk
dAi:_PatternCompiler_BeginLink_m1295557963
QRa:__ZN14SafeBinaryRead21TransferSTLStyleArrayI13dynamic_arrayI17SortingLayerEntryLj4EEEEvRT_17TransferMetaFlags
gUh:__ZL46MD5_t3177620429_CustomAttributesCacheGeneratorP21CustomAttributesCache
RFd:_GuidParser_ThrowFormatException_m3223388534
sDi:_Group_GetAnchorInfo_m3730312864
rhi:__ZL50Graphic_t1660335611_CustomAttributesCacheGeneratorP21CustomAttributesCache
mOe:_KeyCollection_System_Collections_Generic_ICollectionU3CTKeyU3E_Add_m454648927_gshared
V0f:_TimeSpan_op_LessThanOrEqual_m300470010
loe:_ContextAttribute_Freeze_m3288175579
mmf:_Interval_Merge_m3454211016_AdjustorThunk
Yda:__ZZN15DirectorManager15InitializeClassEvEN41FixedUpdateDirectorFixedUpdateRegistrator7ForwardEv
mOd:_MemoryStream_get_Position_m3733941202
p3h:__ZL96TouchScreenKeyboard_t731888065_CustomAttributesCacheGenerator_TouchScreenKeyboard_Open_m43950298P21CustomAttributesCache
iMi:_AudioClipPlayable_Equals_m3705880618
y0b:__ZL10KeyHandleriPK23EmscriptenKeyboardEventPv
WAd:_Slot_t3975888750_marshal_pinvoke
hVj:_glLinkProgram__wrapper
Ekb:__ZN18ScriptingArguments8AddInt64Ex
Iza:__ZN6prcoreL12RemapGenericI17TexFormatARGB888815TexFormatBGR888EEvPKNS_9InnerInfoE
jlb:__ZN12HandlerChain4LockER13FileEntryData12FileLockMode
yKf:_TextInfo_get_ListSeparator_m1628160079
oei:__ZL77ExecuteEvents_t3484638744_CustomAttributesCacheGenerator_U3CU3Ef__mgU24cache6P21CustomAttributesCache
c2e:_Selectable_OnCanvasGroupChanged_m472903475
RZf:_EventWaitHandle_Reset_m3348053200
XQe:_Enumerator_get_Current_m2897627569_gshared
HZc:__ZN28UnityConnectScriptingClasses23CallSessionStateChangedEixxbP21ScriptingExceptionPtr
Hee:_ClientContext_get_SslStream_m1583577309
npj:__ZN6il2cpp6icalls8mscorlib6System13Globalization11CultureInfo35construct_internal_locale_from_nameEP17Il2CppCultureInfoP12Il2CppString
Wub:__ZL22Transfer_ManagedObjectI24GenerateTypeTreeTransferLb1EEvRK29SerializationCommandArgumentsR31RuntimeSerializationCommandInfo
cFg:__Z100RuntimeInvoker_Boolean_t97287965_RuntimeObject_Int32_t2950945753_RuntimeObject_UInt16U26_t2814738322PFvvEPK10MethodInfoPvPS4_
d1g:__Z56RuntimeInvoker_ILTokenInfo_t2325775114_Int32_t2950945753PFvvEPK10MethodInfoPvPS4_
nkd:_HMAC_get_BlockSizeValue_m455678067
OMb:__ZN15RenderNodeQueueC2E10MemLabelId
M6d:_ResourceEnumerator_FillCache_m1661715061
pgh:_ReadOnlyCollection_1_System_Collections_IList_IndexOf_m3664838805_gshared
sVh:__ZL72SecuritySafeCriticalAttribute_t3505979402_CustomAttributesCacheGeneratorP21CustomAttributesCache
ak:_emscripten_set_main_loop_timing
omg:_Bounds_get_min_m3755135869
gFd:_Convert_ToUInt16_m3523269149
amg:_Bounds_get_center_m1418449258
Dva:__ZN14DataBufferGLES12RecordRenderEv
t3c:_ExecuteEvents_get_endDragHandler_m2879610446
LYb:__ZN14ImageReference10FlipImageYEv
t8i:_UsedByNativeCodeAttribute__ctor_m2647015777
HSa:__Z32TransferEnumWithNameForceIntSizeI14SafeBinaryRead13TargetEyeMaskEvRT_RT0_PKc17TransferMetaFlags
vnc:__Z14GetDefaultSkini
oF:__ZN4FMOD3DSP9setBypassEb
r0b:__Z19NormalizeWheelInputf
Bdd:_Graphic_DoMeshGeneration_m3548487693
o$b:__Z29StdTemplateConversionFunctionIsaEbPvR14SafeBinaryRead
yy:__ZNK4PPtrI13MonoBehaviourEcvPS0_Ev
rBi:_Repetition__ctor_m1672362629
uwc:__Z29Transfer_Blittable_ArrayFieldI8JSONReadhEvRT_R9ArrayInfoRK23StaticTransferFieldInfo
Lsf:_SecurityFrame_ToString_m339310712_AdjustorThunk
K1d:_TypeBuilder_create_runtime_class_m2581270900
Yye:_InternalEnumerator_1_get_Current_m3008260692_gshared
YHj:__ZN6il2cpp2os20ThreadLocalValueImpl8SetValueEPv
UTa:__ZN22RenderingCommandBuffer20CleanupCommandBufferEv
LDf:_Decimal_op_Implicit_m2299919277
jrc:__Z18Transfer_BlittableI9JSONWriteLb1EtEvRK29SerializationCommandArgumentsR31RuntimeSerializationCommandInfo
iRd:_UnexceptionalStreamReader_ReadToEnd_m920589220
lyf:_DateTime_System_IConvertible_ToType_m1242864300
Wuf:_String_IndexOf_m1298810678
uk:___syscall85
Lai:__ZL85GUI_t1624858472_CustomAttributesCacheGenerator_GUI_set_nextScrollStepTime_m1026410471P21CustomAttributesCache
Nti:_Mesh_GetAllocArrayFromChannel_TisVector3_t3722313464_m2332439905_gshared
TMb:__ZNSt3__26__sortIRPFbP10GUIElementS2_EPS2_EEvT0_S7_T_
d7b:__ZN16GraphicsSettings12CleanupClassEv
GYd:_ConstructorBuilder_GetILGenerator_m1750792206
OVf:_EncoderFallback_get_ReplacementFallback_m818398284
Lvj:__ZN6il2cpp2os6Thread19DetachCurrentThreadEv
P2c:_EventTrigger_OnBeginDrag_m4203438710
a_i:__ZN6il2cpp2vmL21SetupInterfacesLockedEP11Il2CppClassRKNS_2os12FastAutoLockE
eaf:_PKCS1_Sign_v15_m2719206817
Tqi:_Dictionary_2_Do_CopyTo_TisRuntimeObject_TisRuntimeObject_m2344529027_gshared
xz:__ZN23AnimationPlayableOutput17SetSourcePlayableEP8Playable
mxj:__ZN6il2cpp2gc16GarbageCollector22MakeDescriptorForArrayEv
a2g:__Z37RuntimeInvoker_UILineInfo_t4195266810PFvvEPK10MethodInfoPvPS4_
oog:_CullingGroup_Dispose_m782801025
mag:_Dictionary_2_System_Collections_IDictionary_GetEnumerator_m529247385_gshared
sS:__ZN11UnityEngine15CloudWebService14DataDispatcher15SetupWebRequestEv
lVg:__Z64RuntimeInvoker_Boolean_t97287965_RuntimeObject_Int16_t2552820387PFvvEPK10MethodInfoPvPS4_
UWc:__ZN11UnityEngine15PlatformWrapper13GetShaderCapsEv
tUb:__ZNSt3__211__sift_downIR26RenderDeferredObjectSorterP16RenderObjectDataEEvT0_S5_T_NS_15iterator_traitsIS5_E15difference_typeES5_
r$d:_GenericTypeParameterBuilder_IsDefined_m98179866
z9e:_KeyPairPersistence_get_MachinePath_m3812267291
nCd:_Stack_Peek_m2216191248
cTi:_ListPool_1_U3Cs_ListPoolU3Em__0_m657844629_gshared
_xf:_DateTime_System_IConvertible_ToDecimal_m1044850612_AdjustorThunk
N7b:__ZN21FixedBehaviourManager6UpdateEv
Acc:__ZN9Transform9SetParentEPS_NS_15SetParentOptionE
T4:__ZN19ShaderPropertySheet8SetFloatEN9ShaderLab16FastPropertyNameEfNS_8SetFlagsE
zgb:__ZN19RuntimeSceneManager24BeginIntegrateMainThreadEP10UnityScene
lhe:_TlsServerCertificate_ProcessAsSsl3_m1306583193
vwj:__ZNSt3__2plIcNS_11char_traitsIcEENS_9allocatorIcEEEENS_12basic_stringIT_T0_T1_EERKS9_S6_
jQd:_StringReader_CheckObjectDisposedException_m3796163530
Oja:__ZN9ShaderLab20SerializedSubProgramaSERKS0_
SNj:_roundf
Q7f:_Dictionary_2_pick_value_m4268517353_gshared
fud:_Byte_System_IConvertible_ToSingle_m324484566_AdjustorThunk
wDf:_Decimal_op_Explicit_m2848387298
Rhg:_KeyValuePair_2_ToString_m1238786018_gshared
bt:__ZN8Animator15SetPrepareStageEv
PE:__ZN8AnimatorC2E10MemLabelId18ObjectCreationMode
b_i:__ZN6il2cpp2vmL24SetupTypeHierarchyLockedEP11Il2CppClassRKNS_2os12FastAutoLockE
z0b:__ZL11TextHandleriPK23EmscriptenKeyboardEventPv
Jre:_SoapFieldAttribute_get_XmlElementName_m2203304026
SLc:_destroy_face
DTj:_glBlendEquationSeparate__wrapper
Ixc:__ZN5physx19PxAllocatorCallbackD2Ev
UEj:__ZN6il2cpp6icalls8mscorlib6System8Security12Cryptography24RNGCryptoServiceProvider13RngInitializeEP11Il2CppArray
Q0h:__ZL68UsedByNativeCodeAttribute_t1703770351_CustomAttributesCacheGeneratorP21CustomAttributesCache
eM:__ZN20SoundChannelInstance7setMuteEb
jFg:__Z81RuntimeInvoker_Void_t1185182177_RuntimeObject_Int32_t2950945753_Int32_t2950945753PFvvEPK10MethodInfoPvPS4_
mYa:__ZN4PPtrI5LightE8TransferI19StreamedBinaryWriteILb0EEEEvRT_
ivh:_List_1__cctor_m972674764_gshared
VUd:_NumberFormatter_NumberToString_m3906556024
Gzb:__Z19TransferField_ArrayI18StreamedBinaryReadILb1EE27Converter_SimpleNativeClassI17AnimationCurveTplIfEEEvRK23StaticTransferFieldInfoR31RuntimeSerializationCommandInfoRT0_
gwa:__ZN18GfxFramebufferGLES22MakeCurrentFramebufferENS_7BuiltinE
gAj:__ZN6il2cpp2vm12MarshalAlloc4FreeEPv
r7:__ZN12CachedReader4ReadEPvj
o6d:_TypeFilter_EndInvoke_m998903841
c6c:_StandaloneInputModule_ProcessMouseEvent_m2923582521
uag:_KeyValuePair_2__ctor_m1794021352_gshared
h6e:_SimpleCollator_MatchesForwardCore_m850743967
hRb:__Z24CalculateLightShadowFadeRK6CamerafffR8Vector4f
Gaa:__ZN19RuntimeSceneManagerD2Ev
N7h:__ZL77DeallocateOnJobCompletionAttribute_t3131681843_CustomAttributesCacheGeneratorP21CustomAttributesCache
vma:__ZN13dynamic_arrayIPN9ShaderLab4PassELj4EE9push_backERKS2_
QHf:_CCGregorianCalendar_GetMonth_m1547203696
IT:__ZN11UnityEngine15CloudWebService25WebRequestDownloadHandler17OnCompleteContentEv
Zya:__ZN6prcore17GetIntegerBlitterE13TextureFormatS0_N14ImageReference8BlitModeE
ZCj:_GC_print_block_descr
aFh:_Collection_1_IndexOf_m934463944_gshared
vdj:__ZN6il2cpp2gc19AppendOnlyGCHashMapINSt3__24pairIPK11Il2CppImageP11Il2CppClassEEP22Il2CppReflectionModule17ReflectionMapHashIS9_ENS2_8equal_toIS9_EEE11TryGetValueERKS9_PSB_
GNh:__ZL51Directory_t828876208_CustomAttributesCacheGeneratorP21CustomAttributesCache
Brd:_SimpleEnumerator_Reset_m2182001888
XZg:__Z86RuntimeInvoker_Int32_t2950945753_Vector2_t2156229523_Vector2_t2156229523_RuntimeObjectPFvvEPK10MethodInfoPvPS4_
xec:__ZN9BlobWrite14ReduceCopyImplERK14ReduceCopyDataj
g9:__ZNSt3__26__treeI19RepeatingLogMessageNS_4lessIS1_EE13stl_allocatorIS1_L18MemLabelIdentifier73ELi16EEE12__find_equalIS1_EERPNS_16__tree_node_baseIPvEESD_RKT_
QP:__ZN11AudioSource18IsPlayingScriptingEv
r9e:_KeyBuilder_IV_m2230195376
sSj:_glShaderSource__wrapper
DOa:__ZN25MultiBlocksMemoryFileData17AdjustBlocksCountEj
Fmj:__ZNSt3__214__split_bufferIN6il2cpp2vm22EmbeddedResourceRecordERNS_9allocatorIS3_EEED2Ev
lKc:__ZN13TextRendering4Font8TransferI24GenerateTypeTreeTransferEEvRT_
dsa:__ZN9GfxDevice15EndProfileEventEPN9profiling6MarkerE
Qfc:__Z27CullingGroup_CUSTOM_DisposeP12Il2CppObject
nmj:__ZN6il2cpp6icalls8mscorlib6SystemL23CheckWideningConversionEjjj
k_c:__ZNSt3__26vectorIP19BaseConnectSettings13stl_allocatorIS2_L18MemLabelIdentifier6ELi16EEE21__push_back_slow_pathIKS2_EEvRT_
yMb:__ZN13ComputeShader15SetTextureParamEjRKN9ShaderLab16FastPropertyNameE9TextureID16TextureDimension
JIe:_Comparer_1__ctor_m319670016_gshared
Cm:_glStencilMask
jwj:__ZN6il2cpp2os10ThreadImpl16GetCurrentThreadEv
u4d:_MonoMethod_GetBaseDefinition_m2844667474
t0b:__ZN15GUIEventManager10QueueEventERK10InputEvent
pGh:_Collection_1_Clear_m1300437781_gshared
u$i:_AnalyticsEvent_OnValidationFailed_m2609604624
F9g:_Collection_1_Contains_m1707523067_gshared
v7d:_DecimalConstantAttribute__ctor_m3583301917
O5g:_Collection_1_System_Collections_ICollection_get_IsSynchronized_m1640823718_gshared
zCj:_GC_push_conditional_with_exclusions
vKe:_Enumerator_System_Collections_IDictionaryEnumerator_get_Entry_m2772123357_AdjustorThunk
vqe:_MethodCallDictionary__ctor_m2167303393
XB:__ZN12_GLOBAL__N_121ProcessAnimationBeginER35AnimationPlayableEvaluationConstantR32AnimationPlayableEvaluationInputR33AnimationPlayableEvaluationOutput
CXh:__ZL80Convert_t2465617642_CustomAttributesCacheGenerator_Convert_ToDecimal_m2858622624P21CustomAttributesCache
Dmi:__ZL68TrackableField_t1772682203_CustomAttributesCacheGenerator_m_EnumTypeP21CustomAttributesCache
XKj:_strrchr
Sng:_Component_GetComponentInParent_m779177818
tme:__ZN21InterfaceFuncInvoker1IP8String_tS1_E6InvokeEjP11Il2CppClassP12Il2CppObjectS1_
o8f:_Dictionary_2_System_Collections_ICollection_get_SyncRoot_m2069913662_gshared
E6c:_UIBehaviour_IsDestroyed_m3033055982
cQg:__Z109RuntimeInvoker_Void_t1185182177_RuntimeObject_RuntimeObject_SByte_t1669577662_Int32_t2950945753_RuntimeObjectPFvvEPK10MethodInfoPvPS4_
MBg:_Enumerator_Reset_m39541243
kUe:_InputField_get_readOnly_m3111985574
zYa:__ZN14RenderSettings27UpdateIndirectSpecularColorEv
_rg:_Logger_get_logHandler_m1335645353
peb:__ZN14PlayerSettings8TransferI18StreamedBinaryReadILb0EEEEvRT_
Y6i:__ZN6il2cpp6icalls8mscorlib6System8MonoType16GetMethodsByNameEP20Il2CppReflectionTypeP12Il2CppStringibS5_
ISh:__ZL73ObjRef_t2141158884_CustomAttributesCacheGenerator_U3CU3Ef__switchU24map26P21CustomAttributesCache
mfi:__ZL102PointerEventData_t3807901092_CustomAttributesCacheGenerator_PointerEventData_set_pointerId_m1888344330P21CustomAttributesCache
U9h:__ZL88AudioClip_t3680889665_CustomAttributesCacheGenerator_AudioClip_get_ambisonic_m3815052287P21CustomAttributesCache
GXe:_U3CDelayedSetDirtyU3Ec__Iterator0__ctor_m3936335621
X5:__ZN4PPtrI10GameObjectE8TransferI14SafeBinaryReadEEvRT_
b8h:__ZL106PlayableAsset_t3219022681_CustomAttributesCacheGenerator_PlayableAsset_Internal_CreatePlayable_m2550417712P21CustomAttributesCache
i_f:_Monitor_Monitor_wait_m3706677354
_ld:_RijndaelTransform__cctor_m2439033240
QIb:__ZNSt3__27__sort3IRNS_4lessIN22BuiltinResourceManager8ResourceEEEPS3_EEjT0_S7_S7_T_
LKh:__ZL175U3CGetEnumeratorU3Ec__Iterator0_t1202911786_CustomAttributesCacheGenerator_U3CGetEnumeratorU3Ec__Iterator0_System_Collections_Generic_IEnumeratorU3CTU3E_get_Current_m322251035P21CustomAttributesCache
XNi:__ZL24UnresolvedVirtualCall_14P12Il2CppObject25RSAParameters_t1728406613PK10MethodInfo
IIc:_ps_hints_t2mask
Zjh:_Comparison_1__ctor_m3138326461_gshared
hNf:_Array_InternalArray__ICollection_Remove_TisMonoResource_t4103430009_m238733686_gshared
GKd:_IntPtr_ToString_m1831665121
Z2e:_Slider_Set_m1476104429
nfd:_Image_set_fillClockwise_m2210525152
$ab:__ZN10BlendShape8TransferI19StreamedBinaryWriteILb0EEEEvRT_
UF:__Z32TransferEnumWithNameForceIntSizeI14SafeBinaryReadN10SampleClip8LoadTypeEEvRT_RT0_PKc17TransferMetaFlags
xKd:__Z21il2cpp_codegen_sizeofP11Il2CppClass
SCa:__Z19GetTimeSinceStartupv
Nfd:_Image_AddQuad_m2161647989
K1c:_BaseInputModule_DeactivateModule_m856719157
$vj:__ZN6il2cpp2os10ThreadImpl11SetPriorityENS0_14ThreadPriorityE
iqh:_Enumerator_System_Collections_IEnumerator_Reset_m2953002685_gshared
aHg:__Z50RuntimeInvoker_Int64_t3736567304_Int32_t2950945753PFvvEPK10MethodInfoPvPS4_
cIc:_TT_Load_Composite_Glyph
gsa:__ZN9GfxDevice16DeleteTimerQueryEP13GfxTimerQuery
nCh:_List_1_Insert_m1695211546_gshared
XUg:__Z49RuntimeInvoker_Void_t1185182177_Color_t2555686324PFvvEPK10MethodInfoPvPS4_
m$a:__ZN9ShaderLab11shaderprops9GetTexEnvEPK19ShaderPropertySheetS3_NS_16FastPropertyNameE16TextureDimensionb
Rwh:_List_1_Sort_m3232912161_gshared
DNe:_KeyCollection_System_Collections_ICollection_CopyTo_m1760651091_gshared
BPb:__ZN29RenderNodeQueuePrepareContextC2Ev
Uij:_il2cpp_gc_disable
_ka:__ZN9ShaderLab20SerializedSubProgram16TextureParameter8TransferI24GenerateTypeTreeTransferEEvRT_
Vjd:_DSASignatureDeformatter_SetKey_m2999549245
sFj:__ZN6il2cpp2os11MutexHandle4WaitEb
rpa:__ZN9GfxDevice19SaveStereoConstantsEv
rFj:__ZN6il2cpp2os11MutexHandle4WaitEj
ndc:__ZL34GetComponentsImplementationRecurseILb1ELi1ELi1EEbR10GameObjectbRK17CompareParametersRK39GetComponentsImplementation_ReturnValue
kIg:__Z114RuntimeInvoker_Boolean_t97287965_RuntimeObject_RuntimeObject_Int32_t2950945753_Int32_t2950945753_Int32_t2950945753PFvvEPK10MethodInfoPvPS4_
YXd:_AssemblyBuilder_GetTypes_m3415680380
SAa:__ZN6prcoreL17RemapGenericFloatI15TexFormatRGHalf18TexFormatARGBFloatEEvPKNS_9InnerInfoE
gJi:_AnalyticsEventParam_get_groupID_m569309506
yEf:_StackFrame_GetMethod_m1395840764
MZa:__ZNK13RenderTexture13GetDataHeightEv
VGb:__Z18SimulateMouseInputi
PLb:__ZN13RenderManager23AddRemoveCamerasDelayedEv
osc:__ZN9JSONWrite8TransferI13dynamic_arrayIdLj8EEEEvRT_PKc17TransferMetaFlags
vLa:__ZN23PreloadManagerOperation11GetPriorityEv
YWe:_LayoutElement_OnEnable_m1760066426
uUc:__ZN11UnityEngine9Analytics15AnalyticsConfigC2Ev
Qpc:__ZN5Unity9rapidjson6WriterI16TempBufferWriterNS0_4UTF8IcEES4_13JSONAllocatorE11WriteUint64Ey
dsd:_BitConverter__cctor_m3841343255
LCf:_Decimal_Compare_m3062820418
tmf:_IntervalCollection_GetMetaCollection_m4029522214
K2c:_EventTrigger_OnDeselect_m1919608102
WTi:_TextGenerator_get_characterCount_m864136654
Elg:_AsyncOperation_t1445031843_marshal_pinvoke_cleanup
X$f:_TimeSpan__ctor_m2047388489_AdjustorThunk
xXb:__ZN13RenderTexture8SetWidthEi
S3b:__ZNK28RectTransformPropertyBinding12SetPPtrValueERKN11UnityEngine9Animation10BoundCurveEi
eJb:__ZN18FrameTimingManager18GetVSyncsPerSecondEv
MAb:__Z18Transfer_BlittableI18StreamedBinaryReadILb0EELb0EfEvRK29SerializationCommandArgumentsR31RuntimeSerializationCommandInfo
lbb:__ZN10MeshFilterD0Ev
eIc:_UNITY_FT_GlyphLoader_CheckSubGlyphs
rye:_InternalEnumerator_1__ctor_m1341209356_AdjustorThunk
MRb:__Z25SetupObjectBakedOcclusionbRK15SharedLightDataRK26SharedLightmapSettingsDataRK15LightmapIndicesR17ShaderPassContext
h4g:_Collection_1_System_Collections_ICollection_CopyTo_m1516601228_gshared
l5g:_Collection_1_CopyTo_m4278237485_gshared
s7g:_Collection_1_Add_m3860636938_gshared
ONi:__ZL23UnresolvedVirtualCall_5P12Il2CppObjectsPK10MethodInfo
DD:__ZN4PPtrI6AvatarE8TransferI19StreamedBinaryWriteILb0EEEEvRT_
esh:_List_1_Insert_m4050947056_gshared
$4:__ZN9ShaderLab16FastPropertyName4InitEPKc
bCe:_InternalEnumerator_1__ctor_m39232262_AdjustorThunk
FRg:__Z48RuntimeInvoker_OperatingSystemFamily_t1868066375PFvvEPK10MethodInfoPvPS4_
yWh:__ZL61Thread_t2300836069_CustomAttributesCacheGenerator_local_slotsP21CustomAttributesCache
a3b:__Z13RegisterClassIN2UI13RectTransformEEvv
Oah:_Collection_1_System_Collections_IEnumerable_GetEnumerator_m3596816767_gshared
x6b:__ZL31MeshRendererTransformChangedJobP13BoundsJobDatajPK23TransformAccessReadOnlyPKyj
Juc:__ZN8JSONRead21TransferSTLStyleArrayI31ArrayOfManagedObjectsTransfererEEvRT_17TransferMetaFlags
Qud:_Char_System_IConvertible_ToByte_m2347554595_AdjustorThunk
P6h:__ZL59TooltipAttribute_t3957072629_CustomAttributesCacheGeneratorP21CustomAttributesCache
r7a:__ZN10VertexData8TransferI17RemapPPtrTransferEEvRT_
nZa:__ZN13RenderTexture9SetMipMapEb
a0i:__ZN15dense_hashtableINSt3__24pairIK10KeyWrapperIPK11Il2CppClassEPKcEES6_N6il2cpp5utils11PointerHashIS3_EEN14dense_hash_mapIS6_S9_SE_NS6_14EqualsComparerINS0_8equal_toIS5_EEEENS0_9allocatorISA_EEE9SelectKeyESJ_SL_E13set_empty_keyERKSA_
Yvf:_String_CreateString_m860434552
sea:__Z18GetDirectorManagerv
TQe:_Enumerator_System_Collections_IEnumerator_Reset_m278261807_AdjustorThunk
bHh:_Collection_1_GetEnumerator_m1824095167_gshared
pQh:__ZL107CriticalFinalizerObject_t701527852_CustomAttributesCacheGenerator_CriticalFinalizerObject__ctor_m3245424448P21CustomAttributesCache
_Id:_Int32_Equals_m2976157357_AdjustorThunk
Ujc:__Z38Transform_CUSTOM_INTERNAL_get_rotationP12Il2CppObjectP11Quaternionf
Hre:_SoapAttribute_get_XmlNamespace_m859394681
kdj:__ZNK15dense_hashtableINSt3__24pairIK10KeyWrapperINS1_IPK10MethodInfoP11Il2CppClassEEEjEES9_17ReflectionMapHashIS8_EN14dense_hash_mapIS9_jSD_NS9_14EqualsComparerINS0_8equal_toIS8_EEEENS0_9allocatorISB_EEE9SelectKeyESI_SK_E5beginEv
Lyi:_X509ExtensionCollection_System_Collections_IEnumerable_GetEnumerator_m1475785462
iua:__ZN7ApiGLES19UploadBufferSubDataEjN2gl12BufferTargetEllPKv
DXi:_SkeletonBone_t4134054672_marshal_pinvoke_cleanup
Ega:__ZNSt3__216__rotate_forwardINS_11__wrap_iterIPN4core12basic_stringIcNS2_20StringStorageDefaultIcEEEEEEEET_S9_S9_S9_
iCg:_Vector2_GetHashCode_m3916089713
pca:__ZdaPv
xzg:_SendMouseEvents_HitTestLegacyGUI_m579942228
aUd:_MulticastDelegate_Equals_m2502840627
vpf:_SymmetricAlgorithm_set_KeySize_m3805756466
Jmi:__ZL70ValueProperty_t1868393739_CustomAttributesCacheGenerator_m_CustomValueP21CustomAttributesCache
lud:_Byte_System_IConvertible_ToUInt32_m1049546902_AdjustorThunk
f7c:_U3CDelayUpdateU3Ec__Iterator0_System_Collections_IEnumerator_get_Current_m2906633870
gRg:__Z53RuntimeInvoker_Double_t594665363_Interval_t1802865632PFvvEPK10MethodInfoPvPS4_
$Ib:__Z21InitializeBatchedJobsv
SVi:_CanvasGroup_get_blocksRaycasts_m1805542303
dof:_SHA1Internal_ProcessBlock_m1991889327
Qpb:__Z19TransferField_ArrayI14SafeBinaryRead27Converter_SimpleNativeClassI8GUIStyleEEvRK23StaticTransferFieldInfoR31RuntimeSerializationCommandInfoRT0_
O6h:__ZL60PropertyAttribute_t3677895545_CustomAttributesCacheGeneratorP21CustomAttributesCache
Apj:__ZN15dense_hashtableINSt3__24pairIK10KeyWrapperIP14Il2CppIUnknownEjEES5_N6il2cpp5utils11PointerHashIS3_EEN14dense_hash_mapIS5_jSB_NS5_14EqualsComparerINS0_8equal_toIS4_EEEENS0_9allocatorIS7_EEE9SelectKeyESG_SI_ED2Ev
upi:_Array_Sort_TisRuntimeObject_TisRuntimeObject_m1685639929_gshared
bFj:__ZN6il2cpp5utils10MemoryPoolC2Ev
WXa:__ZN14RenderSettings5ResetEv
X1b:__ZN6Sprite9BindAtlasERK4PPtrI11SpriteAtlasE
Yoc:__ZN5Unity9rapidjson12GenericValueINS0_4UTF8IcEE13JSONAllocatorE10FindMemberIS4_EENS0_21GenericMemberIteratorILb0ES3_S4_EERKNS1_IS3_T_EE
JCe:_InternalEnumerator_1_System_Collections_IEnumerator_get_Current_m3892960115_AdjustorThunk
moj:__ZNSt3__212basic_stringIDsNS_11char_traitsIDsEENS_9allocatorIDsEEE6appendEPKDsj
lIi:_SymmetricTransform_Finalize_m4129642865
Nwd:_ArrayList_Clone_m2682741233
zkd:_HMAC_HashCore_m3684104066
wpc:__ZN5Unity9rapidjson13GenericReaderINS0_4UTF8IcEES3_13JSONAllocatorE11ParseNumberILj1ENS0_25GenericInsituStringStreamIS3_EENS0_15GenericDocumentIS3_S4_S4_EEEEvRT0_RT1_
QJh:__ZL88RuntimeArray_CustomAttributesCacheGenerator_Array_CreateInstance_m1027597705____lengths1P21CustomAttributesCache
U6g:_Collection_1_RemoveItem_m2911050674_gshared
aFg:__Z79RuntimeInvoker_UInt16_t2177724958_RuntimeObject_Int32_t2950945753_RuntimeObjectPFvvEPK10MethodInfoPvPS4_
Vvj:__ZN6il2cpp2os10ThreadImplD2Ev
xKf:_TextInfo_System_Runtime_Serialization_IDeserializationCallback_OnDeserialization_m1492046432
rqc:__ZN8Gradient8TransferI9JSONWriteEEvRT_
hhb:__ZN21RendererUpdateManager18OncePerFrameUpdateER13RendererScene
CNi:_AudioSource_set_clip_m31653938
mci:__ZL81TextEditor_t2759855366_CustomAttributesCacheGenerator_TextEditor__ctor_m242049450P21CustomAttributesCache
KCd:_Convert_ToBoolean_m2833621053
bLa:__ZNK12TLSAllocatorI14StackAllocatorE22GetAllocatedMemorySizeEv
J$h:__ZL62WebHeaderCollection_t1942268960_CustomAttributesCacheGeneratorP21CustomAttributesCache
j3:__ZN17RemapPPtrTransfer12PushMetaFlagE17TransferMetaFlags
seg:_EqualityComparer_1_System_Collections_IEqualityComparer_GetHashCode_m2138064395_gshared
dN:__ZNK7WeakPtrI20SoundChannelInstanceE10SharedData9GetRawPtrEv
Wkb:__ZN12HandlerChain4NameEv
_9c:_FloatTween_t1274330004_marshal_pinvoke
kxc:__ZN11UnityEngine9Analytics18RenderingInfoEventD0Ev
xGd:_Int16_System_IConvertible_ToType_m3672347013_AdjustorThunk
hvf:_String_LastIndexOf_m578673845
Drb:__Z29Transfer_Blittable_ArrayFieldI14SafeBinaryReadN4math12int3_storageEEvRT_R9ArrayInfoRK23StaticTransferFieldInfo
vsf:_SecurityException_ToString_m3228070608
hId:_Int16_ToString_m2013897809
F_g:__Z60RuntimeInvoker_Int32_t2950945753_ResourceCacheItem_t51292791PFvvEPK10MethodInfoPvPS4_
xsf:_String_Substring_m2848979100
KSc:__Z44Register_UnityEngine_CanvasRenderer_get_cullv
cZi:__ZN15dense_hashtableINSt3__24pairIK10KeyWrapperIPK22Il2CppGenericParameterEP11Il2CppClassEES6_N6il2cpp5utils11PointerHashIS4_EEN14dense_hash_mapIS6_S9_SE_NS6_14EqualsComparerINS0_8equal_toIS5_EEEENS0_9allocatorISA_EEE9SelectKeyESJ_SL_ED2Ev
zti:_ScriptableObject_CreateInstance_TisRuntimeObject_m1552711675_gshared
ssf:_SecurityException_get_PermissionType_m2237538728
nPi:__ZL24UnresolvedVirtualCall_86P12Il2CppObjectxS0_xPK10MethodInfo
Q$b:__Z29StdTemplateConversionFunctionIbbEbPvR14SafeBinaryRead
dWc:__ZN11UnityEngine7Connect17XRDeviceInfoEvent12XRDeviceInfoD2Ev
Snb:__Z44InitializeTransferFunctionScriptingTraitsForI17RemapPPtrTransferEvR31TransferFunctionScriptingTraits
J3b:__ZNSt3__26vectorI16MessageForwarder13stl_allocatorIS1_L18MemLabelIdentifier7ELi8EEE6resizeEj
Dif:_X509Chain_SelectBestFromCollection_m1068759221
uIi:_SymmetricTransform_TransformBlock_m851059707
ZIh:__ZL68IntPtr_t_CustomAttributesCacheGenerator_IntPtr_ToPointer_m4157623054P21CustomAttributesCache
Yah:_Collection_1_System_Collections_IList_get_IsReadOnly_m2978442176_gshared
KDh:_Enumerator_System_Collections_IEnumerator_Reset_m2261065994_AdjustorThunk
P0e:_ScrollRect_get_verticalNormalizedPosition_m3693218937
xgb:__ZN18LoadSceneOperation21MustCompleteNextFrameEv
$2e:_Slider_UpdateDrag_m1102107039
Y4d:_MonoMethodInfo_get_method_info_m88651774
fM:__ZNK12AudioManager16GetAudioListenerEv
uId:_Int32_System_IConvertible_ToDateTime_m1824716955
u8f:_Dictionary_2_System_Collections_Generic_ICollectionU3CSystem_Collections_Generic_KeyValuePairU3CTKeyU2CTValueU3EU3E_CopyTo_m331407443_gshared
nhd:_RuntimeTypeHandle__ctor_m3315980708_AdjustorThunk
XUh:__ZL69IIdentityPermissionFactory_t3268650966_CustomAttributesCacheGeneratorP21CustomAttributesCache
xVi:_Canvas_set_overrideSorting_m4088794420
cXb:__ZNSt3__26vectorI11CameraStackNS_9allocatorIS1_EEE8__appendEj
fcg:_DefaultComparer_Equals_m2585095694_gshared
Zrg:_Logger_set_filterLogType_m3622751173
dph:_UnityEvent_1_GetDelegate_m25714567_gshared
yu:__ZN7mecanim9animation12GetHumanPoseERKNS0_18ClipMuscleConstantEPKNS0_10ValueDeltaERNS_5human9HumanPoseE
eUc:__ZN11UnityEngine9Analytics15UserCustomEvent12CustomParams6InsertEPKcRNS1_11CustomValueE
ow:__ZN22AnimationMixerPlayable17ProcessRootMotionEP35AnimationPlayableEvaluationConstantP32AnimationPlayableEvaluationInputP33AnimationPlayableEvaluationOutput
pxb:__Z29Transfer_Blittable_ArrayFieldI19StreamedBinaryWriteILb0EEjEvRT_R9ArrayInfoRK23StaticTransferFieldInfo
f1:__Z13GetFileSystemv
sba:__ZNK5Unity4Type21FindAllDerivedClassesER13dynamic_arrayIPKS0_Lj4EENS0_17TypeFilterOptionsE
lca:__ZN13RuntimeStaticI15GUIEventManagerLb0EE16StaticInitializeEPv
WBb:__ZL12InvokeMethodI18StreamedBinaryReadILb0EEEvRK29SerializationCommandArgumentsR31RuntimeSerializationCommandInfo
c6f:_Version_CompareTo_m3146217210
Qge:_TlsClientCertificate_FindParentCertificate_m3844441401
iEi:_Uri_ParseAsUnixAbsoluteFilePath_m1476768041
dTf:_Array_InternalArray__ICollection_CopyTo_TisKeyValuePair_2_t71524366_m1056941380_gshared
p1f:_Type_get_IsClass_m589177581
B1f:_Type_get_IsSystemType_m624798880
Wzb:__Z29Transfer_Blittable_ArrayFieldI18StreamedBinaryReadILb1EE5RectTIfEEvRT_R9ArrayInfoRK23StaticTransferFieldInfo
knb:__ZN19ShaderPropertySheet9SetMatrixEN9ShaderLab16FastPropertyNameERK10Matrix4x4fNS_8SetFlagsE
w3a:__Z29GetTextureSizeAllowedMultiple13TextureFormat
DCf:_Decimal_Subtract_m835601464
wKb:__ZZ23InitPlayerLoopCallbacksvEN52InitializationAsyncUploadTimeSlicedUpdateRegistrator7ForwardEv
qQg:__Z73RuntimeInvoker_Boolean_t97287965_RuntimeObject_IPv6AddressU26_t3285609463PFvvEPK10MethodInfoPvPS4_
bgb:__ZNSt3__26vectorIN4core12basic_stringIcNS1_20StringStorageDefaultIcEEEE13stl_allocatorIS5_L18MemLabelIdentifier13ELi16EEE8__appendEj
b8b:__ZN21IntermediateRenderers3AddEP20IntermediateRenderer
dij:_il2cpp_array_element_size
bSd:_MissingMemberException__ctor_m2571045846
GHh:__ZL62ComVisibleAttribute_t1362837655_CustomAttributesCacheGeneratorP21CustomAttributesCache
dxh:_List_1_System_Collections_IEnumerable_GetEnumerator_m1824431956_gshared
qyg:_RectTransform_INTERNAL_set_sizeDelta_m188783163
Zf:_glCheckFramebufferStatus
yEj:__ZN6il2cpp2os11EventHandle4WaitEv
nve:_U3CGetEnumeratorU3Ec__Iterator0_System_Collections_Generic_IEnumeratorU3CTU3E_get_Current_m9057020_gshared
kYi:_CustomEventData__ctor_m4146403782
_U:__ZN19CloudServiceHandler20StartEventDispatcherERKN11UnityEngine15CloudWebService18CloudServiceConfigERNS1_23WebRequestRestHeaderMapE
$dd:_GraphicRaycaster__ctor_m646559428
sde:_CipherSuite_get_CipherAlgorithmType_m137858741
Iyd:_BitArrayEnumerator_get_Current_m4220391712
pWd:__Z37il2cpp_codegen_get_executing_assemblyPK10MethodInfo
Ryg:_Transform_get_parent_m835071599
hGh:_Collection_1_System_Collections_IList_Remove_m3686118478_gshared
ukb:__ZN9Transform23VirtualRedirectTransferER17RemapPPtrTransfer
Jef:_IPAddress_get_ScopeId_m4237202723
Br:__ZN4core8hash_mapIN11UnityEngine9Animation14GenericBindingENS2_10BoundIndexENS2_25GenericBindingHashFunctorENS2_30GenericBindingValueArrayUniqueEE4growEi
Lt:__ZN21AnimationClipPlayable7SetTimeEd
vBi:_ExpressionCollection_get_Item_m3510736379
jhi:__ZL62FontData_t746620069_CustomAttributesCacheGenerator_m_AlignmentP21CustomAttributesCache
D5c:_StandaloneInputModule_get_inputActionsPerSecond_m3946624274
mZf:_UTF8Encoding_InternalGetCharCount_m82458470
xCg:_Vector2__cctor_m2108982652
STg:__Z72RuntimeInvoker_Boolean_t97287965_Vector4_t3319028937_Vector4_t3319028937PFvvEPK10MethodInfoPvPS4_
Ar:__ZN4core8hash_mapIN11UnityEngine9Animation14GenericBindingENS2_10BoundIndexENS2_25GenericBindingHashFunctorENS2_30GenericBindingValueArrayUniqueEE4growEv
KFe:_InternalEnumerator_1_MoveNext_m2734554195_AdjustorThunk
Dpj:__ZN14dense_hash_mapI10KeyWrapperIP14Il2CppIUnknownEjN6il2cpp5utils11PointerHashIS1_EENS3_14EqualsComparerINSt3__28equal_toIS2_EEEENS9_9allocatorINS9_4pairIKS3_jEEEEE15set_deleted_keyERSF_
Fba:__ZN22BuiltinResourceManager16StaticInitializeEPv
zlj:__ZN6il2cpp2gc9AllocatorIP12Il2CppThreadE10deallocateEPvj
Qfj:__ZN13Il2CppHashMapIPK14Il2CppAssemblyPK22Il2CppMonoAssemblyNameN6il2cpp5utils11PointerHashIS1_EENSt3__28equal_toIS2_EENSA_9allocatorINSA_4pairIK10KeyWrapperIS2_ES5_EEEEEC2EjRKS9_RKSC_
kpd:_DelegatePInvokeWrapper_AppDomainInitializer_t682969308
m0:__ZN8Remapper6RemoveEi
Foh:_UnityEvent_1__ctor_m3777630589_gshared
dPa:__ZN10MemoryFile4ReadEyPvPy
nWf:_Encoding_GetBytes_m3148649984
CMc:__ZL36CleanupTextRenderingScriptingClassesv
uXb:__ZN15ReflectionProbe17UseRendererResultEP13ProbeRenderer
hlc:__Z34Mesh_CUSTOM_SetArrayForChannelImplP12Il2CppObject30InternalScriptingShaderChannel34InternalScriptingVertexChannelTypeiP11Il2CppArrayi
_Vi:_CanvasRenderer_INTERNAL_CALL_EnableRectClipping_m3318097918
G4f:_UInt64_System_IConvertible_ToDecimal_m806594027_AdjustorThunk
qKe:_Enumerator_System_Collections_IEnumerator_get_Current_m361750367_AdjustorThunk
kph:_UnityEvent_1_GetDelegate_m274387680_gshared
Hse:_RealProxy_InternalGetTransparentProxy_m1765012608
luh:_List_1__ctor_m3395838871_gshared
wbh:_Collection_1_IsFixedSize_m3698021882_gshared
hcg:_DefaultComparer_GetHashCode_m2651362016_gshared
fwi:_PKCS12__ctor_m1854440921
Voi:_Array_Resize_TisCustomAttributeNamedArgument_t287865710_m885566878_gshared
iOg:__Z85RuntimeInvoker_RuntimeObject_RuntimeObject_SByte_t1669577662_ExceptionU26_t3600731591PFvvEPK10MethodInfoPvPS4_
Qag:_DefaultComparer__ctor_m2556554241_gshared
ZD:__ZN11UnityEngine9Animation28GenericAnimationBindingCache25RegisterIAnimationBindingEPKN5Unity4TypeEiP17IAnimationBinding
zKh:__ZL66RuntimeArray_CustomAttributesCacheGenerator_Array_Sort_m2537416106P21CustomAttributesCache
OSc:__Z70RectTransformUtility_CUSTOM_INTERNAL_CALL_RectangleContainsScreenPointP12Il2CppObjectRK13Vector2fIcallS0_
kMd:_DirectoryInfo__ctor_m481305441
Sjf:_X509ExtensionCollection_get_SyncRoot_m2667861032
UZi:__ZN6il2cpp2vm5Class15GetElementClassEP11Il2CppClass
B9:__ZN10MemoryPoolC2E10MemLabelIdbPKciii
J7g:_Collection_1_SetItem_m941095285_gshared
OTc:__ZN14UnityAnalytics25UnregisterGlobalCallbacksEv
WVb:__Z40ProcessCameraIndexListIsNodeVisibleInOutRK22SceneCullingParametersPK9SceneNodePK4AABBR9IndexList
pHi:_GUIScrollGroup_SetHorizontal_m291416666
CVa:__ZN16GraphicsSettings8TransferI17RemapPPtrTransferEEvRT_
pQc:__ZN2UI6Canvas13UpdateBatchesEb
zgf:_X509BasicConstraintsExtension_Decode_m120598446
uz:__ZNK23AnimationPlayableOutput11DerivesFromE17ScriptingClassPtr
w2a:__ZN7Texture19SupportsAsyncUploadI19StreamedBinaryWriteILb0EEEEbRT_
ETg:__Z49RuntimeInvoker_Boolean_t97287965_Rect_t2360479859PFvvEPK10MethodInfoPvPS4_
r5h:__ZL101Transform_t3600365921_CustomAttributesCacheGenerator_Transform_INTERNAL_get_localRotation_m1111330565P21CustomAttributesCache
PNg:__Z51RuntimeInvoker_UInt32_t2560061978_Int16_t2552820387PFvvEPK10MethodInfoPvPS4_
epa:__ZNK13GfxDeviceGLES12GetWireframeEv
CIi:_DelegatePInvokeWrapper_Action_t1264377477
Dbi:__ZL64EventType_t3528516131_CustomAttributesCacheGenerator_dragUpdatedP21CustomAttributesCache
tXc:__ZN11UnityEngine7Connect13ConfigHandler12GetListenersERKN4core12basic_stringIcNS2_20StringStorageDefaultIcEEEE
Oqa:__ZN9GfxDevice18AllocRenderSurfaceEb
Iud:_Char__cctor_m2787437263
Q1b:__ZN10TagManager32GetSortingLayerUniqueIDFromValueEi
S6c:_AspectRatioFitter_get_rectTransform_m2996235303
S_:__ZL27CleanupCoreScriptingClassesv
uJf:_DateTimeFormatInfo_get_IsReadOnly_m1173781646
RJf:_NumberFormatInfo_get_PercentPositivePattern_m1800841633
Ydd:_Graphic_UnregisterDirtyMaterialCallback_m2707090617
tJe:_Comparer_1_System_Collections_IComparer_Compare_m1313384821_gshared
_Xe:_LayoutRebuilder_GetHashCode_m1943075341
L$d:_GenericTypeParameterBuilder_MakeGenericType_m3048165991
Yhc:__Z26AnimationCurve_CUSTOM_InitP12Il2CppObjectP11Il2CppArray
VWj:_glUniform1uiv__wrapper
Bfj:__ZN6il2cpp2vm10Reflection7IsEventEP12Il2CppObject
NHj:__ZNSt3__26__treeINS_12__value_typeIPFvvEPK10MethodInfoEENS_19__map_value_compareIS3_S7_NS_4lessIS3_EELb1EEENS_9allocatorIS7_EEE16__insert_node_atEPNS_16__tree_node_baseIPvEERSI_SI_
FZ:__ZN17PersistentManager26GetStreamNameSpaceInternalEi
bG:__ZN4FMOD6System11createSoundEPKcjP22FMOD_CREATESOUNDEXINFOPPNS_5SoundE
ao:FUNCTION_TABLE_iiifiiii
OFe:_InternalEnumerator_1_System_Collections_IEnumerator_Reset_m1451164462_AdjustorThunk
zyc:__ZN13SpeedTreeWind20AdvanceWithoutUpdateEd
ybh:_ReadOnlyCollection_1_System_Collections_Generic_ICollectionU3CTU3E_Add_m1422506275_gshared
Zxf:_DateTime_System_IConvertible_ToDecimal_m1044850612
Uth:_List_1_IndexOf_m2206067159_gshared
Qxe:_InternalEnumerator_1_System_Collections_IEnumerator_Reset_m1318888374_AdjustorThunk
eaa:__ZN9ShaderLab19CommonPropertyNames13StaticCleanupEPv
G$:__Z31scripting_method_get_returntype18ScriptingMethodPtr
dPi:__ZL24UnresolvedVirtualCall_76P12Il2CppObjectPK10MethodInfo
R4a:__ZN15SerializeTraitsI12LightmapDataE8TransferI24GenerateTypeTreeTransferEEvRS0_RT_
Sqf:_SecurityElement_AddAttribute_m311510562
uSj:_glStencilOpSeparate__wrapper
Oac:__ZN4Mesh5SetUvEiPKfjj
S5a:__ZN7Texture13SetAnisoLimitENS_20AnisotropicFilteringE
bO:__ZN11AudioModule16SetListenerPauseEb
Vrd:_Attribute_IsDefined_m4069052474
Th:_emscripten_glCompressedTexSubImage2D
yDa:__ZN13GfxDeviceGLES22MemoryBarrierImmediateEyN2gl17MemoryBarrierTypeE
rWe:_U3CCaretBlinkU3Ec__Iterator0_Dispose_m860898205
eBa:__ZN6prcoreL26RemapGenericFloatToIntegerI18TexFormatARGBFloat17TexFormatARGB8888EEvPKNS_9InnerInfoE
yCh:_List_1_set_Capacity_m1977188119_gshared
hdc:__Z46GetShaderModelNumericValueFromRequirementsMask18ShaderRequirements
lCc:_cff_ps_has_glyph_names
Mbd:_DropdownItem_get_rectTransform_m3147806615
yag:_Dictionary_2_Resize_m3287623642_gshared
bBj:_GC_write
NJh:__ZL69RuntimeArray_CustomAttributesCacheGenerator_Array_SetValue_m394135409P21CustomAttributesCache
uld:_RC2_Create_m2516417038
Idd:_Graphic_OnPopulateMesh_m767318148
Skd:_HMACSHA512_set_ProduceLegacyHmacValues_m3961135292
d7f:_Dictionary_2_Remove_m4193450060_gshared
j8e:_ASN1_get_Tag_m1032367219
DKi:_StandardEventPayload_set_name_m549984672
dKd:_Int64_TryParse_m3606398488
Rni:_Array_InternalArray__set_Item_TisMark_t3471605523_m1299772331_gshared
Koc:__Z44Register_UnityEngine_GUIStyle_SetDefaultFontv
Pxb:__Z18Transfer_BlittableI18StreamedBinaryReadILb1EELb1EiEvRK29SerializationCommandArgumentsR31RuntimeSerializationCommandInfo
WA:__ZN9BlobWrite8TransferI22OffsetPtrArrayTransferIKN4math7_float3EEEEvRT_PKc17TransferMetaFlags
qIg:__Z173RuntimeInvoker_Int32_t2950945753_RuntimeObject_Int32_t2950945753_Int32_t2950945753_Int32_t2950945753_RuntimeObject_Int32_t2950945753_SByte_t1669577662_ContextU26_t3937453398PFvvEPK10MethodInfoPvPS4_
dwh:_List_1__ctor_m2576108087_gshared
pej:__ZN15dense_hashtableINSt3__24pairIK10KeyWrapperINS1_IPK12PropertyInfoP11Il2CppClassEEEjEES9_17ReflectionMapHashIS8_EN14dense_hash_mapIS9_jSD_NS9_14EqualsComparerINS0_8equal_toIS8_EEEENS0_9allocatorISB_EEE9SelectKeyESI_SK_E12maybe_shrinkEv
Cwi:_X509Certificate_get_DSA_m565099499
oyb:__Z18Transfer_BlittableI18StreamedBinaryReadILb1EELb1EsEvRK29SerializationCommandArgumentsR31RuntimeSerializationCommandInfo
EXf:_StringBuilder_Remove_m940064945
ojd:_DESCryptoServiceProvider_GenerateIV_m683687014
jgg:_GenericComparer_1__ctor_m1900257738_gshared
iGe:_InternalEnumerator_1_get_Current_m3792939945_gshared
IVc:__ZN22BaseUnityConnectClient17OnEnterStateReadyEv
R3e:_Text_get_fontSize_m1677872538
Jjd:_DSACryptoServiceProvider_get_PublicOnly_m3933928860
$$h:__ZL63X509ChainStatusFlags_t1026973125_CustomAttributesCacheGeneratorP21CustomAttributesCache
RTa:__ZN14GrowableBufferD2Ev
mhc:__Z29Input_CUSTOM_GetMouseButtonUpi
OGd:_Int16_Parse_m138525169
w7i:__ZN6il2cpp6icalls8mscorlib6System8MonoType16InternalGetEventEP20Il2CppReflectionTypeP12Il2CppStringi
aFi:_UriScheme_t722425697_marshal_pinvoke_back
dEc:_UNITY_tt_face_load_maxp
Bhc:__Z46Input_CUSTOM_INTERNAL_set_compositionCursorPosRK13Vector2fIcall
Et:__ZN7mecanim5human12FullBodyMaskEv
cmi:__ZL62Shadow_t773074319_CustomAttributesCacheGenerator_m_EffectColorP21CustomAttributesCache
Q6e:_BigInteger_ToString_m3475000413
dcb:__ZN19ShaderPropertySheet11ComputeHashEv
J1i:__ZN30dense_hashtable_const_iteratorI10KeyWrapperIPK19Il2CppGenericMethodES4_N6il2cpp8metadata23Il2CppGenericMethodHashEN14dense_hash_setIS4_S7_NS4_14EqualsComparerINS6_26Il2CppGenericMethodCompareEEENSt3__29allocatorIS4_EEE8IdentityESB_SE_EppEv
Yad:_Resources_t1597885468_marshal_pinvoke_cleanup
kzb:__ZN4PPtrI6ObjectE8TransferI18StreamedBinaryReadILb1EEEEvRT_
rT:__ZN11UnityEngine15CloudWebService20WebRequestRestClient6IsDoneEv
QCi:_Group__ctor_m2980794822
$ui:_X509CertificateCollection_get_Item_m1033426577
Gmh:_CachedInvokableCall_1_Invoke_m502907382_gshared
Qi:_llvm_fabs_f32
WS:__ZN11UnityEngine15CloudWebService16SessionContainer16GetJsonDataBlockEjRKN4core12basic_stringIcNS2_20StringStorageDefaultIcEEEERS6_PjSA_
f8e:_ASN1_Decode_m1695284166
mgj:__ZN15dense_hashtableINSt3__24pairIK10KeyWrapperIPK14Il2CppAssemblyEPK22Il2CppMonoAssemblyNameEES6_N6il2cpp5utils11PointerHashIS4_EEN14dense_hash_mapIS6_SA_SF_NS6_14EqualsComparerINS0_8equal_toIS5_EEEENS0_9allocatorISB_EEE9SelectKeyESK_SM_E13set_empty_keyERKSB_
T6g:_Collection_1_RemoveAt_m2240641437_gshared
iGf:_Enum_ToString_m3248653065
VZ:__ZN14SafeBinaryReadD2Ev
gOf:_SetPropertyUtility_SetStruct_TisFillMethod_t1167457570_m4164776730_gshared
V2b:__Z13RegisterClassI7TextureEvv
pqh:_Enumerator_MoveNext_m3859993671_gshared
Ezb:__ZN8Gradient8TransferI18StreamedBinaryReadILb1EEEEvRT_
dae:_SequentialSearchPrimeGeneratorBase_IsPrimeAcceptable_m1127740833
kkf:_Capture__ctor_m3103117740
U7a:__ZN4core8hash_mapINS_12basic_stringIcNS_20StringStorageDefaultIcEEEE13dynamic_arrayI4PPtrI6SpriteELj4EENS_4hashIS4_EENSt3__28equal_toIS4_EEEixERKS4_
oHg:__Z113RuntimeInvoker_Void_t1185182177_RuntimeObject_Int64_t3736567304_RuntimeObject_Int64_t3736567304_Int64_t3736567304PFvvEPK10MethodInfoPvPS4_
uwg:_RangeInt_get_end_m4128831787_AdjustorThunk
$oj:__ZN6il2cpp6icalls8mscorlib6System4Type15MakeGenericTypeEP20Il2CppReflectionTypeP11Il2CppArray
qj:_SDL_PauseAudio
wAd:_Hashtable_Clone_m3078962909
Aij:_il2cpp_class_from_type
y8i:__ZN6il2cpp2os4File11GetStdErrorEv
dYh:__ZL77Convert_t2465617642_CustomAttributesCacheGenerator_Convert_ToSByte_m516918950P21CustomAttributesCache
daa:__ZN9ShaderLab19CommonPropertyNames16StaticInitializeEPv
Cib:__ZN13MemoryManager31DisallowAllocationsOnThisThreadEv
uIe:_Comparer_1__cctor_m2517796511_gshared
$C:__ZN7mecanim9animation18CreateAvatarOutputEPKNS0_14AvatarConstantEbbRNS_6memory9AllocatorE
hqd:_Array_GetLongLength_m561139708
xMi:_DelegatePInvokeWrapper_PCMSetPositionCallback_t1059417452
H2e:_Slider_set_maxValue_m2251404465
q3e:_SpriteState_get_pressedSprite_m3868967445_AdjustorThunk
ZL:__ZN11AudioSource23VirtualRedirectTransferER24GenerateTypeTreeTransfer
yac:__ZN7Texture11SetWrapModeE15TextureWrapMode
FUc:__ZN14UnityAnalytics15SendCustomEventERN11UnityEngine9Analytics15UserCustomEventE
p8a:__ZN14Texture2DArray23VirtualRedirectTransferER14SafeBinaryRead
eSd:_MissingMemberException__ctor_m1220732369
cRb:__ZNK6Camera21CalculateCanDoShadowsEv
pWg:__Z52RuntimeInvoker_Void_t1185182177_Int32U26_t1369213839PFvvEPK10MethodInfoPvPS4_
llg:_Application_InvokeOnBeforeRender_m2875673833
Evj:__ZN6il2cpp2os6Thread12SetStackSizeEj
rZe:_MaskableGraphic_RecalculateMasking_m183336762
Esi:_Array_InternalArray__get_Item_TisRuntimeObject_m3347010206_gshared
_1d:_TypeBuilder_IsSubclassOf_m3458909121
tac:__ZNK8Renderer16IsVisibleInSceneEv
tZ:__Z13VFormatBufferPciPKcz
KAb:__Z18Transfer_BlittableI18StreamedBinaryReadILb0EELb1EhEvRK29SerializationCommandArgumentsR31RuntimeSerializationCommandInfo
Tmd:_X509Certificate__cctor_m198658613
iKg:__Z43RuntimeInvoker_MethodAttributes_t2366443849PFvvEPK10MethodInfoPvPS4_
svg:_PlayableHandle_Equals_m1666612586_AdjustorThunk
iBa:__ZN6prcoreL27StretchGenericFloatBilinearI15TexFormatRFloatEEvPKNS_9InnerInfoE
I$h:__ZL139ServicePointManager_t170559685_CustomAttributesCacheGenerator_ServicePointManager_t170559685____CheckCertificateRevocationList_PropertyInfoP21CustomAttributesCache
uGf:_Enum_ToObject_m1628250250
rw:__Z24ProcessAnimationMixBeginP35AnimationPlayableEvaluationConstantP32AnimationPlayableEvaluationInputP33AnimationPlayableEvaluationOutput
JAh:_List_1_set_Item_m2057272351_gshared
lya:__Z14PadImageBorderR14ImageReferenceii
Rcj:__ZN15dense_hashtableINSt3__24pairIK10KeyWrapperINS1_IPK10MethodInfoP11Il2CppClassEEEjEES9_17ReflectionMapHashIS8_EN14dense_hash_mapIS9_jSD_NS9_14EqualsComparerINS0_8equal_toIS8_EEEENS0_9allocatorISB_EEE9SelectKeyESI_SK_E4findERSA_
T4i:__ZN6il2cpp2vm13MetadataCache28GetFieldDefaultValueForFieldEPK9FieldInfo
yQf:_Array_IndexOf_TisUIVertex_t4057497605_m3336763564_gshared
f5g:__ZN21InterfaceFuncInvoker1I22OrderBlock_t1585977831iE6InvokeEjP11Il2CppClassP12Il2CppObjecti
Vw:__ZN27AnimationLayerMixerPlayableD2Ev
j9c:_ColorBlock_Equals_m518833916_AdjustorThunk
t7h:__ZL66PersistentCall_t3407714124_CustomAttributesCacheGenerator_m_TargetP21CustomAttributesCache
iI:__ZN12AudioManager39HandlePendingAudioConfigurationCallbackEv
nk:_emscripten_glIsFramebuffer
Haf:_RSAManaged_EncryptValue_m799827583
$1:__ZN12_GLOBAL__N_16qAtan2Eff
EEg:__Z61RuntimeInvoker_UInt32_t2560061978_RuntimeObject_RuntimeObjectPFvvEPK10MethodInfoPvPS4_
$_f:_ThreadAbortException__ctor_m1955533141
rk:_JS_Sound_SetLoopPoints
Rca:__ZN15dense_hashtableINSt3__24pairIKyP17VertexDeclarationEEy14GfxGenericHashIyEN14GfxDoubleCacheIyS4_S7_NS0_8equal_toIyEEN31GfxDoubleCacheConcurrencyPolicy11LocklessGetE42GfxDoubleCacheDefaultEmptyDeletedGeneratorIyEE9SelectKeyESA_13stl_allocatorIS5_L18MemLabelIdentifier24ELi16EEE14squash_deletedEv
lN:__ZN12AudioManager17ShouldSourcePauseEb
CFj:__ZN6il2cpp2vm26MetadataAllocGenericMethodEv
sNf:_Array_InternalArray__ICollection_Remove_TisUInt16_t2177724958_m1766181761_gshared
iHa:__ZN19ConstantBuffersGLES12RecordRenderEv
mph:_UnityEvent_1__ctor_m3675246889_gshared
hsc:__ZN9JSONWrite8TransferI10RectOffsetEEvRT_PKc17TransferMetaFlags
Sxa:__ZN4crnd12symbol_codec11decode_bitsEj
iZg:__Z59RuntimeInvoker_Boolean_t97287965_KeyValuePair_2_t3842366416PFvvEPK10MethodInfoPvPS4_
Ybe:_EncryptedPrivateKeyInfo__ctor_m3415744930
fAc:_cf2_doFlex
Tff:_AsnEncodedData__ctor_m3792312694
NIi:_AesManaged_GenerateIV_m1368817386
M7b:__ZN21FixedBehaviourManagerD0Ev
SRa:__ZN13dynamic_arrayI17SortingLayerEntryLj4EE6insertEPS0_jRKS0_
mI:__ZN4FMOD6System12createReverbEPPNS_6ReverbE
Hyj:__ZN6il2cpp2vm6String21InitializeEmptyStringEP11Il2CppClass
Mw:__ZN7mecanim19ValueArrayBlendNodeILb1EEEvRKNS_10ValueArrayERKNS_14ValueArrayMaskERS1_RS4_RNS_16ValueArrayWeightEf
qid:_CodeAccessPermission_GetHashCode_m880096813
Eib:__Z16MarkDependenciesR27GarbageCollectorThreadStatej
rWd:_AssemblyConfigurationAttribute__ctor_m3236176989
lTi:_ObjectPool_1_get_countInactive_m526975942_gshared
yse:_RemotingServices_DisposeIdentity_m2605848806
l2:__ZNK9Transform11GetPositionEv
INd:_WriteDelegate_EndInvoke_m952736984
kmg:_Bounds_set_size_m4127623202
PFd:_GuidParser_Reset_m2640004655
FWa:__ZN23SharedMeshRenderingData18UnloadVertexStreamEi
a8b:__ZN31CanvasBatchIntermediateRenderer11AddSubBatchERK16DrawBuffersRangePK19ShaderPropertySheet
K6b:__ZN19RenderEventsContextC2Ei
gR:__Z6simd4fRKf
g5h:__ZL67SceneManager_t2787271929_CustomAttributesCacheGenerator_sceneLoadedP21CustomAttributesCache
BJf:_GregorianCalendar_GetEra_m2369958449
Vk:_emscripten_glEnable
FAe:_InternalEnumerator_1_System_Collections_IEnumerator_get_Current_m2982675020_gshared
LRa:__ZN10TagManager23VirtualRedirectTransferER14SafeBinaryRead
Pii:__ZL51RawImage_t3182918964_CustomAttributesCacheGeneratorP21CustomAttributesCache
Zah:_Collection_1_System_Collections_IList_get_Item_m2931804586_gshared
jse:_ObjRef_get_EnvoyInfo_m1782007847
owh:_List_1_System_Collections_ICollection_get_IsSynchronized_m3331050698_gshared
NTb:__Z15InitLightMeshesv
H3d:_MonoCMethod_ToString_m3992577062
j9i:_RaycastHit_get_collider_m1464180279
QQi:__ZL25UnresolvedVirtualCall_169P12Il2CppObject20UIVertex_t4057497605PK10MethodInfo
Dn:FUNCTION_TABLE_iifiii
sZi:__ZNK15dense_hashtableINSt3__24pairIK10KeyWrapperIPK22Il2CppGenericParameterEP11Il2CppClassEES6_N6il2cpp5utils11PointerHashIS4_EEN14dense_hash_mapIS6_S9_SE_NS6_14EqualsComparerINS0_8equal_toIS5_EEEENS0_9allocatorISA_EEE9SelectKeyESJ_SL_E10test_emptyEj
Yhh:_ReadOnlyCollection_1_System_Collections_IList_Contains_m2904046095_gshared
N5a:__ZN15QualitySettings8TransferI19StreamedBinaryWriteILb0EEEEvRT_
Obi:__ZL56GUISkin_t1244372282_CustomAttributesCacheGenerator_m_boxP21CustomAttributesCache
AYe:_LayoutUtility_U3CGetFlexibleHeightU3Em__7_m2991026842
awb:__Z18Transfer_BlittableI19StreamedBinaryWriteILb0EELb1E8Vector2fEvRK29SerializationCommandArgumentsR31RuntimeSerializationCommandInfo
Jzc:_cf2_arrstack_init
Nsi:_Array_InternalArray__get_Item_TisResourceCacheItem_t51292791_m1306056717_gshared
aVg:__Z157RuntimeInvoker_Void_t1185182177_RuntimeObject_RuntimeObject_RuntimeObject_RuntimeObject_RuntimeObject_RuntimeObject_RuntimeObject_RuntimeObject_RuntimeObjectPFvvEPK10MethodInfoPvPS4_
c2c:_EventSystem_get_pixelDragThreshold_m1103650852
jX:__Z15CleanLogHandler7LogTypePKcz
IUd:_NumberFormatter_NumberToString_m2481532188
Hla:__ZN9ShaderLab19SerializedSubShader8TransferI19StreamedBinaryWriteILb0EEEEvRT_
S0e:_ScrollRect_InternalGetBounds_m599803667
fNe:_Enumerator_MoveNext_m76191888_gshared
IH:__ZN14AudioBehaviour15ThreadedCleanupEv
aEb:__ZN6Camera17RemoveImageFilterERK11ImageFilter
mna:__ZNSt3__218__insertion_sort_3IR25ValueParameterArraySorterPN20GpuProgramParameters14ValueParameterEEEvT0_S6_T_
y2h:__ZL90Display_t1387065949_CustomAttributesCacheGenerator_Display_GetRenderingExtImpl_m2069813991P21CustomAttributesCache
w$h:__ZL67EditorBrowsableAttribute_t1475454531_CustomAttributesCacheGeneratorP21CustomAttributesCache
Bzd:_Comparer__cctor_m3311686689
hRc:__ZZN2UI11CanvasGroup15InitializeClassEvEN38FunctorImpl_117kTransformParentChanged4CallEPviR11MessageData
B6c:_UIBehaviour_OnDidApplyAnimationProperties_m2143584361
n1h:__ZL102SystemInfo_t3561985952_CustomAttributesCacheGenerator_SystemInfo_get_operatingSystemFamily_m4256884728P21CustomAttributesCache
hef:_HttpWebRequest_get_Address_m2672661563
X0f:_TimeZone__ctor_m1831364098
Uej:__ZNK10KeyWrapperINSt3__24pairIPK9EventInfoP11Il2CppClassEEE14EqualsComparerINS0_8equal_toIS7_EEEclERKS8_SE_
hAe:_InternalEnumerator_1_get_Current_m3500427238_AdjustorThunk
XQc:__ZN2UI26InitializeDeviceForOverlayEi
e9:__Z27LogRepeatingStringWithFlagsRKN4core12basic_stringIcNS_20StringStorageDefaultIcEEEE15LogMessageFlagsi
R4f:_UInt64_System_IConvertible_ToSingle_m925613075
CNe:_KeyCollection_System_Collections_Generic_IEnumerableU3CTKeyU3E_GetEnumerator_m525473090_gshared
vGf:_Enum_IsDefined_m1442314461
A_f:_Thread__cctor_m817723615
FMi:_AudioExtensionManager_RegisterBuiltinDefinitions_m2742744104
du:__ZN17AnimationPlayable28ComputeNeedsBindingRebuildedEv
kt:__ZN17AnimationPlayable23RequestAllocateBindingsEv
Wji:__ZL66Slider_t3903728902_CustomAttributesCacheGenerator_m_OnValueChangedP21CustomAttributesCache
cxf:_DecoderReplacementFallbackBuffer_Fallback_m1261056214
WMb:__ZNSt3__227__insertion_sort_incompleteIRPFbP10GUIElementS2_EPS2_EEbT0_S7_T_
TWd:_Binder_get_DefaultBinder_m950908649
CMd:_StreamReader__ctor_m1616861391
$Wh:__ZL59ArgumentException_t132251570_CustomAttributesCacheGeneratorP21CustomAttributesCache
zYc:__ZN18UnityConnectClient33OnPlayerSessionStateChangedStaticEPS_jyy
mnf:_RSA_ToXmlString_m2922661427
bU:__ZNK11UnityEngine15CloudWebService23WebRequestUploadHandler11GetProgressEv
Sua:__ZN7ApiGLES4LoadE16GfxDeviceLevelGL
c5a:__ZN18StreamedBinaryReadILb0EE21TransferSTLStyleArrayI13dynamic_arrayI31EnlightenSystemAtlasInformationLj8EEEEvRT_17TransferMetaFlags
Jbi:__ZL61GUIContent_t3050628031_CustomAttributesCacheGenerator_m_ImageP21CustomAttributesCache
Mxc:__ZN5physx15PxErrorCallbackD2Ev
rsj:__ZN15dense_hashtableI10KeyWrapperIP18Il2CppGenericClassES3_N6il2cpp8metadata22Il2CppGenericClassHashEN14dense_hash_setIS3_S6_NS3_14EqualsComparerINS5_25Il2CppGenericClassCompareEEENSt3__29allocatorIS3_EEE8IdentityESA_SD_E15insert_noresizeERKS3_
R5b:__ZZL31RegisterOtherRendererPropertiesR22GenericPropertyBindingEN30Wrapper_RendererReceiveShadows13GetFloatValueEPv
FQi:__ZL25UnresolvedVirtualCall_158P12Il2CppObject22OrderBlock_t1585977831S1_PK10MethodInfo
QLf:_Array_InternalArray__ICollection_Contains_TisSlot_t384495010_m688761886_gshared
v3a:__ZN17SharedTextureDataC2E10MemLabelIdii13TextureFormatjiibb
ZWg:__Z114RuntimeInvoker_RuntimeObject_RuntimeObject_Int32_t2950945753_Int32_t2950945753_Int32_t2950945753_Int32_t2950945753PFvvEPK10MethodInfoPvPS4_
hHb:__ZN8Material11SetPassFastEPN9ShaderLab4PassER17ShaderPassContextP6Shaderib
k6a:__ZNK13ScreenManager13GetLockCursorEv
xYc:__ZN11UnityEngine7Connect20BasePersistentValues10SaveValuesER9JSONWrite
z8g:_Collection_1_IsFixedSize_m3748602684_gshared
$xf:_DateTime_System_IConvertible_ToDouble_m2116720007
dpg:_Display_GetSystemExtImpl_m2808197389
O$f:_WaitHandle_WaitOne_m2577152516
Gmd:_X509Certificate_PEM_m1177570576
QTh:__ZL46DSA_t2386879874_CustomAttributesCacheGeneratorP21CustomAttributesCache
Ove:_ArrayReadOnlyList_1_GetEnumerator_m1835926958_gshared
Bbc:__Z14ScaleCurveTimeR17AnimationCurveTplIfEf
rca:__ZN22VirtualJoystickManagerC2Ev
Tba:__ZN20GlobalCachingManager7DisposeEv
aOb:__Z12SetupLODFadeR9GfxDeviceR17ShaderPassContextf
n1a:__ZNK14PlayableOutput7GetTypeEv
sNe:_KeyCollection_System_Collections_ICollection_get_IsSynchronized_m883344495_gshared
YKh:__ZL69Type_t_CustomAttributesCacheGenerator_Type_GetConstructors_m576905011P21CustomAttributesCache
ATb:__ZL24CollectForwardObjectsJobP27CollectForwardObjectsHeader
k4i:__ZNK15dense_hashtableINSt3__24pairIK10KeyWrapperIPK11Il2CppClassEPKcEES6_N6il2cpp5utils11PointerHashIS3_EEN14dense_hash_mapIS6_S9_SE_NS6_14EqualsComparerINS0_8equal_toIS5_EEEENS0_9allocatorISA_EEE9SelectKeyESJ_SL_E12test_deletedERK24dense_hashtable_iteratorISA_S6_SE_SN_SJ_SL_E
vVb:__Z13IsNodeVisibleRK9SceneNodeRK4AABBRK22SceneCullingParameters
aRf:_Array_InternalArray__IndexOf_TisLabelFixup_t858502054_m1491765395_gshared
BHg:__Z44RuntimeInvoker_RuntimeTypeHandle_t3027515415PFvvEPK10MethodInfoPvPS4_
wHe:__ZN21InterfaceFuncInvoker1IibE6InvokeEjP11Il2CppClassP12Il2CppObjectb
D5e:_SortKeyBuffer_AppendCJKExtension_m2591091991
QSc:__Z57RectTransformUtility_CUSTOM_INTERNAL_CALL_PixelAdjustRectP12Il2CppObjectS0_R5RectTIfE
gZf:_UTF8Encoding_GetByteCount_m4153686982
vWb:__Z24ScheduleCullingAllGroupsR8JobFenceRK22SceneCullingParametersiRK13CullingOutputRK13dynamic_arrayIP12CullingGroupLj4EERKS_
LVj:_emscripten_glStencilMask__wrapper
dGg:__Z49RuntimeInvoker_Void_t1185182177_Double_t594665363PFvvEPK10MethodInfoPvPS4_
z1i:__ZN15dense_hashtableI10KeyWrapperIPK19Il2CppGenericMethodES4_N6il2cpp8metadata23Il2CppGenericMethodHashEN14dense_hash_setIS4_S7_NS4_14EqualsComparerINS6_26Il2CppGenericMethodCompareEEENSt3__29allocatorIS4_EEE8IdentityESB_SE_EC2ERKSH_j
LTa:__ZN15RenderNodeQueue7CleanupEv
wOf:_Array_InternalArray__IEnumerable_GetEnumerator_TisByte_t1134296376_m1979205379_gshared
r5d:_MonoProperty_CreateGetterDelegate_m2478402519
Kxc:__ZN16NovodexAllocator8allocateEjPKcS1_i
f0a:__ZN39DeprecatedFastPropertyNameSerialization8TransferI14SafeBinaryReadEEvRT_
twi:_DeriveBytes_DeriveIV_m973925711
FId:_Int32_System_IConvertible_ToSByte_m3133688512
WNi:__ZL24UnresolvedVirtualCall_13P12Il2CppObjectaPK10MethodInfo
itj:__ZN15dense_hashtableINSt3__24pairIK10KeyWrapperIP12Il2CppObjectEN6il2cpp2gc9CachedCCWEEES5_NS7_5utils11PointerHashIS3_EEN14dense_hash_mapIS5_S9_SD_NS5_14EqualsComparerINS0_8equal_toIS4_EEEENS0_9allocatorISA_EEE9SelectKeyESI_SK_E12expand_arrayEjN21dense_hash_map_traits17integral_constantIbLb0EEE
Zhh:_ReadOnlyCollection_1_System_Collections_IList_IndexOf_m848971554_gshared
xTb:__ZN9ShaderLab10GrabPassesD2Ev
$0e:_ScrollRect_CalculateOffset_m927043599
A8a:__ZN14Texture2DArray13UploadTextureEv
bZe:_MaskableGraphic_UpdateCull_m2805101913
MEc:_tt_cmap14_done
Agb:__ZN18AwakeFromLoadQueue25RegisterObjectInstanceIDsEv
Yni:_Array_InternalArray__set_Item_TisColor32_t2600501292_m1891325855_gshared
_w:__ZNK27AnimationLayerMixerPlayable11DerivesFromE17ScriptingClassPtr
YKc:__ZN20TextRenderingPrivate19NativeTextGenerator15InsertCharacterEiPj
QIg:__Z77RuntimeInvoker_Void_t1185182177_RuntimeObject_SByte_t1669577662_RuntimeObjectPFvvEPK10MethodInfoPvPS4_
wJg:__Z81RuntimeInvoker_Void_t1185182177_RuntimeObject_SByte_t1669577662_SByte_t1669577662PFvvEPK10MethodInfoPvPS4_
fTd:_MonoType_get_attributes_m1332507727
EGi:_GUIContent_ClearStaticCache_m1205116045
iyh:_List_1_System_Collections_IList_get_IsFixedSize_m203251153_gshared
Hv:__ZN17AnimationPlayableD0Ev
Uwb:__Z18Transfer_BlittableI19StreamedBinaryWriteILb0EELb0EyEvRK29SerializationCommandArgumentsR31RuntimeSerializationCommandInfo
Fte:_BinaryCommon__cctor_m2978407547
Oud:_Char_System_IConvertible_ToByte_m2347554595
Hhh:_ReadOnlyCollection_1_GetEnumerator_m1017886827_gshared
ZLh:__ZL47ASN1_t2114160832_CustomAttributesCacheGeneratorP21CustomAttributesCache
FMc:__ZN20TextRenderingPrivate15DynamicFontData21GetFontMetricsForFaceERK13dynamic_arrayIN4core17string_with_labelILi35EEELj4EEiRKS1_I4PPtrIN13TextRendering4FontEELj4EEPfSF_
Gph:_IndexedSet_1__ctor_m2250384602_gshared
ycg:_DefaultComparer__ctor_m1306123661_gshared
t3f:_UInt16_TryParse_m4139137016
tvj:__ZN6il2cpp5utils13dynamic_arrayIPNS_2os6ThreadELj4EE9push_backEv
qxj:__ZN6il2cpp2gc16GarbageCollector9FreeFixedEPv
aWf:_Encoding__ctor_m2997749867
ksg:_ManagedStreamHelpers_ManagedStreamSeek_m3158782053
mDi:_ExpressionAssertion_Compile_m2166597834
tDb:__ZN16ScriptingManagerD0Ev
ktf:_Single_System_IConvertible_ToSByte_m1208276900_AdjustorThunk
Yzj:__ZN6il2cpp6icalls8mscorlib6System7Convert24InternalFromBase64StringEP12Il2CppStringb
Tdg:_EqualityComparer_1__ctor_m2241711498_gshared
yRh:__ZL58ChannelServices_t3942013484_CustomAttributesCacheGeneratorP21CustomAttributesCache
Xqj:__ZN30dense_hashtable_const_iteratorINSt3__24pairIK10KeyWrapperINS1_IPKcS4_EEEiEES6_24NamespaceAndNamePairHashN14dense_hash_mapIS6_iS9_NS6_14EqualsComparerI26NamespaceAndNamePairEqualsEENS0_9allocatorIS8_EEE9SelectKeyESD_SF_EppEv
Nfc:__Z44Register_UnityEngine_Component_get_transformv
$_g:__Z48RuntimeInvoker_Void_t1185182177_Link_t3209266973PFvvEPK10MethodInfoPvPS4_
_B:__ZN12_GLOBAL__N_120ProcessPlayableGraphERN8Animator11AnimatorJobER35AnimationPlayableEvaluationConstantR32AnimationPlayableEvaluationInputR33AnimationPlayableEvaluationOutputPFvS4_R17AnimationPlayableEPFvS4_S6_S8_EPFvS8_S4_S6_S8_fESE_MS9_FvPS3_PS5_PS7_E
tWi:_CanvasRenderer_get_absoluteDepth_m2703237819
CKf:_TextInfo_ToLower_m2744057472
eKb:__ZN17ArchiveFileSystem12MountArchiveEPKcS1_
Ofg:_EqualityComparer_1_System_Collections_IEqualityComparer_Equals_m3977314386_gshared
mrc:__Z18Transfer_BlittableI9JSONWriteLb1E8Vector4fEvRK29SerializationCommandArgumentsR31RuntimeSerializationCommandInfo
zn:FUNCTION_TABLE_viififiii
JHf:_CCGregorianCalendar_year_from_fixed_m463929682
bPc:__ZN2UI13CanvasManagerD0Ev
PX:__ZThn32_NK8Renderer14GetSubsetIndexEi
Aog:_Debug_get_unityLogger_m2239795986
Hbh:_ReadOnlyCollection_1_System_Collections_IEnumerable_GetEnumerator_m2123446296_gshared
kbe:_MD2Managed_Initialize_m2341076836
Whh:_ReadOnlyCollection_1_System_Collections_IList_Add_m4240023232_gshared
Hra:__ZN9GfxDevice15ImmediateVertexEfff
E2b:__Z13RegisterClassI8MaterialEvv
n4a:__ZNK16LightmapSettings22GetTypeVirtualInternalEv
nUa:__ZN16GraphicsSettings13AwakeFromLoadE17AwakeFromLoadMode
$p:__ZN6Object13AwakeFromLoadE17AwakeFromLoadMode
Zoa:__ZN13GfxDeviceGLES15SetStencilStateEPK18DeviceStencilStatei
Ctd:_Buffer_BlockCopyInternal_m418318694
_Jj:_cycle
wlg:_AssetBundleCreateRequest_t3119663542_marshal_pinvoke
Ozj:__ZN6il2cpp2vm8Profiler7GCEventE13Il2CppGCEvent
QHg:__Z76RuntimeInvoker_Void_t1185182177_RuntimeObject_RuntimeFieldHandle_t1871169219PFvvEPK10MethodInfoPvPS4_
Kwi:_PKCS12_Finalize_m507756088
Gd:_emscripten_glUniform1iv
Zfg:_EqualityComparer_1_get_Default_m1095255266_gshared
qmb:__ZN16MemoryFileSystemD2Ev
fIg:__Z150RuntimeInvoker_Int32_t2950945753_RuntimeObject_Int32_t2950945753_Int32_t2950945753_RuntimeObject_Int32_t2950945753_Int32_t2950945753_Int32_t2950945753PFvvEPK10MethodInfoPvPS4_
gsd:_BitConverter_DoubleToInt64Bits_m3574395137
Dzf:_DateTime_Parse_m3729096069
iwh:_List_1_System_Collections_IList_Add_m1540114404_gshared
Awe:_InternalEnumerator_1_System_Collections_IEnumerator_Reset_m81420524_AdjustorThunk
vfc:__Z37Register_UnityEngine_Camera_get_depthv
z3g:__Z92RuntimeInvoker_RuntimeObject_SByte_t1669577662_SByte_t1669577662_RuntimeObject_RuntimeObjectPFvvEPK10MethodInfoPvPS4_
kQd:_StringReader_Read_m3322058819
Kle:_CrossAppDomainChannel_get_ChannelPriority_m3418073750
Xcg:_EqualityComparer_1__ctor_m1860346363_gshared
ZVe:_Selectable_StartColorTween_m3618813981
B1c:_BaseInputModule_HandlePointerExitAndEnter_m1705532066
i2d:_EventInfo__ctor_m3033129999
g2b:__ZN15ApplicationInfo16GetInstallerNameEv
S$b:__Z23ConvertIntegerToTypePtrItEbPvR14SafeBinaryRead
hEf:_Delegate_CombineImpl_m3572135514
pHd:_NumberFormatter_IntegerToString_m1679294587
yof:_SHA256Managed_AddLength_m1060552216
mfh:_ReadOnlyCollection_1_System_Collections_IList_RemoveAt_m422909114_gshared
FC:__ZN7mecanim5human29HumanGetGoalOrientationOffsetENS0_4GoalE
Xd:_emscripten_glStencilFunc
qli:__ZL78LayoutRebuilder_t541313304_CustomAttributesCacheGenerator_U3CU3Ef__amU24cache2P21CustomAttributesCache
Zqi:_Dictionary_2_Do_CopyTo_TisKeyValuePair_2_t3699644050_TisRuntimeObject_m2224738096_gshared
PNi:__ZL23UnresolvedVirtualCall_6P12Il2CppObjectiPK10MethodInfo
n5c:__Z46il2cpp_codegen_get_marshal_directive_exceptionPKc
CTe:_InputField_get_isFocused_m709836844
ce:_glGetActiveUniformBlockName
Nei:__ZL90PointerEventData_t3807901092_CustomAttributesCacheGenerator_U3CpointerIdU3Ek__BackingFieldP21CustomAttributesCache
Nf:_emscripten_glUniform1fv
HDi:_Parser_IsIgnoreCase_m2210120858
Thc:__Z39Quaternion_CUSTOM_INTERNAL_CALL_InverseRK11QuaternionfRS_
$Ta:__ZNK4PPtrI5FlareEcvPS0_Ev
hJ:__ZN4FMOD7Channel20set3DConeOrientationEP11FMOD_VECTOR
qn:FUNCTION_TABLE_iiifii
XXd:_AssemblyBuilder_not_supported_m1735277432
YEe:_InternalEnumerator_1_MoveNext_m1344185775_AdjustorThunk
xuj:__ZN6il2cpp2vm12GenericClass11SetupEventsEP11Il2CppClass
KHc:_tt_delta_interpolate
iFc:_tt_cmap12_get_info
fqj:__ZN6il2cpp2vm15ReboxIReferenceEP14Il2CppIUnknownP11Il2CppClass
Jkg:_Enumerator__ctor_m2029608698_AdjustorThunk
OXi:__ZN6il2cpp6icalls8mscorlib6System7Decimal14decimalCompareEP19il2cpp_decimal_reprS5_
c7f:_Dictionary_2_OnDeserialization_m4209543208_gshared
tAj:__ZThn4_N6il2cpp2vm13CachedCCWBaseINS0_13ManagedObjectEE7ReleaseEv
arg:_GameObject_AddComponent_m136524825
sSh:__ZL62SoapMethodAttribute_t1935009310_CustomAttributesCacheGeneratorP21CustomAttributesCache
vRg:__Z100RuntimeInvoker_Void_t1185182177_RuntimeObject_Int32_t2950945753_Int32_t2950945753_UInt16_t2177724958PFvvEPK10MethodInfoPvPS4_
h1a:__ZNSt3__26__treeINS_12__value_typeIN9ShaderLab16FastPropertyNameE10ColorRGBAfEENS_19__map_value_compareIS3_S5_NS_4lessIS3_EELb1EEENS_9allocatorIS5_EEE12__find_equalIS3_EERPNS_16__tree_node_baseIPvEENS_21__tree_const_iteratorIS5_PNS_11__tree_nodeIS5_SF_EEiEESI_RKT_
VVj:_glCopyTexImage2D__wrapper
nFf:_Double_System_IConvertible_ToUInt32_m271206838
V7:__GLOBAL__sub_I_runtime_graphics_billboard_0_cpp
sHb:__Z18ClearByDrawingQuad13GfxClearFlagsRK10ColorRGBAffjR17ShaderPassContext
HAa:__ZN6prcoreL17RemapGenericFloatI14TexFormatRHalf15TexFormatRFloatEEvPKNS_9InnerInfoE
QAc:_cf2_getBlueValues
RNb:__Z16ShouldUseShadowsb
oea:__ZN15DirectorManager21RebuildStageCallbacksEv
FHb:__ZN19RuntimeSceneManager9LoadSceneERKN4core12basic_stringIcNS0_20StringStorageDefaultIcEEEES6_S6_RK9UnityGUIDiNS_11LoadingModeE
mOi:__ZL24UnresolvedVirtualCall_31P12Il2CppObjectiS0_S0_PK10MethodInfo
Zta:__ZN7ApiGLES10DrawArraysE16GfxPrimitiveTypejjj
EG:__ZN10SampleClip13LoadBaseSoundEv
Vnd:_SmallXmlParser_SkipWhitespaces_m4243606597
xIf:_CompareInfo_IndexOf_m2631915198
DYd:_ConstructorBuilder_GetCustomAttributes_m2495332786
qpe:_MethodCall__ctor_m3669645
pud:_Byte_CompareTo_m4285128861
U2c:_TriggerEvent__ctor_m87299207
MPg:__Z48RuntimeInvoker_ExchangeAlgorithmType_t1320888206PFvvEPK10MethodInfoPvPS4_
nQ:__Z57AudioSource_CUSTOM_INTERNAL_CALL_ClearExtensionPropertiesP12Il2CppObjectRK12PropertyName
Ltj:__ZN15dense_hashtableINSt3__24pairIK10KeyWrapperIP12Il2CppObjectEN6il2cpp2gc9CachedCCWEEES5_NS7_5utils11PointerHashIS3_EEN14dense_hash_mapIS5_S9_SD_NS5_14EqualsComparerINS0_8equal_toIS4_EEEENS0_9allocatorISA_EEE9SelectKeyESI_SK_E15insert_noresizeERKSA_
hde:_CertificateValidationCallback2__ctor_m1685875113
$ca:__ZL50StaticRegisterSceneLoadedCallback_LightmapSettingsPv
j1a:__ZN22DeviceMVPMatricesStateC2ER9GfxDevice
AIh:__ZL48Double_t594665363_CustomAttributesCacheGeneratorP21CustomAttributesCache
an:FUNCTION_TABLE_iifii
Yrg:_Logger_set_logEnabled_m1180597166
W6a:__ZNSt3__26vectorI13dynamic_arrayI8Vector2fLj4EENS_9allocatorIS3_EEE6assignINS_11__wrap_iterIPS3_EEEENS_9enable_ifIXaasr21__is_forward_iteratorIT_EE5valuesr16is_constructibleIS3_NS_15iterator_traitsISC_E9referenceEEE5valueEvE4typeESC_SC_
u4a:__ZN21EnlightenSceneMapping8TransferI14SafeBinaryReadEEvRT_
Qhj:__ZN6il2cpp2vm10Reflection12HasAttributeEP9FieldInfoP11Il2CppClass
Pm:FUNCTION_TABLE_iiffi
kc:invoke_viiifi
q5d:_MonoProperty_GetCustomAttributes_m3619796755
G7i:__ZNSt3__214__split_bufferIP11Il2CppClassRNS_9allocatorIS2_EEEC2EjjS5_
Aqe:_MethodDictionary_System_Collections_IEnumerable_GetEnumerator_m4169036899
_nd:__ZN23InterfaceActionInvoker2IP8String_tP12Il2CppObjectE6InvokeEjP11Il2CppClassS3_S1_S3_
eMa:__ZNK11AssetBundle14GetPreloadDataEiR13dynamic_arrayIiLj4EE
Omf:_RIPEMD160Managed_JJJ_m4161373884
Dle:_CrossContextChannel__ctor_m3755842292
$ag:_DefaultComparer_Equals_m3257444875_gshared
mf:_JS_Sound_SetPosition
dZa:__ZN19RenderBufferManager13GetTempBufferEii17DepthBufferFormat19RenderTextureFormatj22RenderTextureReadWrite14VRTextureUsagei23RenderTextureMemoryless
t4i:__ZL13GetSharedInstPK17Il2CppGenericInst
pfi:__ZL98PointerEventData_t3807901092_CustomAttributesCacheGenerator_PointerEventData_get_delta_m1062010255P21CustomAttributesCache
dvh:_List_1_get_Count_m634446588_gshared
QVc:__ZN22BaseUnityConnectClient17SaveSessionValuesEv
kye:_InternalEnumerator_1_get_Current_m476140818_gshared
Nxh:_List_1_Sort_m4240158523_gshared
mDg:_WaitForEndOfFrame__ctor_m1381314187
DTb:__Z24SetupActiveLightsContextR21ActiveLightingContextRK12ActiveLightsRK11CullResultsP14ShadowMapCacheRK10MinMaxAABB
N6c:_AnimationTriggers_set_disabledTrigger_m933056574
ajc:__Z38Sprite_CUSTOM_INTERNAL_get_textureRectP12Il2CppObjectP5RectTIfE
Cgj:__ZNK15dense_hashtableINSt3__24pairIK10KeyWrapperIPK22Il2CppGenericParameterEPK24MonoGenericParameterInfoEES6_N6il2cpp5utils11PointerHashIS4_EEN14dense_hash_mapIS6_SA_SF_NS6_14EqualsComparerINS0_8equal_toIS5_EEEENS0_9allocatorISB_EEE9SelectKeyESK_SM_E3endEv
Cuh:_List_1_Add_m238442097_gshared
edc:__ZN9TextAsset7SetTextERKN4core12basic_stringIcNS0_20StringStorageDefaultIcEEEE
ISa:__ZN6Camera8TransferI24GenerateTypeTreeTransferEEvRT_
Ha:invoke_iiiiiiif
Ea:invoke_iiiiiiii
jVf:_Array_InternalArray__set_Item_TisByte_t1134296376_m3104140039_gshared
Gxg:_Rect_ToString_m447614148
Xwi:_PKCS12_GetBytes_m415958948
nfe:_Context_get_HandshakeState_m2425796590
VWb:__ZN8Renderer17PendingAddToSceneEv
B9g:_Collection_1_System_Collections_IList_set_Item_m2625856224_gshared
QYj:b122
TYj:b125
SYj:b124
VYj:b127
UYj:b126
BQi:__ZL25UnresolvedVirtualCall_154P12Il2CppObject39CustomAttributeNamedArgument_t287865710S1_PK10MethodInfo
tic:__Z52Register_UnityEngine_RectTransform_INTERNAL_get_rectv
xtg:_Mesh_SetSizedArrayForChannel_m2565120436
E_:__Z21PostprocessStacktracePKcRN4core12basic_stringIcNS1_20StringStorageDefaultIcEEEE
lsg:_ManagedStreamHelpers_ManagedStreamLength_m2930872960
veb:__ZN18StreamedBinaryReadILb0EE21TransferSTLStyleArrayI13dynamic_arrayI16SplashScreenLogoLj4EEEEvRT_17TransferMetaFlags
Hvi:_BasicConstraintsExtension_Encode_m2009213240
Gfc:__Z47Register_UnityEngine_Camera_get_allCamerasCountv
u8c:___clang_call_terminate
TVc:__ZN22BaseUnityConnectClient20StartEventDispatcherEv
Tac:__ZNSt3__26vectorIj13stl_allocatorIjL18MemLabelIdentifier1ELi16EEE6assignIPKtEENS_9enable_ifIXaasr21__is_forward_iteratorIT_EE5valuesr16is_constructibleIjNS_15iterator_traitsIS9_E9referenceEEE5valueEvE4typeES9_S9_
qB:__ZN7mecanim9animation16EvaluateAvatarIKEPKNS0_14AvatarConstantEPKNS0_11AvatarInputEPNS0_12AvatarOutputEPNS0_12AvatarMemoryEPNS0_15AvatarWorkspaceEb
nCa:__ZL25ProgramUniformMatrix4x3fvPK7ApiGLESjiihPKv
j$b:__Z29StdTemplateConversionFunctionIsiEbPvR14SafeBinaryRead
qLb:__ZN12InputManager13InputEndFrameEv
T6i:__ZNSt3__26__treeIP11Il2CppClassNS_4lessIS2_EENS_9allocatorIS2_EEE25__emplace_unique_key_argsIS2_JRKS2_EEENS_4pairINS_15__tree_iteratorIS2_PNS_11__tree_nodeIS2_PvEEiEEbEERKT_DpOT0_
Mtg:_Object_get_name_m4211327027
Clj:__ZN6il2cpp2vm6Thread5SetupEP12Il2CppThread
adh:_ReadOnlyCollection_1_System_Collections_IList_get_IsReadOnly_m1248651675_gshared
ULe:_Enumerator_System_Collections_IDictionaryEnumerator_get_Key_m2500634048_gshared
KTi:_TextGenerator_t3211863866_marshal_pinvoke_back
dLj:___munmap
dg:_localtime_r
wMb:__ZN22RenderingCommandBuffer13GetAndCheckRTE24BuiltinRenderTextureTypeRKN9ShaderLab16FastPropertyNameEPKcPP13RenderTexture
Qca:__ZN14GfxDoubleCacheIyP17VertexDeclaration14GfxGenericHashIyENSt3__28equal_toIyEEN31GfxDoubleCacheConcurrencyPolicy11LocklessGetE42GfxDoubleCacheDefaultEmptyDeletedGeneratorIyEEC2Ev
gBe:_InternalEnumerator_1_System_Collections_IEnumerator_Reset_m3619766341_AdjustorThunk
_W:__Z19free_alloc_internalPv10MemLabelId
pSh:__ZL56ReturnMessage_t1376985608_CustomAttributesCacheGeneratorP21CustomAttributesCache
IYf:_UTF32Decoder_GetChars_m1925558948
gg:_strftime
eFa:__ZN7Texture33SetStoredColorSpaceNoDirtyNoApplyE17TextureColorSpace
d7d:_ResourceSet__ctor_m3618395942
jCf:_Decimal_System_IConvertible_ToDouble_m3125524987_AdjustorThunk
F1:__ZN12FileAccessorD2Ev
p7:__ZN10ColorRGBAf8TransferI18StreamedBinaryReadILb0EEEEvRT_
SWa:__ZN14VertexDataInfoC2Ev
axj:__ZN6il2cpp2gc16GarbageCollector14CollectALittleEv
w4h:__ZL87Sprite_t280657092_CustomAttributesCacheGenerator_Sprite_INTERNAL_get_border_m3728071101P21CustomAttributesCache
B8b:__ZNK9HPlayable15GetPlayableTypeEv
w0g:__Z117RuntimeInvoker_Void_t1185182177_CustomAttributeTypedArgumentU5BU5DU26_t2503877664_Int32_t2950945753_Int32_t2950945753PFvvEPK10MethodInfoPvPS4_
bzb:__ZL17Transfer_GUIStyleI18StreamedBinaryReadILb1EELb1EEvRK29SerializationCommandArgumentsR31RuntimeSerializationCommandInfo
n_e:_RectMask2D_IsRaycastLocationValid_m1652308696
m7i:__ZN6il2cpp6icalls8mscorlib6SystemL9IsPrivateEPK12PropertyInfo
exi:_X501_ToString_m1148552872
vyg:_RectTransform_add_reapplyDrivenProperties_m1374850920
baa:__ZN9shadertag10InitializeEv
_Yg:__Z69RuntimeInvoker_Void_t1185182177_Int32_t2950945753_Color32_t2600501292PFvvEPK10MethodInfoPvPS4_
cOb:__ZN13BatchRenderer20RenderSingleWithPassER17ShaderPassContextPK18SharedMaterialDataP6ShaderPN9ShaderLab4PassEiPKNS7_10GrabPassesEjib15BatchBreakCause
C0i:__ZN15dense_hashtableINSt3__24pairIK10KeyWrapperIPK19Il2CppGenericMethodEPK26Il2CppGenericMethodIndicesEES6_N6il2cpp8metadata23Il2CppGenericMethodHashEN14dense_hash_mapIS6_SA_SE_NS6_14EqualsComparerINSD_26Il2CppGenericMethodCompareEEENS0_9allocatorISB_EEE9SelectKeyESI_SK_ED2Ev
K5a:__ZN15QualitySettings14QualitySetting8TransferI24GenerateTypeTreeTransferEEvRT_
vGj:__ZN6il2cpp5utils6Memory11AlignedFreeEPv
Vde:_Context_get_ClientWriteKey_m3174706656
pei:__ZL77ExecuteEvents_t3484638744_CustomAttributesCacheGenerator_U3CU3Ef__mgU24cache7P21CustomAttributesCache
HTe:_InputField_get_textComponent_m948764648
Jkc:__Z44Register_UnityEngine_Object_DestroyImmediatev
yxc:__ZL34CleanupModule_PerformanceReportingv
VEd:_Convert_ToSingle_m835189399
T9b:__ZN22BlockMemoryCacheWriter14LockCacheBlockEjPPhS1_
bnc:__ZNSt3__218__insertion_sort_3IRPFbPKN5IMGUI9GUIWindowES4_EPPS2_EEvT0_SA_T_
Uid:_CryptographicUnexpectedOperationException__ctor_m69881930
KUh:__ZL73TripleDESCryptoServiceProvider_t3595206342_CustomAttributesCacheGeneratorP21CustomAttributesCache
VFh:_Collection_1_SetItem_m1218178236_gshared
zMe:_Enumerator_MoveNext_m1574460676_gshared
Yuc:__Z22TransferField_NonArrayI8JSONRead27Converter_SimpleNativeClassI8GUIStyleEEvRK23StaticTransferFieldInfoR31RuntimeSerializationCommandInfoRT0_
B1i:__ZN15dense_hashtableI10KeyWrapperIPK19Il2CppGenericMethodES4_N6il2cpp8metadata23Il2CppGenericMethodHashEN14dense_hash_setIS4_S7_NS4_14EqualsComparerINS6_26Il2CppGenericMethodCompareEEENSt3__29allocatorIS4_EEE8IdentityESB_SE_E16reset_thresholdsEv
Ng:_llvm_eh_typeid_for
v2b:__Z13RegisterClassI10GameObjectEvv
qzd:_CollectionBase_OnClear_m883003723
lKe:_Enumerator__ctor_m2609246966_gshared
iqe:_RemotingServices_FindInterfaceMethod_m2125212568
tz:__ZNK23AnimationPlayableOutput7GetTypeEv
TPd:_StreamWriter__cctor_m1229272693
eGf:_Enum_System_IConvertible_ToSByte_m779472798
q1f:_Type_get_IsInterface_m3284996719
Vxe:_InternalEnumerator_1_MoveNext_m1543390728_gshared
pBb:__Z18Transfer_BlittableI18StreamedBinaryReadILb0EELb1E8Vector4fEvRK29SerializationCommandArgumentsR31RuntimeSerializationCommandInfo
qKf:_SortKey_get_OriginalString_m1428586816
cZg:__Z51RuntimeInvoker_Void_t1185182177_Vector4_t3319028937PFvvEPK10MethodInfoPvPS4_
Mag:_Dictionary_2_U3CCopyToU3Em__0_m2023886030_gshared
tZg:__Z64RuntimeInvoker_Boolean_t97287965_RefEmitPermissionSet_t484390987PFvvEPK10MethodInfoPvPS4_
lVj:_glBindVertexArray__wrapper
kgd:_SerializationInfo__ctor_m2923079689
M$a:__ZN8Material8TransferI14SafeBinaryReadEEvRT_
X1a:__ZN12CubemapArray17UploadToGfxDeviceEv
Lkh:_Func_2__ctor_m1150804732_gshared
UGd:_Int32_JumpOverWhite_m208298144
mlj:__ZN24dense_hashtable_iteratorINSt3__24pairIK10KeyWrapperIP11Il2CppClassES4_EES5_N6il2cpp8metadata16SZArrayClassHashEN14dense_hash_mapIS5_S4_SA_NS5_14EqualsComparerINS9_19SZArrayClassCompareEEENS0_9allocatorIS7_EEE9SelectKeyESE_SG_E30advance_past_empty_and_deletedEv
V_g:__Z53RuntimeInvoker_Int32_t2950945753_UIVertex_t4057497605PFvvEPK10MethodInfoPvPS4_
sXj:_emscripten_glGetUniformiv__wrapper
mAj:__ZN6il2cpp2vm13ManagedObject14QueryInterfaceERK10Il2CppGuidPPv
aH:__ZN11AudioSource4StopEb
Xqb:__ZN14SafeBinaryRead21TransferSTLStyleArrayI13dynamic_arrayI10Matrix4x4fLj4EEEEvRT_17TransferMetaFlags
vTa:__ZN15LODGroupManager26CollectAllLODGroupManagersERK16CoreCameraValuesR13dynamic_arrayIPS_Lj4EEb
XEj:__ZN6il2cpp2os14WindowsRuntime13DeleteHStringEP15Il2CppHString__
c4f:_UInt32_System_IConvertible_ToUInt32_m1744564280_AdjustorThunk
FHa:__ZN18GlslGpuProgramGLESD2Ev
iZb:__ZN13RenderTexture14SetVolumeDepthEi
yS:__ZN11UnityEngine15CloudWebService14DataErrorEvent12ToJsonStringERN4core12basic_stringIcNS2_20StringStorageDefaultIcEEEEjPKc
NQg:__Z86RuntimeInvoker_Void_t1185182177_UInt16_t2177724958_SByte_t1669577662_SByte_t1669577662PFvvEPK10MethodInfoPvPS4_
ana:__Z22LoadGpuProgramFromDataPKhS0_Rj
Cvc:__ZN10Matrix4x4f8TransferI8JSONReadEEvRT_
UJc:__ZN14SafeBinaryRead21TransferSTLStyleArrayI13dynamic_arrayIN4core17string_with_labelILi35EEELj4EEEEvRT_17TransferMetaFlags
ZZe:_PositionAsUV1_ModifyMesh_m4231919476
Wzd:_Hashtable__ctor_m1941859523
sGi:_WindowFunction__ctor_m2544237635
eJe:_Comparer_1_get_Default_m1947376189_gshared
A0e:_ScrollRect_set_horizontalScrollbarSpacing_m2209919081
XY:__ZN17PersistentManager18ReadObjectThreadedEi
vEa:__ZN25TransformFeedbackSkinning31CleanupTransformFeedbackShadersEv
jTa:__Z22scripting_object_unbox18ScriptingObjectPtr
fpe:_AsyncResult_get_NextSink_m1844209137
_Kc:__ZNK20TextRenderingPrivate8FontImpl19GetCharacterAdvanceEjijfPj
HSf:_Array_InternalArray__ICollection_Add_TisUriScheme_t722425697_m3142345403_gshared
BJj:_fmt_u
Oqi:_Dictionary_2_Do_CopyTo_TisDictionaryEntry_t3123975638_TisDictionaryEntry_t3123975638_m1126292988_gshared
x7a:__ZN10VertexData8TransferI18StreamedBinaryReadILb0EEEEvRT_
CIj:__ZN6il2cpp8metadata25Il2CppGenericClassCompare7CompareEPK18Il2CppGenericClassS4_
ITd:_MonoType_get_Assembly_m4290914179
LJh:__ZL70RuntimeArray_CustomAttributesCacheGenerator_Array_GetValue_m1062368071P21CustomAttributesCache
Wna:__ZN9ShaderLab7ProgramC2E10MemLabelIdi10ShaderType
uZb:__ZN14PreloadManager16UpdatePreloadingEv
r2:__ZN12BaseRendererD2Ev
kvf:_String_LastIndexOf_m95398196
foi:_Array_InternalArray__set_Item_TisUILineInfo_t4195266810_m2313892078_gshared
yEe:_InternalEnumerator_1_System_Collections_IEnumerator_Reset_m3355902602_AdjustorThunk
gvg:_PlayableAsset__ctor_m2395156306
Pfi:__ZL79StandaloneInputModule_t2760469101_CustomAttributesCacheGenerator_m_SubmitButtonP21CustomAttributesCache
ZV:__ZNK21UnityDefaultAllocatorI17LowLevelAllocatorE8ContainsEPKv
D5i:__ZNSt3__213__vector_baseI6pollfdNS_9allocatorIS1_EEED2Ev
phd:_RuntimeTypeHandle_Equals_m2857439487
Xh:_emscripten_get_main_loop_timing
A8d:_SafeHandle_Finalize_m3866180675
J5a:__ZN24GenerateTypeTreeTransfer21TransferSTLStyleArrayINSt3__26vectorIN15QualitySettings14QualitySettingENS1_9allocatorIS4_EEEEEEvRT_17TransferMetaFlags
wOd:_MemoryStream_ToArray_m3911744835
tLe:_Enumerator_System_Collections_IDictionaryEnumerator_get_Entry_m859540448_AdjustorThunk
vXg:__Z72RuntimeInvoker_Boolean_t97287965_RaycastHitU26_t2429360258_RuntimeObjectPFvvEPK10MethodInfoPvPS4_
qIj:__ZN6il2cpp2os5Event4WaitEjb
U1f:_Type_GetHashCode_m1947148725
XLg:__Z91RuntimeInvoker_Void_t1185182177_RuntimeObject_RuntimeObject_RuntimeObject_SByte_t1669577662PFvvEPK10MethodInfoPvPS4_
Fjb:__ZNK2UI13RectTransform22GetTypeVirtualInternalEv
kp:getTempRet0
Qrf:_StrongName_get_Version_m4243032012
vBe:_InternalEnumerator_1_MoveNext_m2234422530_gshared
Zaj:__ZN6il2cpp2gc19AppendOnlyGCHashMapINSt3__24pairIPK14Il2CppAssemblyP11Il2CppClassEEP24Il2CppReflectionAssembly17ReflectionMapHashIS9_ENS2_8equal_toIS9_EEE10CopyValuesEPv
V1c:_BaseRaycaster_OnEnable_m2678466030
FKe:_Enumerator_get_CurrentKey_m627428048_AdjustorThunk
oqg:_UnityEventBase__ctor_m1851535676
kqi:_Array_Sort_TisVector4_t3319028937_m2797285308_gshared
Mge:_HandshakeMessage_Update_m2417837686
z9g:_Collection_1_System_Collections_IList_get_Item_m3314684800_gshared
_mj:__ZN6il2cpp6icalls8mscorlib6System9ThreadingL21lookup_cached_cultureEP12Il2CppThreadi
wEj:__ZN6il2cpp2os11EventHandleD2Ev
Lpg:_NetFxCoreExtensions_CreateDelegate_m751211712
uUb:__ZN18DeferredRenderLoopD2Ev
XWi:_AnimationLayerMixerPlayable__cctor_m4086299972
R2:__ZNK16TypeTreeIterator4NameEv
w7g:_Collection_1_CopyTo_m756458445_gshared
d1:__ZN15FileSystemEntry3SetEPKc
wYd:_ConstructorBuilder_Invoke_m3010446651
P6c:_AspectRatioFitter_get_aspectMode_m3735191157
Hec:__Z52Register_UnityEngine_Application_set_targetFrameRatev
Oef:_IPv6Address_set_ScopeId_m3907190992
fch:_ReadOnlyCollection_1_System_Collections_Generic_IListU3CTU3E_Insert_m568455025_gshared
SI:__ZN20SoundChannelInstance15ParameterBuffer5ApplyEPN4FMOD7ChannelE
Cef:_IPv6Address__ctor_m4117281080
O2h:__ZL88GameObject_t1113636619_CustomAttributesCacheGenerator_GameObject_SendMessage_m3720186693P21CustomAttributesCache
XKc:__ZN20TextRenderingPrivate19NativeTextGenerator9InsertTabEv
UNj:_sbrk
WUg:__Z66RuntimeInvoker_Boolean_t97287965_Vector2_t2156229523_RuntimeObjectPFvvEPK10MethodInfoPvPS4_
T4g:_Collection_1_System_Collections_Generic_ICollectionU3CTU3E_get_IsReadOnly_m1032650589_gshared
zqh:_Enumerator_VerifyState_m3474272061_AdjustorThunk
uWc:__ZN11UnityEngine15PlatformWrapper24GetRuntimePlatformStringEv
Hi:_glIsEnabled
djb:__ZN15CacheWriterBaseD2Ev
aYd:_DerivedType__ctor_m1853298054
Mpb:__Z25scripting_class_get_image17ScriptingClassPtr
msf:_SecurityException__ctor_m836898292
dth:_List_1_RemoveAt_m2730968292_gshared
cgb:__ZNSt3__26vectorIN4core12basic_stringIcNS1_20StringStorageDefaultIcEEEE13stl_allocatorIS5_L18MemLabelIdentifier13ELi16EEEC2INS_11__wrap_iterIPS5_EEEET_SE_RKS8_PNS_9enable_ifIXaasr21__is_forward_iteratorISE_EE5valuesr16is_constructibleIS5_NS_15iterator_traitsISE_E9referenceEEE5valueEvE4typeE
Li:_emscripten_glDrawElementsInstanced
gy:__ZN26AnimatorControllerPlayable27SetupStateMachineBehavioursEv
GOf:_Array_InternalArray__IEnumerable_GetEnumerator_TisSlot_t3975888750_m1869932007_gshared
lXe:_LayoutGroup_get_preferredWidth_m3816902260
ZUa:__ZN18JobBatchDispatcherD2Ev
Ajb:__ZN9Transform17MainThreadCleanupEv
dDj:_GC_clear_hdr_marks
qYj:_emscripten_glCreateShader__wrapper
fzc:_cff_fd_select_get
I3e:_Text_set_resizeTextForBestFit_m4095249125
Lgf:_OidEnumerator_MoveNext_m3138911739
EZg:__Z53RuntimeInvoker_Boolean_t97287965_Keyframe_t4206410242PFvvEPK10MethodInfoPvPS4_
Wi:_emscripten_glGetShaderiv
SJ:__ZN4FMOD6System10getVersionEPj
gOc:__ZN2UI6Canvas23VirtualRedirectTransferER24GenerateTypeTreeTransfer
R1e:_Selectable_set_animationTriggers_m2970345687
h8g:_Collection_1_CopyTo_m4271769704_gshared
etc:__ZN9JSONWrite8TransferIN4math12int2_storageEEEvRT_PKc17TransferMetaFlags
GJc:__ZN13TextRendering4Font13AwakeFromLoadE17AwakeFromLoadMode
DIf:_CompareInfo_LastIndexOf_m2688553706
UFf:_Enum__ctor_m3602080049
lqa:__ZN9GfxDevice21ReleaseSharedMeshDataEP14SharedMeshData
L4c:_MouseState__ctor_m1467839005
yEi:_Uri_IsDomainAddress_m2867513594
ldb:__ZNSt3__27__sort5IRNS_6__lessINS_4pairIPKN5Unity4TypeE7Hash128EES8_EEPS8_EEjT0_SC_SC_SC_SC_T_
DXh:__ZL79Convert_t2465617642_CustomAttributesCacheGenerator_Convert_ToDouble_m2949593046P21CustomAttributesCache
Tbd:_Dropdown_CreateItem_m2954407740
kCj:_GC_unreachable_finalize_mark_proc
gif:_X509Chain_ProcessCrlExtensions_m236234529
IDj:_maybe_finalize
r$i:__ZN6il2cpp2vm5Class40GetInterfaceInvokeDataFromVTableSlowPathEPK12Il2CppObjectPK11Il2CppClassj
$Qf:_Array_InternalArray__IndexOf_TisLabelData_t360167391_m1826525656_gshared
lic:__Z43RectTransform_CUSTOM_INTERNAL_get_anchorMaxP12Il2CppObjectP13Vector2fIcall
RTi:_TextGenerator_INTERNAL_CALL_Populate_Internal_cpp_m4171649399
Ane:_RealProxy_get_ObjectIdentity_m2790771985
Nme:_RemotingConfiguration_RegisterChannelTemplate_m3105688054
KBf:_Decimal_Parse_m942471224
e4a:__ZN8Material28UpdateHashesOnPropertyChangeEN9ShaderLab16FastPropertyNameE
WGh:_Collection_1_System_Collections_IList_get_Item_m1368877441_gshared
yOh:__ZL56MethodBuilder_t2807316753_CustomAttributesCacheGeneratorP21CustomAttributesCache
J8d:_Locale_GetText_m3520169047
Vic:__Z53Register_UnityEngine_SortingLayer_GetLayerValueFromIDv
f3h:__ZL85RectOffset_t1369453676_CustomAttributesCacheGenerator_RectOffset_set_right_m807318764P21CustomAttributesCache
Eob:__Z18Transfer_BlittableI14SafeBinaryReadLb1E8Vector4fEvRK29SerializationCommandArgumentsR31RuntimeSerializationCommandInfo
V8i:_SessionStateChanged_EndInvoke_m3128001178
V6c:_AspectRatioFitter_SetDirty_m2910185270
bM:__ZN11AudioSource12AddToManagerEv
Us:__ZN8Animator23VirtualRedirectTransferER19StreamedBinaryWriteILb0EE
Pz:__ZN11UnityEngine9Animation32CreateAnimatorGenericBindingsOptERKNS0_20AnimationSetBindingsER9TransformPKN7mecanim9animation14AvatarConstantEPKNS0_21AvatarBindingConstantEbRNS6_6memory9AllocatorER8Animator
arj:__ZN6il2cpp2vm5Image13ClassFromNameEPK11Il2CppImagePKcS6_
xOj:dynCall_vdddddd
Lka:__ZN24GenerateTypeTreeTransfer21TransferSTLStyleArrayINSt3__26vectorIN9ShaderLab14SerializedPassENS1_9allocatorIS4_EEEEEEvRT_17TransferMetaFlags
Baa:__ZL32MarkLevelGameManagerDependenciesR27GarbageCollectorThreadState
Jsa:__ZNK13GfxDeviceGLES26HasActiveRandomWriteTargetEv
slj:__GLOBAL__sub_I_Thread_cpp
aLh:__ZL54_MemberInfo_t3922476713_CustomAttributesCacheGeneratorP21CustomAttributesCache
jTj:_glGetActiveUniformsiv__wrapper
Sic:__Z43Register_UnityEngine_Material_EnableKeywordv
Qtg:_Mesh_GetIndices_m2873123901
p_:__ZN13MonoBehaviour19SetupScriptingCacheE17ScriptingClassPtrP10MonoScript
W5i:__ZNSt3__214__split_bufferIP12Il2CppThreadRNS_9allocatorIS2_EEED2Ev
is:__Z20AnimationEventToMonoRK14AnimationEventR18MonoAnimationEvent
oXg:__Z106RuntimeInvoker_Void_t1185182177_Single_t1397266774_Single_t1397266774_Single_t1397266774_Int32_t2950945753PFvvEPK10MethodInfoPvPS4_
ead:_FloatTween_set_targetValue_m3604919944_AdjustorThunk
EZ:__ZN17PersistentManager29ReadAndActivateObjectThreadedEiRK26SerializedObjectIdentifierP14SerializedFilebb
nwd:_ArrayList_get_IsReadOnly_m913775115
z4c:_PointerEventData_get_dragging_m746831934
F1f:_Type_get_TypeHandle_m160082026
Vhh:_ReadOnlyCollection_1_System_Collections_IEnumerable_GetEnumerator_m2781605075_gshared
cea:__ZZN15DirectorManager15InitializeClassEvEN52PreLateUpdateDirectorUpdateAnimationBeginRegistrator7ForwardEv
qLf:_Array_get_swapper_TisCustomAttributeNamedArgument_t287865710_m4254011335_gshared
Xdd:_Graphic_RegisterDirtyMaterialCallback_m106898453
JGi:_GUILayoutEntry_get_margin_m3174861737
tKa:__ZN4PPtrI6SpriteE8TransferI14SafeBinaryReadEEvRT_
ndg:_EqualityComparer_1_System_Collections_IEqualityComparer_Equals_m1672604045_gshared
dGh:_Collection_1_System_Collections_IList_Add_m2739652888_gshared
qkj:__ZN15dense_hashtableINSt3__24pairIK10KeyWrapperIP11Il2CppClassES4_EES5_N6il2cpp8metadata16SZArrayClassHashEN14dense_hash_mapIS5_S4_SA_NS5_14EqualsComparerINS9_19SZArrayClassCompareEEENS0_9allocatorIS7_EEE9SelectKeyESE_SG_E16reset_thresholdsEv
vzh:_List_1_GetEnumerator_m2095602005_gshared
Eqj:__ZNK15dense_hashtableINSt3__24pairIK10KeyWrapperINS1_IPKcS4_EEEiEES6_24NamespaceAndNamePairHashN14dense_hash_mapIS6_iS9_NS6_14EqualsComparerI26NamespaceAndNamePairEqualsEENS0_9allocatorIS8_EEE9SelectKeyESD_SF_E13find_positionERS7_
bka:__ZNSt3__26vectorIN9ShaderLab14SerializedPassENS_9allocatorIS2_EEE8__appendEj
mja:__ZNSt3__26vectorIN9ShaderLab20SerializedSubProgram13BufferBindingENS_9allocatorIS3_EEEC2INS_11__wrap_iterIPS3_EEEET_SB_RKS5_PNS_9enable_ifIXaasr21__is_forward_iteratorISB_EE5valuesr16is_constructibleIS3_NS_15iterator_traitsISB_E9referenceEEE5valueEvE4typeE
p3g:__Z37RuntimeInvoker_Enumerator_t3436819725PFvvEPK10MethodInfoPvPS4_
Evg:_PlayableOutputHandle_op_Equality_m388301694
FWf:_Encoding_get_ISOLatin1_m2107621369
Q9d:_BigInteger_op_Inequality_m2697143438
U3h:__ZL89Mathf_t3464937446_CustomAttributesCacheGenerator_Mathf_SmoothDamp_m394423605____maxSpeed4P21CustomAttributesCache
LQi:__ZL25UnresolvedVirtualCall_164P12Il2CppObject20UICharInfo_t75501106S1_PK10MethodInfo
$Ih:__ZL72IntPtr_t_CustomAttributesCacheGenerator_IntPtr_op_Inequality_m3063970704P21CustomAttributesCache
Pwi:_SafeBag_get_ASN1_m2293701606
N3a:__ZN9Texture2D23VirtualRedirectTransferER18StreamedBinaryReadILb0EE
ayf:_DateTime_System_IConvertible_ToDouble_m2116720007_AdjustorThunk
Gyd:_BitArrayEnumerator__ctor_m2359341397
Ljg:_Enumerator_MoveNext_m1177880931_gshared
Q1a:__ZNK12CubemapArray12GetDataWidthEv
AHe:_DefaultComparer__ctor_m3288720761_gshared
j_g:__Z102RuntimeInvoker_Int32_t2950945753_RuntimeObject_Vector2_t2156229523_Int32_t2950945753_Int32_t2950945753PFvvEPK10MethodInfoPvPS4_
v0i:__ZN30dense_hashtable_const_iteratorINSt3__24pairIK10KeyWrapperIPKcEP11Il2CppClassEES5_N6il2cpp5utils11StringUtils12StringHasherIS4_EEN14dense_hash_mapIS5_S8_SE_NS5_14EqualsComparerINSB_13VmStringUtils21CaseSensitiveComparerEEENS0_9allocatorIS9_EEE9SelectKeyESJ_SL_E30advance_past_empty_and_deletedEv
U8h:__ZL73g_UnityEngine_TextRenderingModule_Assembly_CustomAttributesCacheGeneratorP21CustomAttributesCache
N$:__ZN16ScriptingManager27NativeTypeForScriptingClassE17ScriptingClassPtr
D4f:_UInt64_System_IConvertible_ToDateTime_m3434604642
A1f:_Type_get_IsSerializable_m1040556850
VDc:_get_sfnt_table
gpi:_Array_Resize_TisUIVertex_t4057497605_m1219201596_gshared
aOh:__ZL55StreamWriter_t1266378904_CustomAttributesCacheGeneratorP21CustomAttributesCache
u7f:_Dictionary_2_System_Collections_ICollection_get_IsSynchronized_m256515291_gshared
BX:__ZN8Renderer20RendererAddedToSceneEv
PVb:__ZL22ScheduleSceneNodesJobsP25ScheduleSceneNodesJobDataj
Mk:_emscripten_set_canvas_size
$cd:_Graphic_SetVerticesDirty_m2124914069
GIf:_CultureInfo__ctor_m3285927757
aZe:_MaskableGraphic_get_rootCanvasRect_m3492154629
bpi:_Array_Resize_TisRaycastResult_t3360306849_m1811054291_gshared
Pch:_ReadOnlyCollection_1_System_Collections_Generic_ICollectionU3CTU3E_get_IsReadOnly_m3152485890_gshared
Hja:__ZNSt3__26vectorIN9ShaderLab20SerializedSubProgramENS_9allocatorIS2_EEE8__appendEj
HW:__ZN20DynamicHeapAllocatorI17LowLevelAllocatorE8AllocateEji
aUc:__ZN11UnityEngine9Analytics15UserCustomEvent12ToJsonStringER9JSONWrite
fIi:_Locale_GetText_m2427493201
JOb:__ZN20DynamicPropertySheet15SetVectorQueuedERKN9ShaderLab16FastPropertyNameERK8Vector4fN19ShaderPropertySheet8SetFlagsE
BA:__ZN7mecanim9animation22EvaluateAvatarRetargetEPKNS0_14AvatarConstantEPKNS0_11AvatarInputEPNS0_12AvatarOutputEPNS0_12AvatarMemoryEPNS0_15AvatarWorkspaceEb
IEe:_InternalEnumerator_1_System_Collections_IEnumerator_Reset_m996811230_AdjustorThunk
YXa:__ZN14RenderSettings23VirtualRedirectTransferER19StreamedBinaryWriteILb0EE
mYd:_ConstructorBuilder_get_TypeBuilder_m2755629087
Drc:__ZL26Transfer_SimpleNativeClassI9JSONWrite10RectOffsetLb0EEvRK29SerializationCommandArgumentsR31RuntimeSerializationCommandInfo
ECj:_GC_push_conditional
nUc:__ZN21UnityAnalyticsManager23VirtualRedirectTransferER24GenerateTypeTreeTransfer
Mwa:__ZN17GenericDynamicVBO10AllocateVBEjR21DynamicVBOChunkHandle
zBf:_DBNull_ToString_m3638608738
dsj:__ZN30dense_hashtable_const_iteratorI10KeyWrapperIP18Il2CppGenericClassES3_N6il2cpp8metadata22Il2CppGenericClassHashEN14dense_hash_setIS3_S6_NS3_14EqualsComparerINS5_25Il2CppGenericClassCompareEEENSt3__29allocatorIS3_EEE8IdentityESA_SD_EppEv
Dyd:_BitArray_Clone_m3537018332
bue:_ObjectRecord_UnchainFixup_m3191243952
cvi:_TlsStream_get_CanWrite_m16389328
YRg:__Z65RuntimeInvoker_RuntimeObject_RuntimeObject_Vector3U26_t3464235976PFvvEPK10MethodInfoPvPS4_
kl:_glMapBufferRange
F3a:__ZN9Texture2D8TransferI18StreamedBinaryReadILb0EEEEvRT_
lhc:__Z31Input_CUSTOM_GetMouseButtonDowni
J8b:__ZN13PlayableGraph4PlayEv
c8b:__Z29AddCanvasIntermediateRendererPN2UI6CanvasEPNS_13CanvasBuffersEP17VertexDeclarationjRK10Matrix4x4ftRK4AABB4PPtrI8MaterialEi17ShadowCastingModebP6Camerab
XMb:__ZNK9Transform16GetLocalPositionEv
DVf:_EncoderExceptionFallbackBuffer_get_Remaining_m1573636148
LTd:_MonoType_get_BaseType_m1098640416
yLa:__ZN13LoadOperation19IntegrateTimeSlicedEi
vvi:_TlsStream_Read_m3392972801
Usa:__ZN13GfxDeviceGLES22DispatchComputeProgramE12ObjectHandleI18ComputeProgram_TagPvE15ComputeBufferIDj
RJb:__ZN20DefaultGfxDeviceImpl32InitStereoGlobalsBuffersPlatformEiijPKv
mXf:_Latin1Encoding_GetString_m254210343
Hhb:__Z17TransformAABBSlowRK4AABBRK10Matrix4x4fRS_
grd:_Array_combsort_m4052486289
f7a:__ZN15SerializeTraitsI13dynamic_arrayI12SpriteVertexLj4EEE19ResizeSTLStyleArrayERS2_i
Bth:_List_1_System_Collections_ICollection_get_SyncRoot_m314215814_gshared
cia:__ZN9ShaderLab21SerializedShaderState8TransferI14SafeBinaryReadEEvRT_
WGf:_Environment_GetWindowsFolderPath_m1738399646
gEh:_Queue_1_System_Collections_Generic_IEnumerableU3CTU3E_GetEnumerator_m2263220760_gshared
yBh:_List_1_Sort_m378918663_gshared
Vjj:__ZN15dense_hashtableINSt3__24pairIK10KeyWrapperINS1_IP11Il2CppClassjEEES4_EES6_N6il2cpp8metadata14ArrayClassHashEN14dense_hash_mapIS6_S4_SB_NS6_14EqualsComparerINSA_17ArrayClassCompareEEENS0_9allocatorIS8_EEE9SelectKeyESF_SH_E12expand_arrayEjN21dense_hash_map_traits17integral_constantIbLb0EEE
gAc:_cf2_stack_pushInt
LD:__ZN7mecanim9animation20DestroyLayerConstantEPNS0_13LayerConstantERNS_6memory9AllocatorE
tA:__ZN8Animator19FireAnimationEventsERNS_11AnimatorJobE
f3d:_Module_GetCustomAttributes_m76573271
Mid:_CryptoConfig_EncodeOID_m2635914623
Nka:__ZN15SerializeTraitsINSt3__24pairIN4core12basic_stringIcNS2_20StringStorageDefaultIcEEEES6_EEE8TransferI24GenerateTypeTreeTransferEEvRS7_RT_
pzi:_Match_get_Groups_m841244970
CWj:b89
BWj:b88
$Vj:b81
_Vj:b80
qFa:__ZN7ApiGLES19CreateSparseTextureEjj14GraphicsFormatiiiiRiS1_S1_
v0:__ZN18ResourceImageGroup7CleanupEv
pWj:b85
oWj:b84
AWj:b87
zWj:b86
Gp:__ZN11Quaternionf8TransferI24GenerateTypeTreeTransferEEvRT_
nre:_RemotingSurrogateSelector_GetSurrogate_m3900875713
KQg:__Z69RuntimeInvoker_Boolean_t97287965_UInt16_t2177724958_Int16_t2552820387PFvvEPK10MethodInfoPvPS4_
qfh:_ReadOnlyCollection_1_System_Collections_IList_get_IsReadOnly_m3626439112_gshared
ede:_CertificateValidationCallback_Invoke_m1014111289
WYa:__ZN8Playable19SetOutputConnectionEPS_i
M9g:__ZN23InterfaceActionInvoker2Ii19Vector2_t2156229523E6InvokeEjP11Il2CppClassP12Il2CppObjectiS0_
M$i:__ZN15dense_hashtableINSt3__24pairIK10KeyWrapperIPK11Il2CppClassEPKcEES6_N6il2cpp5utils11PointerHashIS3_EEN14dense_hash_mapIS6_S9_SE_NS6_14EqualsComparerINS0_8equal_toIS5_EEEENS0_9allocatorISA_EEE9SelectKeyESJ_SL_EC2ERKSO_j
Zl:_glDeleteShader
PAa:__ZN6prcoreL17RemapGenericFloatI15TexFormatRGHalf16TexFormatRGFloatEEvPKNS_9InnerInfoE
Xpi:_Array_Sort_TisUICharInfo_t75501106_m128665067_gshared
zCc:_otv_GSUB_validate
Pnf:_RSAPKCS1SignatureDeformatter_SetHashAlgorithm_m1602190713
YFf:_Enum_System_IConvertible_ToByte_m1219166845
T6f:_Dictionary_2_CopyToCheck_m45332585_gshared
czh:_List_1_System_Collections_ICollection_get_IsSynchronized_m3630704857_gshared
sye:_InternalEnumerator_1_System_Collections_IEnumerator_Reset_m4239728915_AdjustorThunk
kdc:__Z27scripting_add_internal_callPKcPKv
G8g:__ZN21InterfaceFuncInvoker1Ib20UIVertex_t4057497605E6InvokeEjP11Il2CppClassP12Il2CppObjectS0_
ihj:__ZN13Il2CppHashMapINSt3__24pairIPK9EventInfoP11Il2CppClassEEj17ReflectionMapHashIS7_ENS0_8equal_toIS7_EENS0_9allocatorINS1_IK10KeyWrapperIS7_EjEEEEEC2EjRKS9_RKSB_
Vsj:__GLOBAL__sub_I_GarbageCollector_cpp
l5:__Z17GetPlayerSettingsv
$A:__ZN34BlobWriteTransferSTLStyleArrayImplI22OffsetPtrArrayTransferIiEEclERS1_17TransferMetaFlagsR9BlobWrite
ski:__ZL156U3CDelayUpdateU3Ec__Iterator0_t299064644_CustomAttributesCacheGenerator_U3CDelayUpdateU3Ec__Iterator0_System_Collections_IEnumerator_get_Current_m2906633870P21CustomAttributesCache
Drg:_Input_get_inputString_m1307069105
Z3d:_MonoField_get_FieldHandle_m3729647377
Z$e:_ScrollRect_get_content_m2477524320
BLe:_Enumerator_MoveNext_m1556953412_AdjustorThunk
pt:__ZN26AnimatorControllerPlayable18SetLayerAutoWeightEv
vTc:__Z44Register_UnityEngine_Canvas_get_pixelPerfectv
wDi:_Literal_GetAnchorInfo_m810577400
S5h:__ZL101RectTransform_t3704657025_CustomAttributesCacheGenerator_RectTransform_INTERNAL_set_pivot_m1160676233P21CustomAttributesCache
HQc:__ZN2UI14CanvasRenderer12SyncMaterialENS0_8SyncFlagE
dQd:_StreamWriter_Write_m1660535366
G$g:__Z66RuntimeInvoker_Void_t1185182177_Int32_t2950945753_Link_t3209266973PFvvEPK10MethodInfoPvPS4_
BGj:__ZN6il2cpp2vm9Parameter30GetDefaultParameterValueObjectEPK10MethodInfoPK13ParameterInfoPb
fZf:_UTF8Encoding_GetByteCount_m4152118078
i$g:__Z71RuntimeInvoker_Void_t1185182177_CustomAttributeNamedArgument_t287865710PFvvEPK10MethodInfoPvPS4_
P9e:_KeyPairPersistence__CanSecure_m3516574278
N7f:_Dictionary_2_make_pair_m3116882385_gshared
GMg:__Z95RuntimeInvoker_Void_t1185182177_RuntimeObject_RuntimeObject_Int32_t2950945753_SByte_t1669577662PFvvEPK10MethodInfoPvPS4_
kld:_MD5CryptoServiceProvider_Dispose_m3502499818
S5g:_Collection_1_System_Collections_IList_get_Item_m2422562729_gshared
HTg:__Z87RuntimeInvoker_Void_t1185182177_RuntimeObject_StringU26_t181565287_StringU26_t181565287PFvvEPK10MethodInfoPvPS4_
uJe:_Comparer_1_get_Default_m1596450988_gshared
XJh:__ZL74RuntimeArray_CustomAttributesCacheGenerator_Array_BinarySearch_m3171087170P21CustomAttributesCache
wJh:__ZL72Enum_t4135868527_CustomAttributesCacheGenerator_Enum_ToObject_m122225012P21CustomAttributesCache
IEc:_UNITY_tt_face_done_kern
_de:_SecurityParameters_get_ServerWriteMAC_m3430427271
dbi:__ZL90GUIStyle_t3956901511_CustomAttributesCacheGenerator_GUIStyle_get_stretchHeight_m4172805773P21CustomAttributesCache
Ydi:__ZL68g_UnityEngine_StandardEvents_Assembly_CustomAttributesCacheGeneratorP21CustomAttributesCache
Sve:_ArrayReadOnlyList_1_RemoveAt_m2104218585_gshared
xab:__ZN12BoneWeights48TransferI24GenerateTypeTreeTransferEEvRT_
XOf:_Array_InternalArray__IEnumerable_GetEnumerator_TisParameterModifier_t1461694466_m3675077728_gshared
ENe:_KeyCollection_System_Collections_IEnumerable_GetEnumerator_m4039044666_gshared
Rii:__ZL60RawImage_t3182918964_CustomAttributesCacheGenerator_m_UVRectP21CustomAttributesCache
vGb:__Z19scripting_gc_enablev
cFe:_InternalEnumerator_1_get_Current_m2907722321_gshared
xKb:__ZZ23InitPlayerLoopCallbacksvEN41InitializationPlayerUpdateTimeRegistrator7ForwardEv
Wcc:__ZN11UTF16StringC2ERKS_10MemLabelId
O_b:__Z29StdTemplateConversionFunctionIihEbPvR14SafeBinaryRead
nGe:_InternalEnumerator_1_get_Current_m3792939945_AdjustorThunk
wSc:__Z55Register_UnityEngine_CanvasRenderer_DisableRectClippingv
Y9a:__ZN14SafeBinaryRead21TransferSTLStyleArrayI13dynamic_arrayI11ColorRGBA32Lj4EEEEvRT_17TransferMetaFlags
zub:__ZL26Transfer_SimpleNativeClassI24GenerateTypeTreeTransfer8GradientLb0EEvRK29SerializationCommandArgumentsR31RuntimeSerializationCommandInfo
vii:__ZL118U3CCaretBlinkU3Ec__Iterator0_t2589889038_CustomAttributesCacheGenerator_U3CCaretBlinkU3Ec__Iterator0_Reset_m1547565867P21CustomAttributesCache
SIa:__ZN9GfxDevice22UploadTextureCubeArrayE9TextureIDPKhjii14GraphicsFormati18TextureUploadFlags
Tze:_InternalEnumerator_1_System_Collections_IEnumerator_get_Current_m888718134_gshared
AIg:__Z175RuntimeInvoker_Void_t1185182177_SByte_t1669577662_SByte_t1669577662_SByte_t1669577662_SByte_t1669577662_SByte_t1669577662_SByte_t1669577662_SByte_t1669577662_SByte_t1669577662PFvvEPK10MethodInfoPvPS4_
Dug:_Object_Destroy_m3118546832
Syf:_DateTime_FromTicks_m4059645178_AdjustorThunk
jsi:_Array_InternalArray__get_Item_TisClientCertificateType_t1004704908_m2297379651_gshared
Ome:_ConfigHandler_ParseTime_m1787834288
Nma:__ZN9ShaderLab7Program27CreateFromSerializedProgramERKNS_17SerializedProgramE10ShaderTypeiP16PropertyNamesSetPK6Shader
nWd:_Assembly_Load_m3487507613
nXa:__ZNSt3__27__sort4IRNS_6__lessIN4core12basic_stringIcNS2_20StringStorageDefaultIcEEEES6_EEPS6_EEjT0_SA_SA_SA_T_
cPj:dynCall_viiiifii
Mfj:__ZN6il2cpp2gc19AppendOnlyGCHashMapINSt3__24pairIPK11Il2CppImageP11Il2CppClassEEP22Il2CppReflectionModule17ReflectionMapHashIS9_ENS2_8equal_toIS9_EEEC2Ev
UY:__Z20GetPersistentManagerv
YHc:_UNITY_TT_Set_Var_Design
r8:__ZN21SystemInfoStringCache16StaticInitializeEPv
BXh:__ZL80Convert_t2465617642_CustomAttributesCacheGenerator_Convert_ToDecimal_m1695757674P21CustomAttributesCache
S1e:_Selectable_get_targetGraphic_m559777690
gch:_ReadOnlyCollection_1_System_Collections_Generic_ICollectionU3CTU3E_Remove_m1100818788_gshared
atj:__ZNK10KeyWrapperIP12Il2CppObjectE14EqualsComparerINSt3__28equal_toIS1_EEEclERKS2_S9_
gja:__ZNSt3__26vectorIN9ShaderLab20SerializedSubProgram15StructParameterENS_9allocatorIS3_EEE6assignIPS3_EENS_9enable_ifIXaasr21__is_forward_iteratorIT_EE5valuesr16is_constructibleIS3_NS_15iterator_traitsISA_E9referenceEEE5valueEvE4typeESA_SA_
Jah:_Collection_1_IsSynchronized_m2291009199_gshared
KDb:__ZNK13MonoBehaviour7GetNameEv
Kib:__ZN19ScriptingInvocation28AdjustArgumentsToMatchMethodEv
Nph:_IndexedSet_1_Contains_m1525966688_gshared
DG:__Z15_CheckFMODError11FMOD_RESULTPKciS1_
kmj:__ZN6il2cpp6icalls8mscorlib6SystemL16ThrowInvalidCastEPK11Il2CppClassS5_
YVa:__Z20RenderMultipleMeshesRK15RenderNodeQueueRK18RenderMultipleData17ShaderChannelMask
Oeg:_EqualityComparer_1_get_Default_m79107703_gshared
XZc:__ZN11UnityEngine15PlatformWrapper20GetPlayerPrefsStringERKN4core12basic_stringIcNS1_20StringStorageDefaultIcEEEES5_
YYe:_MaskableGraphic_get_maskable_m1260382606
IWf:_Latin1Encoding__ctor_m498920120
Aaj:__ZN6il2cpp2vm4Type19GetGenericParameterEPK10Il2CppType
DPd:_StreamReader_Peek_m2272511193
Mzf:_DateTimeFormatInfo_FillAllDateTimePatterns_m2683124783
YRc:__Z51Register_UnityEngine_CanvasGroup_get_blocksRaycastsv
EUd:_NumberFormatter_get_IsFloatingSource_m3714711779
g7g:_Collection_1_System_Collections_IList_Add_m1403891193_gshared
yze:_InternalEnumerator_1_System_Collections_IEnumerator_Reset_m169899350_AdjustorThunk
i2f:_Type_GetConstructor_m1195697116
vd:_glBeginQuery
rNh:__ZL104RegionInfo_t1090270226_CustomAttributesCacheGenerator_RegionInfo_t1090270226____DisplayName_PropertyInfoP21CustomAttributesCache
qVi:_Canvas_get_scaleFactor_m3314757802
YLb:__ZN6Camera12RenderStereoENS_10RenderFlagE8CullFlagPNS_24PerformEyeRenderFunctionE
Nlb:__ZN20LocalFileSystemPosix10ToAbsoluteEPKc
NVa:__ZN20TierGraphicsSettings8TransferI19StreamedBinaryWriteILb0EEEEvRT_
FYj:b111
Y7:__GLOBAL__sub_I_runtime_input_0_cpp
Ezj:__ZN6il2cpp2vm13ComObjectBase16DisconnectObjectEj
pgg:_GenericComparer_1__ctor_m3652072706_gshared
Em:f0
hKa:__ZN9BehaviourD0Ev
nVa:__Z32TransferEnumWithNameForceIntSizeI14SafeBinaryRead7HDRModeEvRT_RT0_PKc17TransferMetaFlags
xKj:_getcwd
KKa:__ZN25ThreadsafeLinearAllocatorD2Ev
Ygb:__Z21SendMessageToEveryoneRK17MessageIdentifier11MessageData
Kca:__ZN21BillboardBatchManager16StaticInitializeEPv
Jxf:_DateTime_AbsoluteDays_m4235097773
E9:__ZN12_GLOBAL__N_138ArchiveRedirectFileSystemStaticDestroyEPv
NKh:__ZL126U3CGetEnumeratorU3Ec__Iterator0_t1202911786_CustomAttributesCacheGenerator_U3CGetEnumeratorU3Ec__Iterator0_Dispose_m2078994225P21CustomAttributesCache
MDg:__Z74RuntimeInvoker_RuntimeObject_RuntimeObject_RuntimeObject_SByte_t1669577662PFvvEPK10MethodInfoPvPS4_
XKh:__ZL69Type_t_CustomAttributesCacheGenerator_Type_GetConstructor_m1195697116P21CustomAttributesCache
Uad:_DefaultControls_CreateScrollView_m3842770629
U1a:__ZN12CubemapArray34UpdateFileTextureUploadInstructionEP26FileAssetUploadInstructionj
lOh:__ZL94EnumBuilder_t2400448213_CustomAttributesCacheGenerator_EnumBuilder_GetConstructors_m3294436155P21CustomAttributesCache
P0g:__Z55RuntimeInvoker_TableRange_t3332867892_Int32_t2950945753PFvvEPK10MethodInfoPvPS4_
LCe:_InternalEnumerator_1_MoveNext_m1020308708_gshared
pFa:__Z23CreateSparseTextureGLES9TextureIDii14GraphicsFormati
fDc:_otv_Anchor_validate
UKf:_Guid_CompareTo_m243656946_AdjustorThunk
FHf:_CCMath_mod_m3631663509
K0f:_TimeSpan_Negate_m1889505500_AdjustorThunk
Ifh:_ReadOnlyCollection_1_System_Collections_ICollection_CopyTo_m2715087453_gshared
Aci:__ZL84Canvas_t3310196443_CustomAttributesCacheGenerator_Canvas_get_scaleFactor_m3314757802P21CustomAttributesCache
kPe:_Transform_1__ctor_m2810088858_gshared
FLc:__ZNSt3__23mapIN20TextRenderingPrivate7FontRefEP11FT_FaceRec_NS_4lessIS2_EENS_9allocatorINS_4pairIKS2_S4_EEEEEixERS9_
bNa:__ZN17ArchiveFileSystem10AddStorageEP20ArchiveStorageReader
FPi:__ZL25UnresolvedVirtualCall_104P12Il2CppObjectS0_S0_S0_iPK10MethodInfo
V4i:__ZN6il2cpp2vm13MetadataCache37GetParameterDefaultValueDataFromIndexEi
Fij:_il2cpp_class_get_assemblyname
wNg:__Z50RuntimeInvoker_SByte_t1669577662_SByte_t1669577662PFvvEPK10MethodInfoPvPS4_
Gdd:_Graphic_OnFillVBO_m1026749972
VZi:__ZN6il2cpp2vm5Class15GetEnumBaseTypeEP11Il2CppClass
fge:_Context_set_WriteSequenceNumber_m942577065
_d:_glVertexAttrib4fv
Xzj:__ZNK6il2cpp5utils13VmStringUtils23CaseInsensitiveComparerclERKNSt3__212basic_stringIcNS3_11char_traitsIcEENS3_9allocatorIcEEEEPKc
a8c:_CanvasScaler_SetScaleFactor_m3006968999
Z2g:__Z78RuntimeInvoker_Boolean_t97287965_Navigation_t3049316579_Navigation_t3049316579PFvvEPK10MethodInfoPvPS4_
W2a:__ZNK9Texture2D16GetNpotTexelSizeEv
AUd:_NumberFormatter_Init_m3576155222
zMa:__ZL33FileEntryInfoListToFolderContentsRKN4core12basic_stringIcNS_20StringStorageDefaultIcEEEERK19dynamic_block_arrayI13FileEntryInfoLj32EERNSt3__23setIS3_NSB_4lessIS3_EENSB_9allocatorIS3_EEEE
lYe:_LayoutUtility_GetLayoutProperty_m714717302
lVi:_Terminal_NotifyCommandHandlers_m909296863
b2c:_EventSystem_set_sendNavigationEvents_m983981895
$pa:__ZN9GfxDevice22GetDefaultVertexBufferE26GfxDefaultVertexBufferTypej
WLf:_Array_InternalArray__ICollection_Contains_TisInt64_t3736567304_m2911357929_gshared
TLb:__ZNK6Camera16GetTargetDisplayEv
e6g:_Collection_1_Remove_m3022471627_gshared
TKj:___fseeko_unlocked
iVd:_Object_ToString_m1740002499
LKj:_sscanf
A3c:_ExecuteEvents_GetEventChain_m2404658789
uHb:__Z17BeginSplashScreenv
fpi:_Array_Resize_TisUILineInfo_t4195266810_m3763058392_gshared
gid:_SByte_ToString_m3584531119_AdjustorThunk
Ela:__ZN9ShaderLab16SerializedShader8TransferI19StreamedBinaryWriteILb0EEEEvRT_
NKi:_TrackableProperty_GetHashCode_m3407865350
YC:__ZN7mecanim9animation18CreateAvatarMemoryEPKNS0_14AvatarConstantERNS_6memory9AllocatorE
avd:_Convert_ToInt32_m1876369743
o9d:_ModulusRing__ctor_m2420310199
qDd:_Convert_ToDateTime_m626620011
WLe:_Enumerator_System_Collections_IDictionaryEnumerator_get_Key_m2500634048_AdjustorThunk
KB:__ZN7mecanim8skeleton16SkeletonPoseCopyIN4math4trsXENS2_7affineXEEEvPKNS0_13SkeletonPoseTIT_EEPNS5_IT0_EE
Owb:__Z18Transfer_BlittableI19StreamedBinaryWriteILb0EELb0EaEvRK29SerializationCommandArgumentsR31RuntimeSerializationCommandInfo
gsh:_List_1_Remove_m3037048099_gshared
uwa:__ZN18GfxFramebufferGLES18GetFramebufferNameERK20GfxRenderTargetSetup
P9i:__ZN6il2cpp2vm14TypeNameParser12ParseVersionERKNSt3__212basic_stringIcNS2_11char_traitsIcEENS2_9allocatorIcEEEERtSB_SB_SB_
zVe:_InputField_MoveDown_m1455948167
Rnc:__Z30Event_Get_Custom_PropCharacterP12Il2CppObject
xea:__ZN13PlayableGraph27SchedulePlayableDestructionERK9HPlayable
qCc:_cff_get_mm_var
lSj:_glGetFramebufferAttachmentParameteriv__wrapper
Ale:_ChannelServices_GetCurrentChannelInfo_m3041604116
q_c:__Z13RegisterClassI20UnityConnectSettingsEvv
DFe:_InternalEnumerator_1__ctor_m2635640285_AdjustorThunk
Jpb:__Z22scripting_array_length17ScriptingArrayPtr
pQd:_SynchronizedReader_Peek_m148942882
uHg:__Z95RuntimeInvoker_Void_t1185182177_RuntimeObject_Int32_t2950945753_Int32_t2950945753_RuntimeObjectPFvvEPK10MethodInfoPvPS4_
f2a:__ZN14SafeBinaryRead20TransferTypelessDataEjPvi
kQi:__ZL25UnresolvedVirtualCall_137P12Il2CppObject16Rect_t2360479859aPK10MethodInfo
oJc:_Horizontal_Sweep_Init
uN:__ZN13dynamic_arrayI12SoundChannelLj4EE9push_backERKS0_
i5:__Z19GetActiveColorSpacev
iEc:_UNITY_tt_face_load_kern
B3d:_MonoMethodInfo_GetDeclaringType_m2924452727
HIb:__ZN13sorted_vectorINSt3__24pairIiN17InstancingBatcher12PropertyTypeEEEN10vector_mapIiS3_NS0_4lessIiEE13stl_allocatorIS4_L18MemLabelIdentifier1ELi16EEE13value_compareESA_E21sort_clear_duplicatesEv
DRc:__ZZN2UI14CanvasRenderer15InitializeClassEvEN38FunctorImpl_909kCanvasHierarchyChanged4CallEPviR11MessageData
K$:__Z6StrCmpPKcS0_
aId:_NumberFormatter_AppendIntegerString_m2257376141
Vna:__Z21CheckGpuProgramUsable20ShaderGpuProgramType
e4b:__ZN13ProduceHelperI14Texture2DArrayLb0EE7ProduceE10MemLabelId18ObjectCreationMode
swj:__ZN6il2cpp2os9Directory20GetFileSystemEntriesERKNSt3__212basic_stringIcNS2_11char_traitsIcEENS2_9allocatorIcEEEESA_iiPi
Spd:_Array_System_Collections_IList_Add_m1063688101
Kii:__ZL66Navigation_t3049316579_CustomAttributesCacheGenerator_m_SelectOnUpP21CustomAttributesCache
PKc:__ZN20TextRenderingPrivate19NativeTextGenerator5SetupEv
cTb:__ZNK15SharedLightData24GetFinalShadowResolutionEv
zAi:_PatternCompiler_EmitAlternationEnd_m2444359097
M2h:__ZL91GameObject_t1113636619_CustomAttributesCacheGenerator_GameObject_get_activeSelf_m1767405923P21CustomAttributesCache
seb:__ZN12AspectRatios8TransferI18StreamedBinaryReadILb0EEEEvRT_
X7b:__ZN10GameObject14CopyPropertiesERS_
Foc:__Z44Register_UnityEngine_GUIStyle_get_fixedWidthv
TMf:_Array_InternalArray__ICollection_Remove_TisLink_t544317964_m1280781374_gshared
cwj:__ZNSt3__214__split_bufferIN6il2cpp2os10ThreadImpl10APCRequestERNS_9allocatorIS4_EEEC2EjjS7_
esd:_BitConverter_DoubleWordsAreSwapped_m1474345095
x6a:__ZNK13ScreenManager12IsFullScreenEv
xxd:_FixedSizeArrayListWrapper_set_Capacity_m4221053039
mLj:_rand
PSj:_emscripten_glFramebufferRenderbuffer__wrapper
dbc:__ZN13MeshScripting10CreateMeshE21ScriptingObjectOfTypeI4MeshE
ZSi:_ListPool_1__cctor_m3480273184_gshared
xTg:__Z56RuntimeInvoker_Void_t1185182177_PropertyName_t3749835189PFvvEPK10MethodInfoPvPS4_
g3c:__ZN23InterfaceActionInvoker1IP25BaseEventData_t3903027533E6InvokeEjP11Il2CppClassP12Il2CppObjectS1_
Fqb:__ZN14SafeBinaryRead21TransferSTLStyleArrayINSt3__26vectorI17AnimationCurveTplIfE13stl_allocatorIS4_L18MemLabelIdentifier1ELi16EEEEEEvRT_17TransferMetaFlags
ayd:_SynchronizedArrayListWrapper_Contains_m3809499313
eNf:_Array_InternalArray__ICollection_Remove_TisLabelData_t360167391_m3556246844_gshared
Rdj:__ZN15dense_hashtableINSt3__24pairIK10KeyWrapperINS1_IPK11Il2CppImageP11Il2CppClassEEEjEES9_17ReflectionMapHashIS8_EN14dense_hash_mapIS9_jSD_NS9_14EqualsComparerINS0_8equal_toIS8_EEEENS0_9allocatorISB_EEE9SelectKeyESI_SK_E12expand_arrayEjN21dense_hash_map_traits17integral_constantIbLb0EEE
Kkd:_HMACSHA256__ctor_m346174875
vng:_Color_op_Multiply_m2887457390
yVb:__Z22PrepareOptimizedPlanesPK5PlaneiPKN4math7_float4E
Gze:_InternalEnumerator_1__ctor_m1559487635_gshared
vV:__ZN11UnityEngine15CloudWebService17WebFileDownloaderINS0_20WebRequestRestClientENS0_23WebRequestRestHeaderMapEE10InitializeERKN4core12basic_stringIcNS5_20StringStorageDefaultIcEEEE
Ica:__ZN17UniqueIDGenerator15CreatePureIndexEv
Fr:__ZN11UnityEngine9Animation28GenericAnimationBindingCache15DidReloadDomainEv
ifb:__ZNSt3__26vectorIN15ResourceManager10DependencyE13stl_allocatorIS2_L18MemLabelIdentifier52ELi16EEE6assignINS_11__wrap_iterIPS2_EEEENS_9enable_ifIXaasr21__is_forward_iteratorIT_EE5valuesr16is_constructibleIS2_NS_15iterator_traitsISC_E9referenceEEE5valueEvE4typeESC_SC_
iZi:__ZN15dense_hashtableINSt3__24pairIK10KeyWrapperIPK22Il2CppGenericParameterEP11Il2CppClassEES6_N6il2cpp5utils11PointerHashIS4_EEN14dense_hash_mapIS6_S9_SE_NS6_14EqualsComparerINS0_8equal_toIS5_EEEENS0_9allocatorISA_EEE9SelectKeyESJ_SL_E14squash_deletedEv
$_a:__ZN9ShaderLabL27GetDesiredRenderTextureDescEPK6Camera
pUh:__ZL131RSACryptoServiceProvider_t2683512874_CustomAttributesCacheGenerator_RSACryptoServiceProvider_t2683512874____PublicOnly_PropertyInfoP21CustomAttributesCache
MUf:_Array_InternalArray__Insert_TisMark_t3471605523_m2854535880_gshared
eza:__ZN6prcoreL29inner_stretch_rgb565_bilinearEPKNS_9InnerInfoE
$lc:__Z14GUIClipTextureP9Texture2DPhiiii
B9h:__ZL52HumanBone_t2465339518_CustomAttributesCacheGeneratorP21CustomAttributesCache
Wqe:_MethodReturnDictionary__cctor_m278392388
CY:__ZNK9Transform18TransformDirectionERK8Vector3f
xke:_SslStreamBase_get_CanWrite_m1622082918
PNa:__ZNK17ArchiveFileSystem12GetAssetGUIDERK13FileEntryData
Nna:__ZNSt3__26vectorIN9ShaderLab20SerializedSubProgram15MatrixParameterENS_9allocatorIS3_EEE21__push_back_slow_pathIKS3_EEvRT_
xki:__ZL80CanvasScaler_t2767979955_CustomAttributesCacheGenerator_m_ReferencePixelsPerUnitP21CustomAttributesCache
SCc:_otv_MarkLigPos_validate
x7e:_PrimalityTests_RabinMillerTest_m1471415870
njg:_Enumerator_MoveNext_m2114485647_gshared
t$d:_GenericTypeParameterBuilder_GetCustomAttributes_m580748276
$Ji:_AnalyticsTracker_get_TP_m2800669040
E3i:__ZN15dense_hashtableINSt3__24pairIK10KeyWrapperIPK11Il2CppClassEPKcEES6_N6il2cpp5utils11PointerHashIS3_EEN14dense_hash_mapIS6_S9_SE_NS6_14EqualsComparerINS0_8equal_toIS5_EEEENS0_9allocatorISA_EEE9SelectKeyESJ_SL_E12resize_deltaEjj
XMj:__ZNK10__cxxabiv120__si_class_type_info27has_unambiguous_public_baseEPNS_19__dynamic_cast_infoEPvi
t9d:_Kernel_LeftShift_m4140742987
aWd:_Assembly_GetManifestResourceInternal_m1224391897
Qwa:__Z30AddDefaultStreamsToMeshBuffersR9GfxDeviceR11MeshBuffersj17ShaderChannelMaskS3_
n9:__ZL16GetInterfaceImpl18UnityInterfaceGUID
m_i:__ZN6il2cpp2vmL17SetupFieldOffsetsENS0_15FieldLayoutKindEP11Il2CppClassjRKNSt3__26vectorIjNS4_9allocatorIjEEEE
tzj:__ZN6il2cpp6icalls8mscorlib6System15MonoCustomAttrs27GetCustomAttributesInternalEP12Il2CppObjectP20Il2CppReflectionTypeb
Yb:invoke_viifi
tIc:_UNITY_TT_Set_MM_Blend
Z7:__GLOBAL__sub_I_runtime_math_random_0_cpp
Xti:_InternalAsyncResult_get_FromWrite_m4228047810
KKg:__Z53RuntimeInvoker_MonoEventInfo_t346866618_RuntimeObjectPFvvEPK10MethodInfoPvPS4_
U8g:_Collection_1_CopyTo_m955200729_gshared
HHb:__ZN14PreloadManager35WaitForAllAsyncOperationsToCompleteEv
Aeg:_EqualityComparer_1__ctor_m1138336971_gshared
J_:__ZNK18ScriptingObjectPtr17ToScriptingStringEv
kI:__ZL31InitializeAudioScriptingClassesv
SMb:__Z14SortGUIByDepthP10GUIElementS0_
J8:__ZN13RuntimeStaticI13dynamic_arrayIPK31TransferFunctionScriptingTraitsLj4EELb0EE16StaticInitializeEPv
BPg:__Z69RuntimeInvoker_UInt32_t2560061978_Int32_t2950945753_SByte_t1669577662PFvvEPK10MethodInfoPvPS4_
vC:__ZN12_GLOBAL__N_120ProcessRootMotionMixER33AnimationPlayableEvaluationOutputR35AnimationPlayableEvaluationConstantR32AnimationPlayableEvaluationInputS1_f
gFi:_UriParser__cctor_m3655686731
bYe:_LayoutRebuilder_U3Cs_RebuildersU3Em__0_m589488547
v2g:__Z53RuntimeInvoker_KeyValuePair_2_t71524366_RuntimeObjectPFvvEPK10MethodInfoPvPS4_
nmb:__ZNK20LocalFileSystemPosix21GetAvailableDiskSpaceEPKcRy
x8:__ZNSt3__26__treeIiNS_4lessIiEENS_9allocatorIiEEE7destroyEPNS_11__tree_nodeIiPvEE
upa:__ZNK9GfxDevice14GetWorldMatrixEv
Xuc:__ZN8JSONRead8TransferI8Vector2fEEvRT_PKc17TransferMetaFlagsb
wBg:_Transform_set_parent_m786917804
nyj:__ZN15dense_hashtableINSt3__24pairIK10KeyWrapperIPK19Il2CppGenericMethodEP10MethodInfoEES6_N6il2cpp8metadata23Il2CppGenericMethodHashEN14dense_hash_mapIS6_S9_SD_NS6_14EqualsComparerINSC_26Il2CppGenericMethodCompareEEENS0_9allocatorISA_EEE9SelectKeyESH_SJ_E13set_empty_keyERKSA_
K2e:_Slider_get_value_m739683640
Dkb:__Z19scripting_array_new17ScriptingClassPtrjj
iN:__ZN11SoundHandle13CreateChannelEb
d$f:_WaitCallback_BeginInvoke_m3012509827
w4a:__ZN14SafeBinaryRead21TransferSTLStyleArrayI13dynamic_arrayI12LightmapDataLj4EEEEvRT_17TransferMetaFlags
Pja:__ZNSt3__26vectorIN9ShaderLab20SerializedSubProgram16TextureParameterENS_9allocatorIS3_EEE6assignIPS3_EENS_9enable_ifIXaasr21__is_forward_iteratorIT_EE5valuesr16is_constructibleIS3_NS_15iterator_traitsISA_E9referenceEEE5valueEvE4typeESA_SA_
f2i:__ZN13Il2CppHashMapIN6il2cpp5utils13dynamic_arrayIPK10Il2CppTypeLj4EEEPFvvENS0_8metadata19Il2CppSignatureHashENS9_22Il2CppSignatureCompareENSt3__29allocatorINSC_4pairIK10KeyWrapperIS6_ES8_EEEEEC2EjRKSA_RKSB_
VHg:__Z122RuntimeInvoker_Void_t1185182177_RuntimeObject_RuntimeObject_ContractionU5BU5DU26_t2277527001_Level2MapU5BU5DU26_t359320357PFvvEPK10MethodInfoPvPS4_
sgj:__ZN15dense_hashtableINSt3__24pairIK10KeyWrapperIPK22Il2CppGenericParameterEPK24MonoGenericParameterInfoEES6_N6il2cpp5utils11PointerHashIS4_EEN14dense_hash_mapIS6_SA_SF_NS6_14EqualsComparerINS0_8equal_toIS5_EEEENS0_9allocatorISB_EEE9SelectKeyESK_SM_E15set_deleted_keyERKSB_
eid:_SByte_TryParse_m2431806379
OZh:__ZL64ObjectDisposedException_t21392786_CustomAttributesCacheGeneratorP21CustomAttributesCache
E1b:__ZN6prcoreL11inner_clearILj2EEEvPhjjj
s2h:__ZL92Debug_t3317548046_CustomAttributesCacheGenerator_Debug_LogWarningFormat_m1153215311____args2P21CustomAttributesCache
Ijd:_DSACryptoServiceProvider_get_KeySize_m786836990
z0i:__ZNSt3__218uninitialized_fillIPNS_4pairIK10KeyWrapperIPKcEP11Il2CppClassEES9_EEvT_SB_RKT0_
Lg:_emscripten_exit_fullscreen
loi:_Array_qsort_TisBoolean_t97287965_TisBoolean_t97287965_m214793583_gshared
vig:_Enumerator_System_Collections_IEnumerator_Reset_m1564381721_gshared
hVd:_Object_MemberwiseClone_m1474068832
nvj:__ZN6il2cpp6icalls8mscorlib6System6String19InternalAllocateStrEi
cwc:__Z29Transfer_Blittable_ArrayFieldI8JSONRead11QuaternionfEvRT_R9ArrayInfoRK23StaticTransferFieldInfo
Wlb:__ZN20LocalFileSystemPosix8SetFlagsER13FileEntryDatajj
Bfc:__Z45Register_UnityEngine_Camera_get_targetDisplayv
g6b:__ZNK24RendererAnimationBinding15GenerateBindingERKN4core12basic_stringIcNS0_20StringStorageDefaultIcEEEEbRN11UnityEngine9Animation14GenericBindingE
Sef:_IPv6Address__ctor_m3704187391
lNb:__Z15GetFlareManagerv
e2b:__ZN15ApplicationInfo24GetApplicationIdentifierEv
cKa:__ZN9Behaviour8TransferI18StreamedBinaryReadILb0EEEEvRT_
Nz:__ZN8Animator13GetAvatarRootEv
wSf:_Array_InternalArray__ICollection_Add_TisResourceCacheItem_t51292791_m3851804827_gshared
mJj:___toread
OFb:__ZNSt3__26vectorI10vector_mapIiiNS_4lessIiEE13stl_allocatorINS_4pairIiiEEL18MemLabelIdentifier38ELi16EEES4_IS9_LS7_38ELi16EEE26__swap_out_circular_bufferERNS_14__split_bufferIS9_RSA_EE
R8d:_BigInteger_get_Rng_m3283260184
yNj:___cxa_is_pointer_type
WE:__ZN8Animator22ScriptingStringToCRC32ERK11ICallString
x_h:__ZL55EventHandler_t1348719766_CustomAttributesCacheGeneratorP21CustomAttributesCache
xC:__ZN7mecanim9animation16EvaluateAvatarDXEPKNS0_14AvatarConstantEPKNS0_11AvatarInputEPNS0_12AvatarMemoryEPNS0_15AvatarWorkspaceEPNS0_12AvatarOutputE
w5c:_RaycastResult_ToString_m2678663776_AdjustorThunk
tsi:_Array_InternalArray__get_Item_TisKeyValuePair_2_t2530217319_m2886833132_gshared
d1e:_ScrollRect_OnEndDrag_m3202230060
ekc:__Z34Transform_CUSTOM_SetAsFirstSiblingP12Il2CppObject
gbj:__ZNK15dense_hashtableINSt3__24pairIK10KeyWrapperINS1_IPK14Il2CppAssemblyP11Il2CppClassEEEjEES9_17ReflectionMapHashIS8_EN14dense_hash_mapIS9_jSD_NS9_14EqualsComparerINS0_8equal_toIS8_EEEENS0_9allocatorISB_EEE9SelectKeyESI_SK_E10test_emptyEj
OHg:__Z63RuntimeInvoker_Void_t1185182177_RuntimeObject_SByte_t1669577662PFvvEPK10MethodInfoPvPS4_
A6h:__ZL57SetupCoroutine_t2062820429_CustomAttributesCacheGeneratorP21CustomAttributesCache
oVe:_InputField_Delete_m3471899192
QYh:__ZL79Convert_t2465617642_CustomAttributesCacheGenerator_Convert_ToUInt64_m1627266664P21CustomAttributesCache
xRh:__ZL91UrlAttribute_t221584584_CustomAttributesCacheGenerator_UrlAttribute_IsContextOK_m1228378186P21CustomAttributesCache
Nle:_RemotingConfiguration_get_ProcessId_m2180277012
t3:__ZN17PersistentManager40GlobalToLocalSerializedFileIndexInternalERK26SerializedObjectIdentifier
oS:__ZN11UnityEngine15CloudWebService17SessionEventQueue14ParseEventDataERKN4core12basic_stringIcNS2_20StringStorageDefaultIcEEEE
lrh:_List_1_Remove_m2605758101_gshared
Uua:__ZN13TranslateGLES4InitERK12GraphicsCaps16GfxDeviceLevelGL
KCb:__Z29Transfer_Blittable_ArrayFieldI18StreamedBinaryReadILb0EE10ColorRGBAfEvRT_R9ArrayInfoRK23StaticTransferFieldInfo
n8i:_NativeTypeAttribute_set_CodegenOptions_m3839252515
ydg:_EqualityComparer_1_get_Default_m180770000_gshared
MJd:_Int64_System_IConvertible_ToUInt16_m848637338_AdjustorThunk
bVc:__Z32CustomEventData_CUSTOM_AddUInt32P12Il2CppObjectP12Il2CppStringj
OQf:_Array_InternalArray__IndexOf_TisLink_t544317964_m455584088_gshared
RDh:_Enumerator_get_Current_m2282646120_AdjustorThunk
wfh:_ReadOnlyCollection_1_IndexOf_m2539022912_gshared
Naf:_KeyGeneratedEventHandler__ctor_m1990062371
yji:__ZL66Selectable_t3250028441_CustomAttributesCacheGenerator_m_TransitionP21CustomAttributesCache
fHj:__ZN6il2cpp2os6Memory12AlignedAllocEjj
Fig:_Enumerator_get_Current_m2305210644_AdjustorThunk
Q3e:_Text_set_alignByGeometry_m3828822280
RAj:__ZN6il2cpp8metadataL7CompareEPK10Il2CppTypeS3_
Fsb:__Z18Transfer_BlittableI17RemapPPtrTransferLb0E11ColorRGBA32EvRK29SerializationCommandArgumentsR31RuntimeSerializationCommandInfo
dcf:_HybridDictionary__ctor_m1681134385
e2:__ZN21ScalableBufferManager11GetInstanceEv
aBb:__Z18Transfer_BlittableI18StreamedBinaryReadILb0EELb1E10ColorRGBAfEvRK29SerializationCommandArgumentsR31RuntimeSerializationCommandInfo
M1a:__ZN12CubemapArray23VirtualRedirectTransferER17RemapPPtrTransfer
U0f:_TimeSpan_op_LessThan_m1594498345
qdc:__ZL27GetComponentsImplementationILb0ELi0EEbR10GameObjectbRK17CompareParametersRK39GetComponentsImplementation_ReturnValue
YQi:__ZL25UnresolvedVirtualCall_177P12Il2CppObject40CustomAttributeTypedArgument_t2723150157S1_PK10MethodInfo
wEb:__ZN9Scripting36IsSystemCollectionsGenericDictionaryE17ScriptingClassPtr
Woh:_UnityEvent_1_FindMethod_Impl_m322741469_gshared
$Rh:__ZL92ConstructionCallDictionary_t686578562_CustomAttributesCacheGenerator_U3CU3Ef__switchU24map24P21CustomAttributesCache
Uji:__ZL64Slider_t3903728902_CustomAttributesCacheGenerator_m_WholeNumbersP21CustomAttributesCache
KBg:_Enumerator_get_Current_m2591725252
Z0:__ZL16ReadTypeTreeImplILb0EEbR8TypeTreeRK16TypeTreeIteratorRPKhS6_i
imf:_Interval_Contains_m110351300_AdjustorThunk
iEd:_Convert_ToInt32_m3048308591
Fli:__ZL77LayoutUtility_t2745813735_CustomAttributesCacheGenerator_U3CU3Ef__amU24cache6P21CustomAttributesCache
q_e:_RectMask2D_OnCanvasHierarchyChanged_m3195492255
OAf:_DateTimeOffset_Equals_m3030958070
nYa:__ZNK22BuiltinResourceManager21GetResourceInstanceIDEPKN5Unity4TypeERKN4core12basic_stringIcNS4_20StringStorageDefaultIcEEEE
Xra:__ZN9GfxDevice15BeginFrameStatsEv
ehc:__Z42Register_UnityEngine_RectOffset_set_bottomv
dKi:_AnalyticsTracker_BuildParameters_m43920649
ooc:__Z28GUIStyleState_CUSTOM_CleanupP12Il2CppObject
yyf:_DateTimeFormatInfo_GetMonthName_m2034512315
XOb:__ZN28LightProbeProxyVolumeContext8CopyFromERKS_
Ozb:__ZN18StreamedBinaryReadILb1EE8TransferI13dynamic_arrayI8BitFieldLj4EEEEvRT_PKc17TransferMetaFlags
egh:_ReadOnlyCollection_1_System_Collections_Generic_IListU3CTU3E_Insert_m2489506856_gshared
J6:__ZN23TransformChangeDispatch32QueueTransformChangeIfHasChangedER18TransformHierarchy
p5e:_SimpleCollator_ToDashTypeValue_m6184468
MDa:__ZN7ApiGLES18DeleteRenderbufferERj
oCa:__ZL23ProgramUniformMatrix4fvPK7ApiGLESjiihPKv
VDa:__ZN7ApiGLES13CreateTextureEjj14GraphicsFormatiiiii
lrd:_Array_new_gap_m262136975
tja:__ZN9ShaderLab20SerializedSubProgram15MatrixParameter8TransferI14SafeBinaryReadEEvRT_
sdc:__ZL27GetComponentsImplementationILb0ELi1EEbR10GameObjectbRK17CompareParametersRK39GetComponentsImplementation_ReturnValue
lif:_X509Store__ctor_m275383717
W5e:_SimpleCollator_LastIndexOfOrdinalIgnoreCase_m2984667899
cHc:_Round_Down_To_Grid
HEa:__ZN13RenderTexture7ReleaseEv
Btc:__Z18Transfer_BlittableI8JSONReadLb1EN4math12int3_storageEEvRK29SerializationCommandArgumentsR31RuntimeSerializationCommandInfo
sbb:__ZN10MeshFilter23VirtualRedirectTransferER14SafeBinaryRead
eli:__ZL64LayoutGroup_t2436138090_CustomAttributesCacheGenerator_m_PaddingP21CustomAttributesCache
$ff:_AsnEncodedData_get_Oid_m402887164
Cbb:__ZN12MeshRenderer17MainThreadCleanupEv
ZZi:__ZN6il2cpp2vmL10InitLockedEP11Il2CppClassRKNS_2os12FastAutoLockE
AHa:__ZN22CreateGpuProgramOutput12CreateParamsEv
vJ:__ZN10ObjectPoolIN4FMOD7ChannelENS0_8ChannelIEE7GetFreeEi
O3g:__Z96RuntimeInvoker_RuntimeObject_CustomAttributeNamedArgument_t287865710_RuntimeObject_RuntimeObjectPFvvEPK10MethodInfoPvPS4_
mcd:_FontData_get_font_m2720086288
vAe:_InternalEnumerator_1_System_Collections_IEnumerator_get_Current_m548105685_gshared
Kua:__ZNK14GfxContextGLES13GetDefaultFBOEv
G0g:__Z99RuntimeInvoker_Void_t1185182177_UILineInfoU5BU5DU26_t2468919161_Int32_t2950945753_Int32_t2950945753PFvvEPK10MethodInfoPvPS4_
Dtd:_Byte_System_IConvertible_ToType_m2251112646
g8g:_Collection_1_Contains_m692247505_gshared
wWg:__Z81RuntimeInvoker_Char_t3634460470_RuntimeObject_Int32_t2950945753_Int16_t2552820387PFvvEPK10MethodInfoPvPS4_
Xyf:_DateTime_get_Hour_m4153505178_AdjustorThunk
ZMi:_AudioExtensionManager_WriteExtensionProperties_m3028464154
srf:_Evidence_Equals_m1478353107
Tyi:_CostDelegate__ctor_m4027655829
fac:__Z13GetImagePixelI10ColorRGBAfET_PKhii13TextureFormat15TextureWrapModeS5_ii
pxh:_List_1_System_Collections_IList_set_Item_m1842844683_gshared
hTi:_ObjectPool_1__ctor_m2535233435_gshared
Cph:_EventFunction_1__ctor_m4292798223_gshared
Ilj:__ZN6il2cpp2vm6Thread49CheckCurrentThreadForInterruptAndThrowIfNecessaryEv
gJf:_CultureInfo_construct_datetime_format_m1928121315
q5:__ZNSt3__23mapIN9ShaderLab16FastPropertyNameEN18UnityPropertySheet11UnityTexEnvENS_4lessIS2_EENS_9allocatorINS_4pairIKS2_S4_EEEEEixERS9_
PCa:__ZNK13TranslateGLES25GetTextureTargetDimensionEj
OVd:_RankException__ctor_m3453633632
Jjh:_Comparison_1__ctor_m533218197_gshared
M0g:__Z96RuntimeInvoker_Void_t1185182177_Vector3U5BU5DU26_t3038522815_Int32_t2950945753_Int32_t2950945753PFvvEPK10MethodInfoPvPS4_
Cdh:_ReadOnlyCollection_1_System_Collections_IList_Remove_m1842121503_gshared
AMd:_File_OpenRead_m2936789020
wjc:__Z47Texture2D_CUSTOM_INTERNAL_CALL_GetPixelBilinearP12Il2CppObjectffR10ColorRGBAf
WBd:_Enumerator_get_Entry_m3561948123
$Tg:__Z94RuntimeInvoker_Void_t1185182177_RuntimeObject_PlayableGraph_t3515989261_RuntimeObject_IntPtr_tPFvvEPK10MethodInfoPvPS4_
Mi:_emscripten_glVertexAttrib4f
AGe:_InternalEnumerator_1_System_Collections_IEnumerator_Reset_m4072625129_AdjustorThunk
qna:__ZNSt3__26vectorIN20GpuProgramParameters14ConstantBufferENS_9allocatorIS2_EEE8__appendEj
Vif:_X509CertificateCollection_AddRange_m3683116910
wDe:_InternalEnumerator_1_Dispose_m1837758743_AdjustorThunk
GYi:_CustomEventData_t317522481_marshal_pinvoke_cleanup
Wle:_SinkProviderData__ctor_m1624738837
hQb:__ZN11HaloManager21ReleaseGeometryJobMemEP25DynamicVBOGeometryJobData
oMd:_DirectoryNotFoundException__ctor_m1689636868
SVg:__Z88RuntimeInvoker_RuntimeObject_RuntimeObject_SByte_t1669577662_RuntimeObject_RuntimeObjectPFvvEPK10MethodInfoPvPS4_
Xdh:_ReadOnlyCollection_1_System_Collections_Generic_IListU3CTU3E_get_Item_m978644313_gshared
d9g:_Collection_1_get_Item_m2253972692_gshared
D1d:_RefEmitPermissionSet_t484390987_marshal_pinvoke_cleanup
DXd:_CustomAttributeTypedArgument_Equals_m2261980307
Mx:__ZN7mecanim12statemachine24CreateStateMachineMemoryEPKNS0_20StateMachineConstantERNS_6memory9AllocatorE
asa:__ZN9GfxDevice18SetGlobalDepthBiasEff
l6i:__ZN6il2cpp6icalls8mscorlib6System8MonoType12get_AssemblyEP20Il2CppReflectionType
dOd:_IsolatedStorageException__ctor_m3386787868
X1d:_TypeBuilder_MakeGenericType_m2799607032
_n:FUNCTION_TABLE_vi
Oih:_ReadOnlyCollection_1_IndexOf_m3669095250_gshared
_i:_emscripten_glGetPointerv
iri:_Dictionary_2_Do_CopyTo_TisKeyValuePair_2_t3842366416_TisRuntimeObject_m1564656153_gshared
kC:__ZN8Animator22ApplyBuiltinRootMotionEv
Zrj:__ZN15dense_hashtableI10KeyWrapperIP18Il2CppGenericClassES3_N6il2cpp8metadata22Il2CppGenericClassHashEN14dense_hash_setIS3_S6_NS3_14EqualsComparerINS5_25Il2CppGenericClassCompareEEENSt3__29allocatorIS3_EEE8IdentityESA_SD_E5clearEv
iHb:__Z26ApplyMaterialPassWithCacheRK18SharedMaterialDataR17ShaderPassContextP6ShaderPN9ShaderLab4PassEibPKNS6_10GrabPassesEPNS6_11SubProgramsEPK22DeviceRenderStateBlock
bOg:__Z55RuntimeInvoker_DateTime_t3738529785_TimeSpan_t881159249PFvvEPK10MethodInfoPvPS4_
fUd:_MulticastDelegate_KPM_m22863605
bEe:_InternalEnumerator_1_get_Current_m1897120917_AdjustorThunk
FTd:_MonoType_ReorderParamArrayArguments_m2458683451
Bte:_FormatterConverter_ToInt16_m4282804414
LLg:__Z81RuntimeInvoker_Void_t1185182177_Int64_t3736567304_RuntimeObject_Int64_t3736567304PFvvEPK10MethodInfoPvPS4_
a6c:_StandaloneInputModule_ProcessTouchPress_m4019232747
vMd:_FileStream__ctor_m3151488352
krd:_Array_swap_m547389985
G3:__ZN8Renderer23VirtualRedirectTransferER14SafeBinaryRead
u4f:_UInt32_ToString_m2420423038
quh:_List_1_System_Collections_IList_Add_m634558835_gshared
Hih:_ReadOnlyCollection_1_System_Collections_IList_get_IsFixedSize_m1923250479_gshared
fdi:__ZL105CanvasRenderer_t2598313366_CustomAttributesCacheGenerator_CanvasRenderer_set_popMaterialCount_m1224846275P21CustomAttributesCache
ZMd:_FileStream_get_Length_m426703983
_Qe:_Enumerator__ctor_m1558933899_AdjustorThunk
J_h:__ZL88BigInteger_t2902905090_CustomAttributesCacheGenerator_BigInteger_op_Implicit_m3414367033P21CustomAttributesCache
h_i:__ZN6il2cpp2vmL15GetBitmapNoInitEP11Il2CppClassPjRjj
tBh:_List_1_Remove_m2092085040_gshared
p0b:__ZL13MotionHandleriPK27EmscriptenDeviceMotionEventPv
SH:__ZN12AudioManager5ResetEv
UEg:__Z67RuntimeInvoker_Boolean_t97287965_RuntimeObject_SByteU26_t3619038962PFvvEPK10MethodInfoPvPS4_
ZFg:__Z143RuntimeInvoker_Boolean_t97287965_RuntimeObject_Int32_t2950945753_RuntimeObject_SByte_t1669577662_DoubleU26_t1739162597_ExceptionU26_t3600731591PFvvEPK10MethodInfoPvPS4_
s8b:__ZN15DirectorManager18ScheduleGraphStartERK14HPlayableGraph
Pdh:_ReadOnlyCollection_1_get_Count_m1336304542_gshared
Nli:__ZL111LayoutUtility_t2745813735_CustomAttributesCacheGenerator_LayoutUtility_U3CGetPreferredHeightU3Em__6_m3049688934P21CustomAttributesCache
SB:__ZN7mecanim5human14RetargetToTDoFEPKNS0_5HumanEPNS0_9HumanPoseEPNS_8skeleton13SkeletonPoseTIN4math4trsXEEESB_
fgj:__ZNK15dense_hashtableINSt3__24pairIK10KeyWrapperIPK14Il2CppAssemblyEPK22Il2CppMonoAssemblyNameEES6_N6il2cpp5utils11PointerHashIS4_EEN14dense_hash_mapIS6_SA_SF_NS6_14EqualsComparerINS0_8equal_toIS5_EEEENS0_9allocatorISB_EEE9SelectKeyESK_SM_E10test_emptyEj
wxj:__ZN6il2cpp6icalls8mscorlib6System11Environment20GetWindowsFolderPathEi
MCd:_Convert_ToBoolean_m2833752130
Aw:__ZN7mecanim5human18HumanPoseBlendNodeERNS0_9HumanPoseEPS1_f
lBc:_UNITY_FT_RoundFix
AR:__ZN23CloudWebServicesManager23VirtualRedirectTransferER17RemapPPtrTransfer
dEj:_GC_is_heap_ptr
g8e:_ASN1_DecodeTLV_m1200977460
vqg:_UnityEventBase_PrepareInvoke_m1785382128
igh:_ReadOnlyCollection_1_System_Collections_Generic_IListU3CTU3E_set_Item_m1584697503_gshared
Ebb:__ZNK12MeshRenderer22GetTypeVirtualInternalEv
nvd:_Char_System_IConvertible_ToUInt32_m3901815580
i$e:_Scrollbar_set_onValueChanged_m346467699
jOg:__Z157RuntimeInvoker_Int32_t2950945753_RuntimeObject_Int32_t2950945753_Int32_t2950945753_Int32_t2950945753_SByte_t1669577662_SByte_t1669577662_Int32U26_t1369213839PFvvEPK10MethodInfoPvPS4_
MSi:_ListPool_1_Release_m957266927_gshared
NSh:__ZL105ConfigHandler_t4192437216_CustomAttributesCacheGenerator_ConfigHandler_ValidatePath_m3895556516____paths1P21CustomAttributesCache
D8e:_BitConverterLE_ToInt16_m1855092160
Wha:__ZN14SafeBinaryRead19TransferSTLStyleMapINSt3__23mapIN4core12basic_stringIcNS3_20StringStorageDefaultIcEEEES7_NS1_4lessIS7_EE13stl_allocatorINS1_4pairIKS7_S7_EEL18MemLabelIdentifier1ELi16EEEEEEvRT_17TransferMetaFlags
jQc:__ZN2UI6Canvas27UpdateEventIndexesRecursiveERi
uS:__ZN11UnityEngine15CloudWebService16SessionContainer21PrepareDataErrorEventERN4core12basic_stringIcNS2_20StringStorageDefaultIcEEEE
o3c:_ExecuteEvents_get_pointerUpHandler_m3515704212
iwd:_ArrayList_set_Item_m2003485935
lyj:__ZNSt3__218uninitialized_copyIPNS_4pairIK10KeyWrapperIPK19Il2CppGenericMethodEP10MethodInfoEESB_EET0_T_SD_SC_
s7d:_SatelliteContractVersionAttribute__ctor_m3630863995
NYh:__ZL79Convert_t2465617642_CustomAttributesCacheGenerator_Convert_ToUInt64_m3102114524P21CustomAttributesCache
h5c:_MouseButtonEventData_PressedThisFrame_m1060658845
P0c:_AxisEventData_get_moveVector_m270528189
ixb:__Z19TransferField_ArrayI19StreamedBinaryWriteILb0EE27Converter_SimpleNativeClassI8GUIStyleEEvRK23StaticTransferFieldInfoR31RuntimeSerializationCommandInfoRT0_
IMb:__Z27SetClippingPlaneShaderPropsR9GfxDevice
Wdh:_ReadOnlyCollection_1_System_Collections_Generic_IListU3CTU3E_RemoveAt_m3969985996_gshared
eai:__ZL83AudioSource_t3935305588_CustomAttributesCacheGenerator_AudioSource_Play_m3389845180P21CustomAttributesCache
ZVj:_emscripten_glCopyTexSubImage2D__wrapper
q6a:__ZNK13ScreenManager12GetIsFocusedEv
ied:_GraphicRegistry_GetGraphicsForCanvas_m4219276355
$Hd:_NumberFormatter_FastToDecHex_m699829267
ptc:__Z35Transfer_Blittable_FixedBufferFieldI8JSONReadiEvRK29SerializationCommandArgumentsR31RuntimeSerializationCommandInfo
ama:__ZN15SerializeTraitsIN9ShaderLab16FastPropertyNameEE8TransferI19StreamedBinaryWriteILb0EEEEvRS1_RT_
uTh:__ZL59StreamingContext_t3711869237_CustomAttributesCacheGeneratorP21CustomAttributesCache
o5i:__ZNSt3__213__vector_baseIN6il2cpp2os19SocketHandleWrapperENS_9allocatorIS3_EEED2Ev
cLh:__ZL48_Type_t3588564251_CustomAttributesCacheGeneratorP21CustomAttributesCache
phi:__ZL81FontUpdateTracker_t1839077620_CustomAttributesCacheGenerator_U3CU3Ef__mgU24cache0P21CustomAttributesCache
fc:invoke_viiffi
tNh:__ZL103RegionInfo_t1090270226_CustomAttributesCacheGenerator_RegionInfo_t1090270226____NativeName_PropertyInfoP21CustomAttributesCache
NJd:_Int64_System_IConvertible_ToUInt32_m109903525
jC:__ZNSt3__227__insertion_sort_incompleteIRPFbPKN8Animator11AnimatorJobES4_EPS4_EEbT0_S9_T_
fS:__ZNSt3__26__treeINS_12__value_typeIN4core12basic_stringIcNS2_20StringStorageDefaultIcEEEEjEENS_19__map_value_compareIS6_S7_NS_4lessIS6_EELb1EEE13stl_allocatorIS7_L18MemLabelIdentifier88ELi16EEE4findIS6_EENS_15__tree_iteratorIS7_PNS_11__tree_nodeIS7_PvEEiEERKT_
fpc:__ZN5Unity9rapidjson13GenericReaderINS0_4UTF8IcEES3_13JSONAllocatorE10ParseFalseILj0ENS0_19GenericStringStreamIS3_EENS0_15GenericDocumentIS3_S4_S4_EEEEvRT0_RT1_
Msg:_Mathf_CeilToInt_m432108984
J1a:__ZNK12CubemapArray20GetRuntimeMemorySizeEv
D0f:_TimeSpan_FromHours_m1109641064
rka:__Z14resize_trimmedINSt3__26vectorIN9ShaderLab18SerializedPropertyENS0_9allocatorIS3_EEEEEvRT_j
asb:__Z18Transfer_BlittableI17RemapPPtrTransferLb0EN4math12int3_storageEEvRK29SerializationCommandArgumentsR31RuntimeSerializationCommandInfo
iFe:_InternalEnumerator_1__ctor_m4124630986_gshared
l3i:__ZN6il2cpp2vm13MetadataCache38GetMethodInfoFromMethodDefinitionIndexEi
$1c:_EventSystem_set_current_m38955169
Kue:_TypeMetadata__ctor_m646635308
Wyi:_CostDelegate_EndInvoke_m2797921932
o7a:__ZN10VertexData8TransferI24GenerateTypeTreeTransferEEvRT_
zFf:_Double_IsInfinity_m820013146
ysd:__ZN21InterfaceFuncInvoker1I19Decimal_t2948259380P12Il2CppObjectE6InvokeEjP11Il2CppClassS2_S2_
Sxj:__ZN13Il2CppHashMapIPK19Il2CppGenericMethodP10MethodInfoN6il2cpp8metadata23Il2CppGenericMethodHashENS6_26Il2CppGenericMethodCompareENSt3__29allocatorINS9_4pairIK10KeyWrapperIS2_ES4_EEEEEC2EjRKS7_RKS8_
euh:_List_1_TrimExcess_m440552561_gshared
pzg:_Screen_get_dpi_m495672463
eZf:_UTF8Encoding_InternalGetByteCount_m2120178851
UUb:__ZL10CullLightsRK22SceneCullingParametersR11CullResults
MFd:_Convert_ToUInt64_m3170916409
Hx:__ZN7mecanim12statemachine20GetBlendTreeConstantERKNS0_13StateConstantEi
AJd:_Int64_System_IConvertible_ToInt16_m4062196970_AdjustorThunk
$Td:_MonoType_GetGenericTypeDefinition_m3201894896
z1b:__Z40GetTemporaryCachePathApplicationSpecificv
gqa:__ZN9GfxDevice16EndAsyncJobFrameEv
AXg:__Z99RuntimeInvoker_Int32_t2950945753_Ray_t3785851493_RuntimeObject_Single_t1397266774_Int32_t2950945753PFvvEPK10MethodInfoPvPS4_
Cej:__ZNK15dense_hashtableINSt3__24pairIK10KeyWrapperINS1_IPK12PropertyInfoP11Il2CppClassEEEjEES9_17ReflectionMapHashIS8_EN14dense_hash_mapIS9_jSD_NS9_14EqualsComparerINS0_8equal_toIS8_EEEENS0_9allocatorISB_EEE9SelectKeyESI_SK_E10test_emptyERK30dense_hashtable_const_iteratorISB_S9_SD_SM_SI_SK_E
bEc:_UNITY_tt_face_load_hhea
pZd:_DerivedType_get_Assembly_m2979298667
Wk:___syscall3
Zk:___syscall6
Dra:__ZN9GfxDevice15GetNextCPUFenceEv
$k:___syscall4
tT:__ZN11UnityEngine15CloudWebService20WebRequestRestClient17GetResponseStatusEv
pre:_ReturnMessage__ctor_m2352989078
mJg:__Z99RuntimeInvoker_Void_t1185182177_RuntimeObject_Int32_t2950945753_SByte_t1669577662_SByte_t1669577662PFvvEPK10MethodInfoPvPS4_
inb:__ZNSt3__26__treeINS_12__value_typeIN4core12basic_stringIcNS2_20StringStorageDefaultIcEEEEPN16MemoryFileSystem4NodeEEENS_19__map_value_compareIS6_SA_NS_4lessIS6_EELb1EEE13stl_allocatorISA_L18MemLabelIdentifier55ELi16EEE7destroyEPNS_11__tree_nodeISA_PvEE
BJh:__ZL70RuntimeArray_CustomAttributesCacheGenerator_Array_get_Length_m21610649P21CustomAttributesCache
Htj:__ZN6il2cpp2vm3RCW14QueryInterfaceILb1EEEP14Il2CppIUnknownP15Il2CppComObjectRK10Il2CppGuid
rfe:_TlsServerCertificateRequest__ctor_m1334974076
Gwc:__ZN27PerformanceReportingManager23VirtualRedirectTransferER14SafeBinaryRead
kEd:_Convert_ToInt32_m1613163543
m1g:__Z52RuntimeInvoker_TimeSpan_t881159249_Int32_t2950945753PFvvEPK10MethodInfoPvPS4_
TYe:_MatEntry__ctor_m1949610076
udh:_ReadOnlyCollection_1_System_Collections_ICollection_CopyTo_m3127175806_gshared
pl:_emscripten_glShaderBinary
o8h:__ZL80Logger_t274032455_CustomAttributesCacheGenerator_U3ClogEnabledU3Ek__BackingFieldP21CustomAttributesCache
HT:__ZN15DownloadHandler19OnFinishReceiveDataEv
B3f:_UInt16_ToString_m760649087
fmb:__ZNK20LocalFileSystemPosix6ExistsERK13FileEntryData
MOg:__Z21RuntimeInvoker_Guid_tPFvvEPK10MethodInfoPvPS4_
KPg:__Z46RuntimeInvoker_CipherAlgorithmType_t1174400495PFvvEPK10MethodInfoPvPS4_
Ymg:_Camera_GetAllCameras_m668492922
GTc:__Z58Register_UnityEngine_Canvas_GetETC1SupportedCanvasMaterialv
T0f:_TimeSpan_op_Inequality_m2467851530
Hzb:__ZN17AnimationCurveTplIfE8TransferI18StreamedBinaryReadILb1EEEEvRT_
aqi:_Array_Sort_TisUIVertex_t4057497605_m3996333845_gshared
_fe:_Context_get_ReceivedConnectionEnd_m4011125537
Gpf:_ToBase64Transform_get_CanReuseTransform_m702204640
OXc:__ZN18UnityConnectClientD2Ev
vTg:__Z53RuntimeInvoker_PropertyName_t3749835189_RuntimeObjectPFvvEPK10MethodInfoPvPS4_
Erd:_Swapper_BeginInvoke_m1688449973
$og:_Display_get_renderingWidth_m1970428952
OJi:_U3CTimedTriggerU3Ec__Iterator0_MoveNext_m825792986
jQa:__ZN16LevelGameManager23VirtualRedirectTransferER19StreamedBinaryWriteILb0EE
OPg:__Z81RuntimeInvoker_Void_t1185182177_RuntimeObject_Int32_t2950945753_Int64_t3736567304PFvvEPK10MethodInfoPvPS4_
j7a:__Z32TransferEnumWithNameForceIntSizeI14SafeBinaryRead16GfxPrimitiveTypeEvRT_RT0_PKc17TransferMetaFlags
X0:__ZN13dynamic_arrayIcLj1EE6insertEPcPKcS3_
K6h:__ZL92Mesh_t3648964284_CustomAttributesCacheGenerator_Mesh_SetTriangles_m2205169959____baseVertex3P21CustomAttributesCache
S_g:__Z52RuntimeInvoker_Int32_t2950945753_HitInfo_t3229609740PFvvEPK10MethodInfoPvPS4_
nMg:__Z86RuntimeInvoker_Boolean_t97287965_Int16_t2552820387_Int16_t2552820387_Int32_t2950945753PFvvEPK10MethodInfoPvPS4_
kXh:__ZL80Convert_t2465617642_CustomAttributesCacheGenerator_Convert_ToBoolean_m2807110707P21CustomAttributesCache
jJh:__ZL72Enum_t4135868527_CustomAttributesCacheGenerator_Enum_GetName_m2151614395P21CustomAttributesCache
Rph:_IndexedSet_1_IndexOf_m241693686_gshared
Pah:_Collection_1_System_Collections_IList_Add_m1802516464_gshared
TWc:__ZN11UnityEngine15PlatformWrapper30GetGraphicsDriverLibraryStringEv
jhd:_RuntimeMethodHandle_Equals_m3301340296_AdjustorThunk
S4f:_UInt64_System_IConvertible_ToSingle_m925613075_AdjustorThunk
vOi:__ZL24UnresolvedVirtualCall_40P12Il2CppObjectS0_PK10MethodInfo
fTi:_ListPool_1__cctor_m704263611_gshared
bBb:__Z18Transfer_BlittableI18StreamedBinaryReadILb0EELb0E4AABBEvRK29SerializationCommandArgumentsR31RuntimeSerializationCommandInfo
nfb:__ZN24GenerateTypeTreeTransfer19TransferSTLStyleMapINSt3__28multimapIN4core12basic_stringIcNS3_20StringStorageDefaultIcEEEE4PPtrI6ObjectENS1_4lessIS7_EE13stl_allocatorINS1_4pairIKS7_SA_EEL18MemLabelIdentifier52ELi16EEEEEEvRT_17TransferMetaFlags
UD:__ZN16MecanimAnimation24DeleteAnimatedPropertiesERP26IAnimatedPropertyEvaluator
dWi:_CanvasRenderer_SetMaterial_m824577244
CLb:__Z14DrawGUITextureRK5RectTIfEP7Texture11ColorRGBA32P8Materiali
b3h:__ZL84RectOffset_t1369453676_CustomAttributesCacheGenerator_RectOffset_Cleanup_m2552807639P21CustomAttributesCache
Sdh:_ReadOnlyCollection_1_System_Collections_Generic_ICollectionU3CTU3E_Add_m2686599243_gshared
XA:__ZN9BlobWrite8TransferI22OffsetPtrArrayTransferIKN4math7_float4EEEEvRT_PKc17TransferMetaFlags
pMb:__ZN22RenderingCommandBuffer20ExecuteCommandBufferER17ShaderPassContextR15RenderNodeQueuejP13dynamic_arrayINSt3__24pairIN9ShaderLab16FastPropertyNameEP13RenderTextureEELj4EE16ComputeQueueTypeSA_
GBg:_Transform_IsChildOf_m224006092
c_a:__ZN15TextureSettings8TransferI24GenerateTypeTreeTransferEEvRT_
_sc:__ZN9JSONWrite8TransferI4AABBEEvRT_PKc17TransferMetaFlags
AOa:__ZN25MultiBlocksMemoryFileData9SetLengthEy
Wrh:_List_1_Clear_m2154023298_gshared
K0c:_AbstractEventData_get_used_m2991176710
RXg:__Z94RuntimeInvoker_Void_t1185182177_ObjectU5BU5DU26_t712384779_Int32_t2950945753_Int32_t2950945753PFvvEPK10MethodInfoPvPS4_
dri:_Dictionary_2_Do_ICollectionCopyTo_TisRuntimeObject_m1855083806_gshared
LIi:_Aes__ctor_m178909601
M2a:__ZNK9Texture2D20GetRuntimeMemorySizeEv
tqe:_MethodCall_get_MethodSignature_m2407904958
epc:__ZN5Unity9rapidjson13GenericReaderINS0_4UTF8IcEES3_13JSONAllocatorE9ParseTrueILj0ENS0_19GenericStringStreamIS3_EENS0_15GenericDocumentIS3_S4_S4_EEEEvRT0_RT1_
pzh:_List_1_Clear_m2003943277_gshared
xm:_emscripten_glUniform2iv
khg:_Enumerator_Dispose_m1204547613_AdjustorThunk
Iyc:_UNITY_FT_Outline_Transform
vde:_CipherSuite_get_ExchangeAlgorithmType_m1633709183
A_i:__ZN6il2cpp2vm5Class10GetMethodsEP11Il2CppClassPPv
w$c:__ZNK25UnityWebRequestJavaScript17GetUploadProgressEv
SQb:__Z30AddDefaultStreamsToMeshBuffersR9GfxDeviceR11MeshBuffersRK16DrawBuffersRange17ShaderChannelMaskS6_
Lvh:_List_1_GetEnumerator_m1430071802_gshared
_Ca:__ZN7ApiGLES17DeleteFramebufferERN2gl6HandleILNS0_10ObjectTypeE9EEES3_
CGa:__ZN15UniformTFMethod13MapBoneBufferEj
ePc:__ZN2UI14CanvasRendererD2Ev
Msi:_Array_InternalArray__get_Item_TisParameterModifier_t1461694466_m29553316_gshared
SJd:_Int64_CompareTo_m1928360444_AdjustorThunk
gGb:__Z9SetupArgviPPKc
AEd:_Convert_ToInt64_m2075031821
Uhb:__ZN13dynamic_arrayIP10UnitySceneLj4EE9push_backERKS1_
SBe:_InternalEnumerator_1__ctor_m236665673_gshared
KJi:_AnalyticsEventTracker_OnDisable_m1553012800
RWj:_glTexParameteri__wrapper
p3:__ZN12ImmediatePtrI10GameObjectE8TransferI19StreamedBinaryWriteILb0EEEEvRT_
N1a:__ZN12CubemapArray23VirtualRedirectTransferER24GenerateTypeTreeTransfer
dOi:__ZL24UnresolvedVirtualCall_22P12Il2CppObjectS0_iS0_S0_S0_PK10MethodInfo
D1:__ZN12FileAccessor4OpenER15FileSystemEntry14FilePermission16FileAutoBehavior
vVa:__ZNSt3__26vectorI4PPtrI6ShaderE13stl_allocatorIS3_L18MemLabelIdentifier53ELi16EEE8__appendEj
rwj:__ZN6il2cpp2os9Directory6CreateERKNSt3__212basic_stringIcNS2_11char_traitsIcEENS2_9allocatorIcEEEEPi
hla:__ZN4PPtrI6ShaderE8TransferI18StreamedBinaryReadILb0EEEEvRT_
I6:__ZN23TransformChangeDispatch32QueueTransformChangeIfHasChangedERK15TransformAccess
V0a:__ZNSt3__26vectorINS_4pairIN9ShaderLab16FastPropertyNameEN18UnityPropertySheet11UnityTexEnvEEENS_9allocatorIS6_EEE21__push_back_slow_pathIKS6_EEvRT_
jOa:__ZN15ArchiveReadFile5WriteEyPKvPy
YVd:_Assembly_get_FullName_m293988418
B:tempValue
B$b:__Z29StdTemplateConversionFunctionIaiEbPvR14SafeBinaryRead
RHj:__ZN6il2cpp8metadata24Il2CppGenericContextHash4HashEPK20Il2CppGenericContext
jCe:_InternalEnumerator_1_get_Current_m356936020_AdjustorThunk
i9g:_Collection_1_CheckWritable_m1583234367_gshared
fJd:_Int32_ToString_m141394615_AdjustorThunk
mxd:_ArrayListWrapper_CopyTo_m498486826
ULd:_Directory_GetCurrentDirectory_m219218555
Ynd:_SmallXmlParser_UnexpectedEndError_m1914362401
ey:__ZN26AnimatorControllerPlayable18DeallocateBindingsEv
$Sh:__ZL61FormatterTypeStyle_t3400733584_CustomAttributesCacheGeneratorP21CustomAttributesCache
Rva:__ZN14DelayedDeletorI15dense_hashtableINSt3__24pairIK9TextureIDiEES3_14GfxGenericHashIS3_EN14GfxDoubleCacheIS3_iS7_NS1_8equal_toIS3_EEN31GfxDoubleCacheConcurrencyPolicy11LocklessGetE42GfxDoubleCacheDefaultEmptyDeletedGeneratorIS3_EE9SelectKeyESA_13stl_allocatorIS5_L18MemLabelIdentifier24ELi16EEEEclEv
zN:__ZN11AudioSource19CreateOpenALRolloffEfff
XDc:_UNITY_FT_Stream_ReadAt
S$f:_TimeSpan__ctor_m1896986612_AdjustorThunk
u2i:__ZN15dense_hashtableINSt3__24pairIK10KeyWrapperIN6il2cpp5utils13dynamic_arrayIPK10Il2CppTypeLj4EEEEPFvvEEESA_NS3_8metadata19Il2CppSignatureHashEN14dense_hash_mapISA_SD_SG_NSA_14EqualsComparerINSF_22Il2CppSignatureCompareEEENS0_9allocatorISE_EEE9SelectKeyESK_SM_E9set_valueEPSE_RKSE_
umd:_ArgumentException__ctor_m1216717135
Dwg:_Ray_ToString_m1732834890_AdjustorThunk
pd:_glReadBuffer
fxh:_List_1_System_Collections_IList_Contains_m3860993176_gshared
nO:__ZN11AudioModule22CreateAudioClipFromWWWEP10IWWWStreamPKcbbi
t5b:__ZN9Texture2DC2E10MemLabelId18ObjectCreationMode
Vi:_emscripten_glRotatef
F3f:_UInt32_System_IConvertible_ToBoolean_m1763673183_AdjustorThunk
pqg:_UnityEvent_AddListener_m2276267359
kRc:__Z13RegisterClassIN2UI11CanvasGroupEEvv
aSg:__Z35RuntimeInvoker_RangeInt_t2094684618PFvvEPK10MethodInfoPvPS4_
G1b:__ZN6prcoreL11inner_clearILj4EEEvPhjjj
rf:_emscripten_glClear
qqe:_MethodCall_get_Args_m148309537
Tqe:_DictionaryEnumerator_get_Value_m2166220004
vMi:_PCMReaderCallback_BeginInvoke_m3391809637
vZh:__ZL72LoaderOptimization_t1484956347_CustomAttributesCacheGenerator_DomainMaskP21CustomAttributesCache
MGg:__Z74RuntimeInvoker_Void_t1185182177_RuntimeObject_StreamingContext_t3711869237PFvvEPK10MethodInfoPvPS4_
xDj:_GC_initialize_offsets
wea:__ZNK8Playable6HandleEv
OTe:_SetPropertyUtility_SetColor_m2229203028
vNj:___cxa_guard_abort
aLe:_Enumerator_MoveNext_m481679286_gshared
J$:__ZN14MessageHandler28MessageIDToMessageIdentifierEi
K7a:__ZNK11SpriteAtlas20GetRuntimeRenderDataEPK6Sprite
KLd:_FileSystemInfo__ctor_m3035148496
ylg:_AssetBundleCreateRequest_t3119663542_marshal_pinvoke_cleanup
xId:_Int32_System_IConvertible_ToDecimal_m2190376994_AdjustorThunk
Ohg:_KeyValuePair_2_set_Key_m2121548577_AdjustorThunk
M1g:__Z46RuntimeInvoker_RefEmitPermissionSet_t484390987PFvvEPK10MethodInfoPvPS4_
zTg:__Z57RuntimeInvoker_PropertyName_t3749835189_Int32_t2950945753PFvvEPK10MethodInfoPvPS4_
yLc:__ZN20TextRenderingPrivate15DynamicFontData36GetFaceForCharacterIfAvailableInFontERKNS_7FontRefERK13dynamic_arrayI4PPtrIN13TextRendering4FontEELj4EEj
cw:__ZN7mecanim14ValueArrayCopyILb0EEEvPKNS_10ValueArrayEPS1_
iF:__Z51Register_UnityEngine_Animator_get_hasBoundPlayablesv
z4g:_Collection_1_CopyTo_m3142835220_gshared
Hd:emscriptenWebGLGetUniform
yo:FUNCTION_TABLE_iiiiiiiiiii
YFi:_GUI_CallWindowDelegate_m3309453386
ZRe:_ValueCollection_System_Collections_IEnumerable_GetEnumerator_m2535969909_gshared
oCc:_cff_set_mm_blend
HJb:__ZN19GfxThreadableDevice15OnDeviceCreatedEb
BWb:__ZL10CleanUpJobP20CullingGroupsJobData
RQb:__Z20IsRunningNativeTestsv
FLd:_DirectoryInfo_get_Exists_m3142069876
Ocb:__ZN11TimeManager23VirtualRedirectTransferER17RemapPPtrTransfer
tLb:__ZN13RenderManager15BatchModeUpdateEv
Alh:_Predicate_1__ctor_m327447107_gshared
iif:_X509Chain_get_CertificateAuthorities_m804805415
U6a:__ZN14SafeBinaryRead21TransferSTLStyleArrayI13dynamic_arrayI8Vector2fLj4EEEEvRT_17TransferMetaFlags
pOh:__ZL123GenericTypeParameterBuilder_t1988827940_CustomAttributesCacheGenerator_GenericTypeParameterBuilder_IsSubclassOf_m2266644074P21CustomAttributesCache
s3:__ZN17PersistentManager51InstanceIDToLocalSerializedObjectIdentifierInternalEiR31LocalSerializedObjectIdentifier
Fyg:_Vector2_get_one_m738793577
hac:__ZNK4Mesh14GetIndexFormatEv
Ygg:_GenericEqualityComparer_1__ctor_m4072188982_gshared
kFi:_UriParser_set_DefaultPort_m4007715058
OKi:_FieldWithTarget__ctor_m583221563
kd:_glVertexAttribIPointer
CXf:_StringBuilder_ToString_m3317489284
rCa:__ZN13dynamic_arrayI21ComputeShaderResourceLj4EE9push_backERKS0_
vac:__ZNK6Sprite10GetPaddingE20SpriteRenderDataMode
tNf:_Array_InternalArray__ICollection_Remove_TisUInt32_t2560061978_m733727733_gshared
zid:_CryptographicException__ctor_m503735289
zpe:_ConstructionCall_get_CallSiteActivationAttributes_m3498917408
sNd:_Stream_EndRead_m1896469262
dEg:__Z93RuntimeInvoker_Boolean_t97287965_Int32_t2950945753_SByte_t1669577662_ExceptionU26_t3600731591PFvvEPK10MethodInfoPvPS4_
MOb:__ZN14qsort_internal5QSortIP15RODataDepthPassi17ROSorterDepthPassEEvT_S4_T0_T1_
HEc:_UNITY_ft_glyphslot_alloc_bitmap
Ibh:_ReadOnlyCollection_1_System_Collections_IList_Add_m3642938800_gshared
Pie:_RSASslSignatureDeformatter_SetHashAlgorithm_m895570787
nyi:_X509CrlEntry__ctor_m4013514048
h1i:__ZN15dense_hashtableI10KeyWrapperIPK17Il2CppGenericInstES4_N6il2cpp8metadata21Il2CppGenericInstHashEN14dense_hash_setIS4_S7_NS4_14EqualsComparerINS6_24Il2CppGenericInstCompareEEENSt3__29allocatorIS4_EEE8IdentityESB_SE_E16reset_thresholdsEv
eTg:__Z87RuntimeInvoker_Color_t2555686324_Color_t2555686324_Color_t2555686324_Single_t1397266774PFvvEPK10MethodInfoPvPS4_
AJc:_ft_raster1_render
xlc:__Z47Register_UnityEngine_Mesh_RecalculateBoundsImplv
tqa:__ZN9GfxDevice27UpdateComputeSkinPoseBufferEP9GfxBufferP12SkinMeshInfo
Hkg:_Enumerator_get_Current_m3382684163_AdjustorThunk
Gxe:_InternalEnumerator_1_System_Collections_IEnumerator_Reset_m3677481164_AdjustorThunk
fMj:__ZNKSt3__221__basic_string_commonILb1EE20__throw_length_errorEv
eeg:_EqualityComparer_1_System_Collections_IEqualityComparer_Equals_m245992594_gshared
WNg:__Z52RuntimeInvoker_UInt64_t4134040092_Single_t1397266774PFvvEPK10MethodInfoPvPS4_
eRf:_Array_InternalArray__IndexOf_TisParameterModifier_t1461694466_m1227120810_gshared
$Da:__ZN18GfxFramebufferGLES13ReadbackImageER14ImageReferenceiiiiii
Ipc:__ZN5Unity9rapidjson6WriterI16TempBufferWriterNS0_4UTF8IcEES4_13JSONAllocatorE11WriteStringEPKcj
ogd:_SerializationInfo_SetType_m3923964808
Eza:__ZN6prcoreL12RemapGenericI17TexFormatARGB888815TexFormatRGB565EEvPKNS_9InnerInfoE
dJ:__ZN4FMOD7Channel19setReverbPropertiesEPK29FMOD_REVERB_CHANNELPROPERTIES
HKi:_StandardEventPayload_GetParameters_m2672427676
zPd:_StreamReader_Dispose_m156389394
s_:__ZN13MonoBehaviour22GetScriptFullClassNameEv
kjj:_il2cpp_object_get_class
zpf:_SymmetricAlgorithm_get_Padding_m1011382560
u3b:__ZN13ProduceHelperI11MonoManagerLb0EE7ProduceE10MemLabelId18ObjectCreationMode
Nmf:_RIPEMD160Managed_JJ_m112143231
iOb:__ZN13BatchRendererC2ER15RenderLoopStatsRK15RenderNodeQueuebb
fJe:_Comparer_1__ctor_m191896560_gshared
q6e:_PreviousInfo_t2148130204_marshal_pinvoke_back
$mb:__ZNK16MemoryFileSystem9EnumerateEPKcP19dynamic_block_arrayI13FileEntryInfoLj32EEbPPv19FileEnumerationFlag
eEb:__ZN13MonoBehaviour9CallAwakeEv
HYa:__ZN20SphericalHarmonicsL211AddWeightedERKS_f
fHg:__Z82RuntimeInvoker_RuntimeObject_Int64_t3736567304_Int64_t3736567304_Int64_t3736567304PFvvEPK10MethodInfoPvPS4_
ntb:__Z19TransferField_ArrayI17RemapPPtrTransfer27Converter_SimpleNativeClassI8GUIStyleEEvRK23StaticTransferFieldInfoR31RuntimeSerializationCommandInfoRT0_
_ga:__ZL22StaticInitializeShaderPv
sqc:__ZN9JSONWrite8TransferI10ColorRGBAfEEvRT_PKc17TransferMetaFlags
NFe:_InternalEnumerator_1__ctor_m3913006324_AdjustorThunk
D$:__Z25scripting_method_get_name18ScriptingMethodPtr
_ie:_SslCipherSuite_ComputeKeys_m661027754
oGe:_InternalEnumerator_1__ctor_m3322594868_gshared
Iug:_Object_set_name_m291480324
QCd:_Convert_ToBoolean_m481380807
$Cf:_Decimal_Equals_m2486655999
zDj:_GC_exit_check
KWd:_AssemblyName_SetPublicKeyToken_m582470133
sTg:__Z52RuntimeInvoker_Boolean_t97287965_HitInfo_t3229609740PFvvEPK10MethodInfoPvPS4_
hM:__ZNK4PPtrI9AudioClipEcvPS0_Ev
bZ:__Z20UnlockObjectCreationv
l4d:_MonoField_ToString_m2518484388
c9e:_DSAManaged_get_Random_m923751780
JPe:_Transform_1_Invoke_m2385719192_gshared
FCg:_Vector3_set_Item_m1772472431_AdjustorThunk
blf:_Interpreter_PopulateGroup_m4042796257
hqb:__ZN15SerializeTraitsI13dynamic_arrayIyLj8EEE19ResizeSTLStyleArrayERS1_i
_1f:_Type_GetProperty_m3414567179
Tnj:__ZN6il2cpp2vm13LivenessState25FieldCanContainReferencesEP9FieldInfo
r_b:__ZNSt3__26vectorINS_4pairIN4core12basic_stringIcNS2_20StringStorageDefaultIcEEEES6_EE13stl_allocatorIS7_L18MemLabelIdentifier38ELi16EEE6insertENS_11__wrap_iterIPKS7_EERSD_
Qqg:_RenderPipelineManager_DoRenderLoop_Internal_m3799666479
v4h:__ZL78Sprite_t280657092_CustomAttributesCacheGenerator_Sprite_get_packed_m1179604684P21CustomAttributesCache
OA:__ZN9BlobWrite8TransferI22OffsetPtrArrayTransferI9OffsetPtrIN7mecanim12statemachine18StateMachineMemoryEEEEEvRT_PKc17TransferMetaFlags
oZ:__ZN4core8hash_mapIiP6ObjectNS_4hashIiEENSt3__28equal_toIiEEE4growEi
nZ:__ZN4core8hash_mapIiP6ObjectNS_4hashIiEENSt3__28equal_toIiEEE4growEv
x6g:_Collection_1_System_Collections_IList_IndexOf_m3894953546_gshared
zwi:_PKCS12_get_Certificates_m26161562
Rcf:_NameObjectCollectionBase_Init_m2525481323
mqi:_Array_swap_TisBoolean_t97287965_m2293774148_gshared
jrh:_List_1_Insert_m1582252370_gshared
Lyj:__ZN6il2cpp2vm6String8NewUtf16EPKDsi
vhd:_SByte_System_IConvertible_ToByte_m2268214252_AdjustorThunk
awj:__ZN6il2cpp2os10ThreadImpl12QueueUserAPCEPFvPvES2_
VF:__Z32TransferEnumWithNameForceIntSizeI14SafeBinaryReadN10SampleClip17CompressionFormatEEvRT_RT0_PKc17TransferMetaFlags
BDi:_RegularExpression__ctor_m119502265
EXc:__ZN22BaseUnityConnectClient10QueueEventERN11UnityEngine15CloudWebService17CloudServiceEventEPKcjb
Tdh:_ReadOnlyCollection_1_System_Collections_Generic_ICollectionU3CTU3E_Clear_m522482168_gshared
mQi:__ZL25UnresolvedVirtualCall_139P12Il2CppObject17Color_t2555686324faaPK10MethodInfo
eZd:_DerivedType_IsByRefImpl_m2585680005
O$a:__ZN13dynamic_arrayI11ShaderTagIDLj4EE9push_backERKS0_
Bpe:_ConstructionCall_InitMethodProperty_m2021094586
xHc:_UNITY_FT_Hypot
Yxe:_InternalEnumerator_1__ctor_m2636293838_gshared
m9h:__ZL95TextGenerator_t3211863866_CustomAttributesCacheGenerator_TextGenerator_get_lineCount_m916872812P21CustomAttributesCache
Eki:__ZL74CanvasScaler_t2767979955_CustomAttributesCacheGenerator_m_DefaultSpriteDPIP21CustomAttributesCache
xij:_il2cpp_class_is_abstract
Bf:_emscripten_glGetError
Xfj:__ZN15dense_hashtableINSt3__24pairIK10KeyWrapperIPK14Il2CppAssemblyEPK22Il2CppMonoAssemblyNameEES6_N6il2cpp5utils11PointerHashIS4_EEN14dense_hash_mapIS6_SA_SF_NS6_14EqualsComparerINS0_8equal_toIS5_EEEENS0_9allocatorISB_EEE9SelectKeyESK_SM_E14squash_deletedEv
QJ:__Z14FMOD_FILE_SeekPvjS_
mZe:_MaskableGraphic_OnDisable_m1757789159
qZa:__ZN7TextureC2E10MemLabelId18ObjectCreationMode
bXe:_LayoutGroup__ctor_m2162961217
hVc:__Z56Register_UnityEngine_Analytics_CustomEventData_AddStringv
K5f:_ValueType_t3640485471_marshal_pinvoke_cleanup
CXb:__ZNK13RenderTexture32CalculateNeedsInvertedProjectionEv
E0b:__ZN10systeminfo18GetOperatingSystemEv
Jf:emscriptenWebGLGet
Qaa:__Z19CanReplaceComponentRN5Unity9ComponentEPKNS_4TypeEPN4core12basic_stringIcNS5_20StringStorageDefaultIcEEEE
zRd:_UnmanagedMemoryStream_Flush_m1540584491
n5g:_Collection_1_GetEnumerator_m3986802482_gshared
XFd:_GuidParser_ParseGuid2_m1914838819
m5b:__ZN12CubemapArray11InitTextureEiii13TextureFormatb
Auh:_List_1_System_Collections_IList_get_Item_m1112579679_gshared
$Ed:_Convert_ToSingle_m3983149863
Lwe:_InternalEnumerator_1_System_Collections_IEnumerator_get_Current_m55999184_gshared
HRe:_ValueCollection_System_Collections_Generic_ICollectionU3CTValueU3E_Contains_m1842955046_gshared
Lcj:__ZN24dense_hashtable_iteratorINSt3__24pairIK10KeyWrapperIPK10Il2CppTypeEjEES6_N6il2cpp8metadata14Il2CppTypeHashEN14dense_hash_mapIS6_jSB_NS6_14EqualsComparerINSA_26Il2CppTypeEqualityComparerEEENS0_9allocatorIS8_EEE9SelectKeyESF_SH_E30advance_past_empty_and_deletedEv
kdd:_Graphic_get_depth_m815589653
AFi:_Event_set_displayIndex_m1342258734
q9c:_ContentSizeFitter_get_horizontalFit_m2773126143
rSi:_U3CStartU3Ec__Iterator0__ctor_m2366347741_gshared
vB:__ZN7mecanim5human13HumanFixTwistEPKNS0_5HumanEPNS_8skeleton13SkeletonPoseTIN4math4trsXEEES9_iiRKf
ARb:__ZL24AssignProjectorQueuesJobP30AssignProjectorQueuesJobHeader
l9f:_KeyValuePair_2_get_Key_m1218836954_gshared
ZPi:__ZL25UnresolvedVirtualCall_124P12Il2CppObjectPK10MethodInfo
Y5d:_ParameterModifier_t1461694466_marshal_pinvoke
B2i:__ZN15dense_hashtableINSt3__24pairIK10KeyWrapperIN6il2cpp5utils13dynamic_arrayIPK10Il2CppTypeLj4EEEEPFvvEEESA_NS3_8metadata19Il2CppSignatureHashEN14dense_hash_mapISA_SD_SG_NSA_14EqualsComparerINSF_22Il2CppSignatureCompareEEENS0_9allocatorISE_EEE9SelectKeyESK_SM_E4swapERSP_
AGd:_Int16_System_IConvertible_ToUInt32_m3410279543
yna:__ZN9ShaderLab20SerializedSubProgram14SetConstBufferEPKci
K8i:__ZN6il2cpp2os4File5CloseEPNS0_10FileHandleEPi
a2i:__ZNSt3__27__sort5IRN6il2cpp5utils11collections13ArrayValueMapIPK10Il2CppType17Il2CppInteropData26InteropDataToTypeConverterNS1_8metadata14Il2CppTypeLessENSA_26Il2CppTypeEqualityComparerEE12SortComparerEPS8_EEjT0_SH_SH_SH_SH_T_
FAg:_Touch_get_fingerId_m859576425_AdjustorThunk
kZg:__Z48RuntimeInvoker_Boolean_t97287965_Link_t544317964PFvvEPK10MethodInfoPvPS4_
GZe:_Navigation_get_selectOnDown_m1912812616_AdjustorThunk
gwh:_List_1_System_Collections_ICollection_CopyTo_m2688165607_gshared
UYg:__Z53RuntimeInvoker_UIVertex_t4057497605_Int32_t2950945753PFvvEPK10MethodInfoPvPS4_
j3f:_UInt16_CompareTo_m2664746316_AdjustorThunk
QRe:_ValueCollection_GetEnumerator_m616748621_gshared
hX:__Z40DebugStringToFilePostprocessedStacktraceRK21DebugStringToFileData
evc:__Z29Transfer_Blittable_ArrayFieldI8JSONReadjEvRT_R9ArrayInfoRK23StaticTransferFieldInfo
Khh:_ReadOnlyCollection_1_get_Item_m679165083_gshared
FDj:_GC_check_finalizer_nested
pg:__setLetterbox
g1a:__ZNSt3__26__treeINS_12__value_typeIN9ShaderLab16FastPropertyNameEfEENS_19__map_value_compareIS3_S4_NS_4lessIS3_EELb1EEENS_9allocatorIS4_EEE12__find_equalIS3_EERPNS_16__tree_node_baseIPvEENS_21__tree_const_iteratorIS4_PNS_11__tree_nodeIS4_SE_EEiEESH_RKT_
_0e:_ScrollRect_OnScroll_m3861066534
B7e:_BigInteger_op_LessThanOrEqual_m2553515144
N8h:__ZL72FormerlySerializedAsAttribute_t2859083114_CustomAttributesCacheGeneratorP21CustomAttributesCache
Zoc:__ZN8JSONRead32GetValueForKeyWithNameConversionEPKN5Unity9rapidjson12GenericValueINS1_4UTF8IcEE13JSONAllocatorEEPKc
pAi:_PatternCompiler_EmitFastRepeat_m3012952683
oab:__ZNSt3__26vectorI17BlendShapeChannelNS_9allocatorIS1_EEE6assignINS_11__wrap_iterIPS1_EEEENS_9enable_ifIXaasr21__is_forward_iteratorIT_EE5valuesr16is_constructibleIS1_NS_15iterator_traitsISA_E9referenceEEE5valueEvE4typeESA_SA_
x0b:__ZN11TimeManager11GetRealtimeEv
k3h:__ZL91RectOffset_t1369453676_CustomAttributesCacheGenerator_RectOffset_get_horizontal_m2663785949P21CustomAttributesCache
Kug:_Object_GetHashCode_m1944636947
yLd:_BinaryReader_ReadUInt32_m2210658763
iK:__ZN29AudioEffectInternalDefinitionC2EP26UnityAudioEffectDefinitionb
Dih:_ReadOnlyCollection_1_System_Collections_IList_Remove_m2434650390_gshared
C3f:_UInt16_ToString_m3056878594_AdjustorThunk
AD:__ZN4PPtrI6AvatarE8TransferI18StreamedBinaryReadILb0EEEEvRT_
gag:_Dictionary_2_System_Collections_Generic_ICollectionU3CSystem_Collections_Generic_KeyValuePairU3CTKeyU2CTValueU3EU3E_Contains_m2803718146_gshared
TGj:__ZN6il2cpp2os9FastMutexD2Ev
qKi:_EventTrigger_set_repeatTime_m1188543944
_lf:_Interval_get_IsSingleton_m3386290029
Saj:__ZNSt3__2plIcNS_11char_traitsIcEENS_9allocatorIcEEEENS_12basic_stringIT_T0_T1_EERKS9_PKS6_
BAg:_Time_get_unscaledDeltaTime_m4270080131
Rbb:__ZN4Mesh14GetMeshBuffersER11MeshBuffers17ShaderChannelMaskPS_b
P7f:_Dictionary_2_pick_key_m3282382413_gshared
Dof:_SHA384Managed__ctor_m3220477113
Dya:_stbir_resize
rQf:_Array_IndexOf_TisCustomAttributeTypedArgument_t2723150157_m3158556463_gshared
Gdg:_EqualityComparer_1_System_Collections_IEqualityComparer_GetHashCode_m360549782_gshared
RGf:_Environment_GetOSVersionString_m407782784
Kwf:_DecoderExceptionFallback_Equals_m1082173956
Dfg:_EqualityComparer_1_System_Collections_IEqualityComparer_GetHashCode_m345188086_gshared
XOh:__ZL69Assembly_t_CustomAttributesCacheGenerator_Assembly_GetName_m981771927P21CustomAttributesCache
xbb:__ZN4PPtrI4MeshE8TransferI14SafeBinaryReadEEvRT_
GOa:__Z37ReadDirectoryInfo_UnityWebAndUnityRawR12FileAccessorRKN20ArchiveStorageHeader6HeaderERNS1_13DirectoryInfoE
$9:__ZNSt3__26__treeINS_12__value_typeIPKciEENS_19__map_value_compareIS3_S4_15compare_tstringIS3_ELb1EEENS_9allocatorIS4_EEE7destroyEPNS_11__tree_nodeIS4_PvEE
wUf:_Array_InternalArray__Insert_TisIntPtr_t_m189626842_gshared
nhf:_X509Certificate2_get_IssuerName_m1277209535
p4e:_Locale_GetText_m3374010885
aah:_Collection_1_System_Collections_IEnumerable_GetEnumerator_m1598238343_gshared
Uld:_RijndaelManaged_CreateEncryptor_m263736311
z$f:_WaitCallback__ctor_m1893321019
iYc:__ZN13dynamic_arrayIN4core12basic_stringIcNS0_20StringStorageDefaultIcEEEELj4EE6assignEPKS4_S7_
KOb:__ZN20DynamicPropertySheet14SetValueQueuedEN9ShaderLab16FastPropertyNameEN19ShaderPropertySheet12PropertyTypeEjNS2_8SetFlagsE
UPc:__ZN2UI6Canvas26MarkAllNestedCanvasesDirtyEv
Wpg:_InvokableCallList_ClearPersistent_m1904264973
GFb:__ZN25PathNamePersistentManagerD2Ev
WY:__ZN17PersistentManager48IntegrateObjectAndUnlockIntegrationMutexInternalEi
Pga:__ZZ29InitializeSortingGroupManagerPvEN44PostLateUpdateSortingGroupsUpdateRegistrator7ForwardEv
fei:__ZL55EventTrigger_t1076084509_CustomAttributesCacheGeneratorP21CustomAttributesCache
jsf:_SecurityElement_SearchForChildByTag_m900466299
sp:__ZN6Object12SetHideFlagsENS_9HideFlagsE
T8e:_CryptoConvert_FromCapiPublicKeyBlob_m4073029974
QSj:_emscripten_glGetFramebufferAttachmentParameteriv__wrapper
VLb:__ZN13RendererScene15InitializeUmbraEv
yXa:__Z28CalculateGlobalMatrixInverse23TransformAccessReadOnly
Ytg:_MonoBehaviour__ctor_m1579109191
ici:__ZL59GUITargetAttribute_t25796337_CustomAttributesCacheGeneratorP21CustomAttributesCache
Lgg:_GenericEqualityComparer_1_Equals_m3457564127_gshared
j9d:_BigInteger_ModInverse_m2426215562
Cye:_InternalEnumerator_1_System_Collections_IEnumerator_Reset_m2386791007_AdjustorThunk
Gwf:_DecoderExceptionFallback__ctor_m4044614564
uAe:_InternalEnumerator_1_System_Collections_IEnumerator_Reset_m3011999097_AdjustorThunk
Ulj:__ZN6il2cpp2vm6Thread17FullMemoryBarrierEv
ERd:_LocalDataStoreSlot__cctor_m644942532
PHj:__ZN6il2cpp6icalls8mscorlib6System6Object7GetTypeEP12Il2CppObject
a5d:_MonoProperty_CachePropertyInfo_m2968057423
v$c:__ZNK25UnityWebRequestJavaScript18GetDownloadedBytesEv
Bwg:_Ray_GetPoint_m1852405345_AdjustorThunk
oNh:__ZL53RegionInfo_t1090270226_CustomAttributesCacheGeneratorP21CustomAttributesCache
Ici:__ZL85Canvas_t3310196443_CustomAttributesCacheGenerator_Canvas_get_sortingOrder_m1860900812P21CustomAttributesCache
Abh:_ReadOnlyCollection_1_System_Collections_Generic_IListU3CTU3E_Insert_m3798411681_gshared
tLf:_Array_get_swapper_TisColor32_t2600501292_m2310851009_gshared
n$c:__ZN12HeaderHelper14SetUnvalidatedERKN4core12basic_stringIcNS0_20StringStorageDefaultIcEEEES6_b
gG:__ZN4FMOD6SoundI7releaseEv
aBc:_cff_parse_num
iPa:__ZN10MemoryFile9SetLengthEy
svb:__ZN5RectTIiE8TransferI24GenerateTypeTreeTransferEEvRT_
C4a:__ZN14SafeBinaryRead21TransferSTLStyleArrayI13dynamic_arrayI7Hash128Lj8EEEEvRT_17TransferMetaFlags
IEb:__Z28scripting_class_is_interface17ScriptingClassPtr
Gh:_glTexStorage2D
eBd:_SyncHashtable_get_Item_m2686606216
Vma:__ZNK9ShaderLab10SubProgram14EnsureCompiledEv
t0d:_MethodBuilder_GetGenericArguments_m1765425737
pzf:_DateTime_CompareTo_m3687348273
uCj:_GC_push_marked
xAf:_DateTime_ToUniversalTime_m1945318289_AdjustorThunk
ZGe:_InternalEnumerator_1_MoveNext_m1262669372_gshared
RFf:_Enum_t4135868527_marshal_pinvoke
t$:__Z18BuildScriptClassId17ScriptingClassPtr
OTi:_TextGenerator_Init_m1168488231
Aaf:_RSAManaged_Finalize_m3915335854
wq:__ZNK16LevelGameManager7GetNameEv
JMa:__ZL31DeleteLastPathNameComponentImplRKN4core12basic_stringIcNS_20StringStorageDefaultIcEEEEPKc
s2b:__Z13RegisterClassI18DelayedCallManagerEvv
SXc:__ZN18UnityConnectClient15GetCloudServiceEv
Btb:__Z18Transfer_BlittableI24GenerateTypeTreeTransferLb0EiEvRK29SerializationCommandArgumentsR31RuntimeSerializationCommandInfo
iBe:_InternalEnumerator_1_get_Current_m2698009637_gshared
i5i:__ZN6il2cpp2os19SocketHandleWrapperD2Ev
SQe:_Enumerator_System_Collections_IEnumerator_Reset_m278261807_gshared
BEb:__ZL28SerializationCommandGroupForRK31TransferFunctionScriptingTraits17ScriptingClassPtr17ScriptingFieldPtrRK20CoreScriptingClasses
NRa:__ZN10TagManager32RegisterDefaultTagsAndLayerMasksEv
M$f:_WaitHandle_Dispose_m738127030
bAh:_List_1_System_Collections_IList_get_IsReadOnly_m1729002068_gshared
jNg:__Z50RuntimeInvoker_Double_t594665363_Int32_t2950945753PFvvEPK10MethodInfoPvPS4_
Dlh:_Predicate_1_EndInvoke_m1490920825_gshared
wZh:__ZL78LoaderOptimization_t1484956347_CustomAttributesCacheGenerator_DisallowBindingsP21CustomAttributesCache
hag:_Dictionary_2_System_Collections_Generic_ICollectionU3CSystem_Collections_Generic_KeyValuePairU3CTKeyU2CTValueU3EU3E_CopyTo_m3122240003_gshared
XVg:__Z104RuntimeInvoker_Void_t1185182177_Color_t2555686324_Single_t1397266774_SByte_t1669577662_SByte_t1669577662PFvvEPK10MethodInfoPvPS4_
Bzh:_List_1_Remove_m3853969205_gshared
aqh:_Enumerator_System_Collections_IEnumerator_get_Current_m1540440674_gshared
etf:_Single_System_IConvertible_ToInt16_m809233024_AdjustorThunk
pVc:__Z56Register_UnityEngine_Analytics_CustomEventData_AddUInt32v
sKj:_fmodf
kTe:_InputField_UpdateLabel_m1837760870
Tua:__ZN4gles8InitCapsEP7ApiGLESP12GraphicsCapsR16GfxDeviceLevelGL
Xya:__ZN6prcore14BlitImageFloatERK14ImageReferenceRS0_NS0_8BlitModeE
bVa:__Z24CalculateVertexLightDataRK15SharedLightDataR14GfxVertexLight
oi:_glEnable
iej:__ZN15dense_hashtableINSt3__24pairIK10KeyWrapperINS1_IPK12PropertyInfoP11Il2CppClassEEEjEES9_17ReflectionMapHashIS8_EN14dense_hash_mapIS9_jSD_NS9_14EqualsComparerINS0_8equal_toIS8_EEEENS0_9allocatorISB_EEE9SelectKeyESI_SK_E15insert_noresizeERKSB_
RDe:_InternalEnumerator_1_MoveNext_m973048327_gshared
Sma:__ZNK9ShaderLab7Program28BeginReadUnsupportedVariantsEv
u6:__ZN12CachedWriter11Align4WriteEv
Wfb:__ZNSt3__26vectorIN30RuntimeInitializeOnLoadManager9ClassInfoE13stl_allocatorIS2_L18MemLabelIdentifier13ELi16EEE7reserveEj
Fqc:__Z35Transfer_Blittable_FixedBufferFieldI9JSONWriteiEvRK29SerializationCommandArgumentsR31RuntimeSerializationCommandInfo
dai:__ZL85AudioSource_t3935305588_CustomAttributesCacheGenerator_AudioSource_set_clip_m31653938P21CustomAttributesCache
$gg:_Enumerator__ctor_m1590062855_AdjustorThunk
Vgj:__ZN14dense_hash_mapI10KeyWrapperINSt3__24pairIPK10MethodInfoP11Il2CppClassEEEj17ReflectionMapHashIS8_ENS9_14EqualsComparerINS1_8equal_toIS8_EEEENS1_9allocatorINS2_IKS9_jEEEEEC2EjRKSB_RKSF_
Yx:__ZN26AnimatorControllerPlayable17ProcessRootMotionEP35AnimationPlayableEvaluationConstantP32AnimationPlayableEvaluationInputP33AnimationPlayableEvaluationOutput
SSh:__ZL54SoapServices_t133988723_CustomAttributesCacheGeneratorP21CustomAttributesCache
dRd:_UnexceptionalStreamReader_Peek_m1842169584
tWc:__ZN11UnityEngine7Connect15DeviceInfoEvent16CollectExtraInfoEv
hEh:_Queue_1_System_Collections_IEnumerable_GetEnumerator_m3464578225_gshared
ADg:_TypeInferenceRuleAttribute__ctor_m2736695831
bmg:_Bounds_GetHashCode_m1844059663_AdjustorThunk
Qid:_CryptographicException__ctor_m1422015889
cDg:_Vector4_Equals_m1779210055_AdjustorThunk
NFd:_Convert_ChangeType_m739676612
DLj:_atoi
CId:_Int32_System_IConvertible_ToInt32_m265310525_AdjustorThunk
ELj:_atol
vAj:__ZThn8_N6il2cpp2vm13CachedCCWBaseINS0_13ManagedObjectEE6AddRefEv
_ce:_Alert_GetAlertMessage_m1942367141
_bh:_ReadOnlyCollection_1_GetEnumerator_m3690861713_gshared
Fji:__ZL88Selectable_t3250028441_CustomAttributesCacheGenerator_U3CisPointerDownU3Ek__BackingFieldP21CustomAttributesCache
tne:_RemotingServices_GetRealProxy_m2081098851
K8e:_BlockProcessor_Core_m189015002
B0i:__ZN15dense_hashtableINSt3__24pairIK10KeyWrapperIPKcEP11Il2CppClassEES5_N6il2cpp5utils11StringUtils12StringHasherIS4_EEN14dense_hash_mapIS5_S8_SE_NS5_14EqualsComparerINSB_13VmStringUtils21CaseSensitiveComparerEEENS0_9allocatorIS9_EEE9SelectKeyESJ_SL_EC2EjRKSE_RKSJ_RKSN_
YSj:_emscripten_glScissor__wrapper
Do:FUNCTION_TABLE_viifi
Eo:FUNCTION_TABLE_viiff
Bmd:_X501__cctor_m1166912714
afi:__ZL102PointerEventData_t3807901092_CustomAttributesCacheGenerator_PointerEventData_set_lastPress_m2928324031P21CustomAttributesCache
vZe:_MaskUtilities_GetRectMasksForClip_m532898711
OHc:_UNITY_tt_face_free_hdmx
Dmg:_Bounds_ToString_m4208690781
Tjj:__ZN15dense_hashtableINSt3__24pairIK10KeyWrapperINS1_IP11Il2CppClassjEEES4_EES6_N6il2cpp8metadata14ArrayClassHashEN14dense_hash_mapIS6_S4_SB_NS6_14EqualsComparerINSA_17ArrayClassCompareEEENS0_9allocatorIS8_EEE9SelectKeyESF_SH_E5clearEv
_$i:__ZNSt3__218uninitialized_copyIPNS_4pairIK10KeyWrapperIPK11Il2CppClassEPKcEESB_EET0_T_SD_SC_
bSi:__ZL25UnresolvedVirtualCall_236P12Il2CppObjecti19Vector2_t2156229523PK10MethodInfo
WRd:_Math_Sqrt_m1297338011
SPd:_StreamWriter_Initialize_m3490883444
l2f:_Type_GetGenericArguments_m3500465462
o_c:__ZN23UnityPurchasingSettingsC2Ev
dNj:__ZNSt9bad_allocD0Ev
i3d:_Module_IsDefined_m2423524910
eLa:__ZN12TLSAllocatorI14StackAllocatorE16ThreadInitializeEP13BaseAllocator
Bbi:__ZL60EventType_t3528516131_CustomAttributesCacheGenerator_repaintP21CustomAttributesCache
STa:__ZN17GPUFenceInternals7ReleaseEv
xji:__ZL66Selectable_t3250028441_CustomAttributesCacheGenerator_m_NavigationP21CustomAttributesCache
q6d:_ResolveEventHandler__ctor_m1911137231
U7g:_Collection_1_System_Collections_IList_Contains_m2393482847_gshared
DXb:__ZL10RenderFaceR9GfxDeviceR18MaterialStateCacheP13RenderTextureiif
qQf:_Array_IndexOf_TisCustomAttributeNamedArgument_t287865710_m2817957199_gshared
Eja:__ZN15SerializeTraitsI13dynamic_arrayIN9ShaderLab21SerializedBindChannelELj4EEE19ResizeSTLStyleArrayERS3_i
Jqj:__ZNK24NamespaceAndNamePairHashclERKNSt3__24pairIPKcS3_EE
Ovi:_ExtendedKeyUsageExtension_ToString_m2116504780
Pib:__ZNK5Unity9Component38MarkGameObjectAndComponentDependenciesER27GarbageCollectorThreadState
iLd:_BinaryReader_Read_m3708759962
K$c:__ZN20UnityWebRequestProtoI24UnityWebRequestTransport16AtomicRefCounter14RedirectHelper14ResponseHelper15DownloadHandler13UploadHandler12HeaderHelper14AsyncOperationED0Ev
QN:__ZNK7Texture21GetShadowSamplingModeEv
E6a:__ZN13ScreenManager21OnWindowRegainedFocusEv
SBb:__Z18Transfer_BlittableI18StreamedBinaryReadILb0EELb1EdEvRK29SerializationCommandArgumentsR31RuntimeSerializationCommandInfo
yua:__ZN9GfxDevice26CreateDefaultVertexBuffersEv
qUj:_emscripten_glVertexAttrib2fv__wrapper
v0c:__ZN13RuntimeStaticINSt3__26vectorIPN5physx15PxVehicleWheelsENS0_9allocatorIS4_EEEELb0EE13StaticDestroyEPv
rQd:_SynchronizedReader_ReadToEnd_m2160105378
mFf:_Double_System_IConvertible_ToUInt16_m4132603953_AdjustorThunk
Rxa:__ZN4crnd12symbol_codec32decode_receive_static_data_modelERNS_25static_huffman_data_modelE
V0b:__ZN18ScriptingArguments8AddFloatEf
OAg:_TouchScreenKeyboard_Open_m3325559252
pfd:_Image_set_fillOrigin_m469806249
jWc:__ZN11UnityEngine15PlatformWrapper16GetVRRenderScaleEv
Frc:__Z18Transfer_BlittableI9JSONWriteLb0EaEvRK29SerializationCommandArgumentsR31RuntimeSerializationCommandInfo
QR:__ZN11UnityEngine15CloudWebService14DataDispatcher34OnSessionContainerArchivedAndReadyERNS0_16SessionContainerE
kug:_ConnectionChangeEvent__ctor_m764126802
x9d:_Kernel_Multiply_m193213393
SSd:_IntComparer__ctor_m2901422390
r6d:_ResolveEventHandler_Invoke_m1337322179
XTh:__ZL50HMACMD5_t2742219965_CustomAttributesCacheGeneratorP21CustomAttributesCache
xIe:_Comparer_1__ctor_m1078828713_gshared
Xvb:__Z18Transfer_BlittableI19StreamedBinaryWriteILb0EELb0E8Vector3fEvRK29SerializationCommandArgumentsR31RuntimeSerializationCommandInfo
Rjg:_Enumerator_VerifyState_m2621680056_gshared
wEi:_UriParser_InternalRegister_m3643767086
i9h:__ZL106TextGenerator_t3211863866_CustomAttributesCacheGenerator_TextGenerator_INTERNAL_get_rectExtents_m183810018P21CustomAttributesCache
aia:__ZN14SafeBinaryRead19TransferSTLStyleMapINSt3__23mapIN4core12basic_stringIcNS3_20StringStorageDefaultIcEEEEiNS1_4lessIS7_EENS1_9allocatorINS1_4pairIKS7_iEEEEEEEEvRT_17TransferMetaFlags
jAf:_DateTimeFormatInfo_get_RawAbbreviatedDayNames_m1257850285
Ndj:__ZN15dense_hashtableINSt3__24pairIK10KeyWrapperINS1_IPK11Il2CppImageP11Il2CppClassEEEjEES9_17ReflectionMapHashIS8_EN14dense_hash_mapIS9_jSD_NS9_14EqualsComparerINS0_8equal_toIS8_EEEENS0_9allocatorISB_EEE9SelectKeyESI_SK_ED2Ev
_Fc:_gray_move_to
uBf:_DBNull_System_IConvertible_ToSingle_m13713620
mli:__ZL127U3CDelayedSetDirtyU3Ec__Iterator0_t3170500204_CustomAttributesCacheGenerator_U3CDelayedSetDirtyU3Ec__Iterator0_Reset_m160466733P21CustomAttributesCache
fng:_CameraCallback__ctor_m899467377
Uch:_ReadOnlyCollection_1_System_Collections_IList_Contains_m1327645028_gshared
Cfd:_Image_GetDrawingDimensions_m3060965396
a9h:__ZL69FontTextureRebuildCallback_t2467502454_CustomAttributesCacheGeneratorP21CustomAttributesCache
E2f:_TypeLoadException__ctor_m1154572625
gec:__Z30RegisterValidateMethodCallbackiPF18ScriptingMethodPtrS_17ScriptingClassPtrP6ObjectEPKc
Clb:__ZN20LocalFileSystemPosixD0Ev
IIh:__ZL75Decimal_t2948259380_CustomAttributesCacheGenerator_Decimal__ctor_m593929528P21CustomAttributesCache
ege:_Context_get_WriteSequenceNumber_m1115956887
Pod:_Activator_CreateInstanceInternal_m1337209899
tri:_Dictionary_2_Do_ICollectionCopyTo_TisKeyValuePair_2_t2401056908_m1169495264_gshared
d1d:_OpCodes__cctor_m3821715395
p9c:_ContentSizeFitter__ctor_m2349275633
x$h:__ZL56TypeConverter_t2249118273_CustomAttributesCacheGeneratorP21CustomAttributesCache
E7g:_Collection_1_RemoveAt_m3506636491_gshared
lFc:_tt_cmap_init
Xvc:__ZN8JSONRead8TransferI9BoundsIntEEvRT_PKc17TransferMetaFlagsb
Ia:invoke_viidi
Lpi:_Array_Sort_TisOrderBlock_t1585977831_m2922111197_gshared
bdd:_Graphic_OnRectTransformDimensionsChange_m3695755375
xhd:_SByte_System_IConvertible_ToChar_m1489191771_AdjustorThunk
JI:__ZN9AudioClip7CleanupEv
j0g:__Z76RuntimeInvoker_Void_t1185182177_Int32_t2950945753_PlayableBinding_t354260709PFvvEPK10MethodInfoPvPS4_
Ulf:_Interval_t1802865632_marshal_pinvoke_cleanup
dlj:__ZNK15dense_hashtableINSt3__24pairIK10KeyWrapperIP11Il2CppClassES4_EES5_N6il2cpp8metadata16SZArrayClassHashEN14dense_hash_mapIS5_S4_SA_NS5_14EqualsComparerINS9_19SZArrayClassCompareEEENS0_9allocatorIS7_EEE9SelectKeyESE_SG_E12test_deletedEj
xdd:_Graphic_GraphicUpdateComplete_m1502194795
yuc:__Z18Transfer_BlittableI8JSONReadLb0EdEvRK29SerializationCommandArgumentsR31RuntimeSerializationCommandInfo
Ioe:_SynchronizationAttribute_EnterContext_m1660729920
sVi:_Canvas_get_referencePixelsPerUnit_m3420541976
_ch:_ReadOnlyCollection_1_System_Collections_ICollection_get_SyncRoot_m2522539235_gshared
EFi:_Event_get_current_m2393892120
OLi:_VertexHelper_Clear_m627349662
B5i:__ZN6il2cpp2vm21ThreadPoolCompartment13QueueWorkItemEP17Il2CppAsyncResult
vpa:__ZNK9GfxDevice13GetViewMatrixEv
ARd:_UnmanagedMemoryStream_Dispose_m2681886347
Phb:__ZN17RemapPPtrTransferC2E24TransferInstructionFlagsb
HDd:_Convert_ToDecimal_m889385228
R0:__ZN8TypeTree8BlobReadERPKhS1_ib
x2h:__ZL87Display_t1387065949_CustomAttributesCacheGenerator_Display_GetSystemExtImpl_m2808197389P21CustomAttributesCache
crd:_Array_Reverse_m3714848183
xbd:_Dropdown_ClearOptions_m4085591601
C8c:_CanvasUpdateRegistry_InternalRegisterCanvasElementForGraphicRebuild_m3522560454
B9f:_KeyValuePair_2__ctor_m880186442_gshared
rgb:__ZN18LoadSceneOperation23GetAllowSceneActivationEv
lSa:__ZN6CameraD0Ev
TEh:_Collection_1_System_Collections_IList_get_IsReadOnly_m2319019412_gshared
Bfa:__ZN31CanvasBatchIntermediateRenderer16StaticInitializeEPv
eah:_Collection_1_System_Collections_IList_IndexOf_m837396833_gshared
ox:__ZN7mecanim12AndValueMaskILb0EEEvPKNS_14ValueArrayMaskEPS1_
Kfb:__ZN14SafeBinaryRead21TransferSTLStyleArrayINSt3__26vectorIi13stl_allocatorIiL18MemLabelIdentifier13ELi16EEEEEEvRT_17TransferMetaFlags
KVf:_EncoderFallback__cctor_m3806755293
hye:_InternalEnumerator_1__ctor_m962177456_AdjustorThunk
XLc:_raccess_guess_apple_double
WBa:__ZL18ProgramUniform1uivPK7ApiGLESjiihPKv
w5b:__ZN14Texture2DArray13RebuildMipMapEv
A$i:__ZN13Il2CppHashSetIPK17Il2CppGenericInstN6il2cpp8metadata21Il2CppGenericInstHashENS4_24Il2CppGenericInstCompareENSt3__29allocatorI10KeyWrapperIS2_EEEEC2EjRKS5_RKS6_
Yob:__Z18Transfer_BlittableI14SafeBinaryReadLb1EaEvRK29SerializationCommandArgumentsR31RuntimeSerializationCommandInfo
hxj:__ZN6il2cpp2gc16GarbageCollector14RemoveWeakLinkEPPv
zna:__ZN9ShaderLab20SerializedSubProgram14AddVectorParamEPKcii15ShaderParamTypei
Hwh:_List_1_GetEnumerator_m563931292_gshared
ERc:__ZN2UI14CanvasRenderer12CleanupClassEv
mCd:_Enumerator__ctor_m3362421874
lUg:__Z117RuntimeInvoker_CSSSize_t3377836552_IntPtr_t_Single_t1397266774_Int32_t2950945753_Single_t1397266774_Int32_t2950945753PFvvEPK10MethodInfoPvPS4_
tYj:_emscripten_glIsFramebuffer__wrapper
huj:__ZN6il2cpp2vm6Object3BoxEP11Il2CppClassPv
Tlj:__ZN6il2cpp2vm6Thread7SetNameEP12Il2CppThreadP12Il2CppString
OGb:__ZN13ScreenManager18SetAllowCursorLockEb
iT:__ZN11UnityEngine15CloudWebService10RestClientINS0_23WebRequestRestHeaderMapEE16SetRequestHeaderERKN4core12basic_stringIcNS4_20StringStorageDefaultIcEEEESA_
Pfb:__ZN30RuntimeInitializeOnLoadManager15ClassMethodInfo8TransferI14SafeBinaryReadEEvRT_
tpe:_ConstructionCall_InitDictionary_m2824447813
j6d:_TargetException__ctor_m3701535709
YZg:__Z86RuntimeInvoker_Int32_t2950945753_Vector3_t3722313464_Vector3_t3722313464_RuntimeObjectPFvvEPK10MethodInfoPvPS4_
FP:__ZL22InitializeModule_Audiov
Omb:__ZN16MemoryFileSystem8IsLockedERK13FileEntryData
Anj:__ZN6il2cpp6icalls8mscorlib6System2IO6MonoIO5WriteEiP11Il2CppArrayiiPi
Wsg:_Mathf_InverseLerp_m4155825980
wKg:__Z92RuntimeInvoker_RuntimeObject_RuntimeObject_RuntimeObject_SByte_t1669577662_SByte_t1669577662PFvvEPK10MethodInfoPvPS4_
al:_emscripten_glBindRenderbuffer
tuh:_List_1_System_Collections_IList_Insert_m1011775503_gshared
uDj:_GC_dirty_init
Crj:__ZN6il2cpp2vm5Image33GetCachedMemoryMappedResourceFileEP24Il2CppReflectionAssembly
Vtj:__ZN6il2cpp2vm5Field14GetValueObjectEP9FieldInfoP12Il2CppObject
aRc:__ZNK2UI6Canvas16GetTargetDisplayEv
$Yg:__Z69RuntimeInvoker_Void_t1185182177_Int32_t2950945753_Vector2_t2156229523PFvvEPK10MethodInfoPvPS4_
u0f:_TimeSpan_CompareTo_m3633415627_AdjustorThunk
qda:__ZN6Object17FindObjectsOfTypeEPKN5Unity4TypeER13dynamic_arrayIPS_Lj4EEb
o9b:__ZNSt3__26vectorINS_4pairIiiEE13stl_allocatorIS2_L18MemLabelIdentifier1ELi16EEE21__push_back_slow_pathIKS2_EEvRT_
nZe:_MaskableGraphic_OnTransformParentChanged_m329502413
G4g:_Collection_1_Remove_m3611142372_gshared
_Db:__ZN13MonoBehaviour17RemoveFromManagerEv
DCg:_Vector3_get_Item_m668685504_AdjustorThunk
SSa:__ZN12ImageFilters14AddImageFilterERK11ImageFilter
Fne:_Context_NotifyDynamicSinks_m1841702879
eGi:_GUIUtility_get_pixelsPerPoint_m2369948084
Xrf:_WindowsIdentity_System_Runtime_Serialization_IDeserializationCallback_OnDeserialization_m3428853631
xW:__ZN13MemoryManagerC2Ev
PFa:__ZN12SkinMeshInfo10DeallocateEPS_
o0i:__ZNK15dense_hashtableINSt3__24pairIK10KeyWrapperIPKcEP11Il2CppClassEES5_N6il2cpp5utils11StringUtils12StringHasherIS4_EEN14dense_hash_mapIS5_S8_SE_NS5_14EqualsComparerINSB_13VmStringUtils21CaseSensitiveComparerEEENS0_9allocatorIS9_EEE9SelectKeyESJ_SL_E8min_sizeEjj
B0e:_ScrollRect_SetDirty_m214267968
xPa:__ZN20ArchiveStorageReader28AcquireAndPrefillUnusedBlockEjPNS_11CacheResultE
Isd:_Boolean_System_IConvertible_ToDateTime_m603510836
q5b:__Z12NHxRoughnessIA4_tEvP9Texture2DPT_iiii
l8e:_ASN1_get_Value_m1857007406
GPi:__ZL25UnresolvedVirtualCall_105P12Il2CppObjecthPK10MethodInfo
Kda:__ZN18AsyncUploadManagerD2Ev
qkb:__ZN9Transform5ResetEv
ADf:_Decimal_op_Explicit_m1842265407
Ivb:__Z22TransferField_NonArrayI24GenerateTypeTreeTransfer16Converter_StringEvRK23StaticTransferFieldInfoR31RuntimeSerializationCommandInfoRT0_
QWh:__ZL52Activator_t1841325713_CustomAttributesCacheGeneratorP21CustomAttributesCache
GBc:_UNITY_FT_CMap_New
Xxe:_InternalEnumerator_1_get_Current_m4241643334_AdjustorThunk
_we:_InternalEnumerator_1_MoveNext_m154749640_AdjustorThunk
HGb:__Z17MainLoopKeepalivePv
Qji:__ZL62Slider_t3903728902_CustomAttributesCacheGenerator_m_HandleRectP21CustomAttributesCache
l1i:__ZN15dense_hashtableI10KeyWrapperIPK17Il2CppGenericInstES4_N6il2cpp8metadata21Il2CppGenericInstHashEN14dense_hash_setIS4_S7_NS4_14EqualsComparerINS6_24Il2CppGenericInstCompareEEENSt3__29allocatorIS4_EEE8IdentityESB_SE_E12expand_arrayEjN21dense_hash_map_traits17integral_constantIbLb0EEE
lEe:_InternalEnumerator_1_get_Current_m1588647567_AdjustorThunk
kWd:_Assembly_UnprotectedGetName_m600830855
DQh:__ZL51GCHandle_t3351438187_CustomAttributesCacheGeneratorP21CustomAttributesCache
NVb:__Z14CalcHullBoundsPK8Vector3fPKhhRK5PlaneRK10Matrix4x4fR10MinMaxAABB
DTe:_InputField_get_caretBlinkRate_m3620074524
RKi:_FieldWithTarget_get_fieldPath_m341366840
FOb:__Z19SetupLODFadeKeywordR17ShaderPassContexti
Tnf:_RSAPKCS1SignatureFormatter_CreateSignature_m3191980616
n$a:__ZN10builtintex16GetDefaultTexEnvE16TextureDimensionb
rFa:__ZL25CheckCopyTextureArgumentsRK7ApiGLESP11GLESTextureS3_
nEe:_InternalEnumerator_1__ctor_m362401472_AdjustorThunk
Iuh:_List_1_AsReadOnly_m2400800347_gshared
ZUj:_glDeleteShader__wrapper
fvb:__Z29Transfer_Blittable_ArrayFieldI24GenerateTypeTreeTransferyEvRT_R9ArrayInfoRK23StaticTransferFieldInfo
O5f:_ValueType_Equals_m1524437845
k6h:__ZL71RuntimePlatform_t4159857903_CustomAttributesCacheGenerator_OSXWebPlayerP21CustomAttributesCache
uJ:__ZN4FMOD7SystemI9playSoundE17FMOD_CHANNELINDEXPNS_5SoundEbPPNS_7ChannelE
BXg:__Z123RuntimeInvoker_RuntimeObject_Ray_t3785851493_RuntimeObject_Single_t1397266774_Int32_t2950945753_RuntimeObject_RuntimeObjectPFvvEPK10MethodInfoPvPS4_
VJd:_Int64_GetHashCode_m703091690
hJf:_CultureInfo_set_DateTimeFormat_m1843682751
Ayi:_X509CrlEntry_get_RevocationDate_m606796547
xFi:_Event_get_commandName_m4275147343
nx:__ZN27AnimationLayerMixerPlayable17LayerMixerProcessEP35AnimationPlayableEvaluationConstantP32AnimationPlayableEvaluationInputP33AnimationPlayableEvaluationOutputM17AnimationPlayableFvS1_S3_S5_EMS_FvS1_S3_S5_ESA_MS_FvS5_S1_S3_S5_ifE
HDf:_Decimal_op_Implicit_m4256234411
VH:__ZN12AudioManager23VirtualRedirectTransferER18StreamedBinaryReadILb0EE
ZGg:__Z60RuntimeInvoker_RuntimeObject_RuntimeObject_Int16_t2552820387PFvvEPK10MethodInfoPvPS4_
vPd:_StreamReader__ctor_m3941437302
lkc:__Z57Register_UnityEngine_Transform_INTERNAL_get_localRotationv
Gef:_IPv6Address_get_Address_m1389170741
Cfb:__ZN30RuntimeInitializeOnLoadManager23VirtualRedirectTransferER17RemapPPtrTransfer
LPj:dynCall_viif
BWd:_AssemblyName_get_Flags_m1616840602
rs:__ZN7mecanim4hand8HandPoseC2Ev
o4h:__ZL86Material_t340375123_CustomAttributesCacheGenerator_Material_DisableKeyword_m1245091008P21CustomAttributesCache
mQd:_StringReader_ReadLine_m2337102945
Nsb:__ZL26Transfer_SimpleNativeClassI17RemapPPtrTransfer8GradientLb0EEvRK29SerializationCommandArgumentsR31RuntimeSerializationCommandInfo
hBd:_SyncHashtable_Add_m3016107307
_y:__ZN17AnimationPlayable26DisconnectNoTopologyChangeEPS_i
ptd:_Boolean_Equals_m2410333903_AdjustorThunk
RAh:_List_1_System_Collections_IList_Contains_m2131605266_gshared
iTh:__ZL61ISurrogateSelector_t3040401154_CustomAttributesCacheGeneratorP21CustomAttributesCache
vCh:_List_1_ToArray_m1990123684_gshared
dU:__ZN13UploadHandlerD2Ev
fOj:dynCall_viiiiiffi
HUi:_Hacker__ctor_m518604791
Cc:_emscripten_glBlendFuncSeparate
H6g:_Collection_1_Add_m809543251_gshared
L_:__Z20scripting_string_newPKc
Kic:__Z43Material_CUSTOM_Internal_CreateWithMaterialP12Il2CppObjectS0_
GDi:_Parser_IsSingleline_m326238187
lzd:_CollectionBase_get_Count_m1708965601
lkd:_HMAC__ctor_m97939284
Peh:_ReadOnlyCollection_1_System_Collections_IList_get_Item_m1005238747_gshared
_Yh:__ZL49DBNull_t3725197148_CustomAttributesCacheGeneratorP21CustomAttributesCache
N5f:_ValueType_DefaultEquals_m2927252100
bqc:__ZN9JSONWrite12AppendToNodeEPN5Unity9rapidjson12GenericValueINS1_4UTF8IcEE13JSONAllocatorEEPKcRS6_
s8e:_ASN1_ToString_m1340204511
oif:_X509Store_get_Certificates_m2149701265
Xag:_DefaultComparer_GetHashCode_m2865442331_gshared
T1f:_Type_GetField_m2961003358
Wfi:__ZL144StandaloneInputModule_t2760469101_CustomAttributesCacheGenerator_StandaloneInputModule_t2760469101____allowActivationOnMobileDevice_PropertyInfoP21CustomAttributesCache
BXf:_StringBuilder_set_Chars_m3548656617
C8i:__ZN6il2cpp2os4File17GetFileAttributesERKNSt3__212basic_stringIcNS2_11char_traitsIcEENS2_9allocatorIcEEEEPi
I_g:__Z59RuntimeInvoker_Int32_t2950945753_X509ChainStatus_t133602714PFvvEPK10MethodInfoPvPS4_
dC:__ZNSt3__26__sortIRPFbPKN8Animator11AnimatorJobES4_EPS4_EEvT0_S9_T_
_G:__ZN17AudioCustomFilterD2Ev
Gnc:__ZN11IMGUIModule26SetDeveloperConsoleVisibleEb
n$g:__Z56RuntimeInvoker_Void_t1185182177_MonoResource_t4103430009PFvvEPK10MethodInfoPvPS4_
xkb:__ZN9Transform16ResetReplacementEv
nBj:_GC_unpromote_black_lists
VMh:__ZL64DebuggerBrowsableState_t747501856_CustomAttributesCacheGeneratorP21CustomAttributesCache
IDa:__ZN18GfxFramebufferGLES18ReleaseFramebufferEP17RenderSurfaceBaseP14GfxContextGLES
otc:__Z18Transfer_BlittableI8JSONReadLb1EiEvRK29SerializationCommandArgumentsR31RuntimeSerializationCommandInfo
FQd:_TextReader_Dispose_m4253712522
wV:__ZN19CloudServiceHandler34HandleSaveFileWebRequestPlayerLoopEv
E_h:__ZL82BigInteger_t2902905090_CustomAttributesCacheGenerator_BigInteger__ctor_m2474659844P21CustomAttributesCache
My:__ZN7mecanim21ValueArrayReverseCopyEPKNS_18ValueArrayConstantEPKNS_10ValueArrayES2_PS3_PKi
IG:__Z31GetParentSampleClipFromInstancePN11SoundHandle8InstanceE
$ti:_InternalAsyncResult_get_BytesRead_m3975435112
Q3b:__ZNK28RectTransformPropertyBinding13GetFloatValueERKN11UnityEngine9Animation10BoundCurveE
_Xb:__ZN6Camera22StandaloneCustomRenderENS_10RenderFlagEP6ShaderRKN4core12basic_stringIcNS3_20StringStorageDefaultIcEEEEPNS_21PerformRenderFunctionE
MQf:_Array_InternalArray__IndexOf_TisKeyValuePair_2_t2401056908_m4118889689_gshared
ffb:__ZNSt3__26vectorI4PPtrI6ObjectE13stl_allocatorIS3_L18MemLabelIdentifier52ELi16EEE6assignINS_11__wrap_iterIPS3_EEEENS_9enable_ifIXaasr21__is_forward_iteratorIT_EE5valuesr16is_constructibleIS3_NS_15iterator_traitsISD_E9referenceEEE5valueEvE4typeESD_SD_
Vah:_Collection_1_System_Collections_ICollection_get_IsSynchronized_m500240145_gshared
V$h:__ZL68X509CertificateCollection_t3399372417_CustomAttributesCacheGeneratorP21CustomAttributesCache
kIj:__ZN6il2cpp2os16ThreadLocalValue8GetValueEPPv
rhf:_X509Certificate2_get_PublicKey_m370665820
Tyc:_cff_slot_init
T3i:__ZN6il2cpp2vm13MetadataCache14GetGenericInstEPKPK10Il2CppTypej
IP:__ZN13AudioListener17ReadExtensionNameEi
Nb:invoke_iiidii
g4g:_Collection_1_System_Collections_Generic_ICollectionU3CTU3E_get_IsReadOnly_m1419845799_gshared
SJi:_U3CTimedTriggerU3Ec__Iterator0_System_Collections_Generic_IEnumeratorU3CobjectU3E_get_Current_m3822291412
nP:__ZN9AudioClip15InitializeClassEv
ip:setThrew
Nre:_SoapMethodAttribute_get_XmlNamespace_m4029617514
h5b:__ZL21BuildEmptyCubeTexturePKci11ColorRGBA3217TextureColorSpace
m1h:__ZL106AsyncOperation_t1445031843_CustomAttributesCacheGenerator_AsyncOperation_InvokeCompletionEvent_m1410305036P21CustomAttributesCache
vzg:_SelectionBaseAttribute__ctor_m2749097321
dia:__ZN14SafeBinaryRead21TransferSTLStyleArrayINSt3__26vectorIN9ShaderLab20SerializedSubProgramENS1_9allocatorIS4_EEEEEEvRT_17TransferMetaFlags
jRf:_Array_InternalArray__IndexOf_TisX509ChainStatus_t133602714_m48896230_gshared
aOa:__ZN19dynamic_block_arrayI13FileEntryInfoLj32EE4growEj
xtc:__Z15Transfer_StringI8JSONReadLb1EEvRK29SerializationCommandArgumentsR31RuntimeSerializationCommandInfo
rAa:__ZN6prcoreL17RemapGenericFloatI17TexFormatRGBFloat15TexFormatRGHalfEEvPKNS_9InnerInfoE
ORh:__ZL63IContributeEnvoySink_t2817847987_CustomAttributesCacheGeneratorP21CustomAttributesCache
_Dc:_sfnt_load_face
uLc:_UNITY_FT_Render_Glyph_Internal
soj:__ZNSt3__212basic_stringIDsNS_11char_traitsIDsEENS_9allocatorIDsEEE21__grow_by_and_replaceEjjjjjjPKDs
_Bc:_UNITY_ft_service_list_lookup
Gsb:__Z18Transfer_BlittableI17RemapPPtrTransferLb1E11ColorRGBA32EvRK29SerializationCommandArgumentsR31RuntimeSerializationCommandInfo
dnc:__ZN5IMGUI21SelectReceivingWindowER8GUIStateb
Bkd:_HMAC_Initialize_m3157696427
dYa:__ZN4PPtrI5LightE8TransferI14SafeBinaryReadEEvRT_
CKj:___strchrnul
Wyh:_List_1_System_Collections_ICollection_CopyTo_m3643417403_gshared
YV:__ZN13BaseAllocator13TryDeallocateEPv
Lxb:__Z29Transfer_Blittable_ArrayFieldI19StreamedBinaryWriteILb0EEfEvRT_R9ArrayInfoRK23StaticTransferFieldInfo
eTi:_ListPool_1_Release_m1363449253_gshared
kgf:_X509SubjectKeyIdentifierExtension__ctor_m2055934916
fkg:_Enumerator_Dispose_m2531396701_AdjustorThunk
wmb:__ZN16MemoryFileSystem5WriteER13FileEntryDatayPvPy
aUa:__ZNSt3__26vectorIN12FlareManager10FlareEntryENS_9allocatorIS2_EEE21__push_back_slow_pathIKS2_EEvRT_
tJj:_sprintf
R7h:__ZL67NativeContainerAttribute_t2600515814_CustomAttributesCacheGeneratorP21CustomAttributesCache
Ndc:__ZN9Scripting25CreateNullExceptionObjectE18ScriptingObjectPtr
vaf:_PrivateKeyInfo_DecodeRSA_m2889346634
CH:__ZN13AudioListener17RemoveFromManagerEv
wd:_glAttachShader
A9c:_ContentSizeFitter_SetLayoutHorizontal_m2833273874
Pbh:_ReadOnlyCollection_1_System_Collections_IList_RemoveAt_m134366701_gshared
pY:__ZNK6Camera19GetProjectionMatrixEv
gii:__ZL70InputField_t3762917431_CustomAttributesCacheGenerator_m_SelectionColorP21CustomAttributesCache
dUe:_InputField_SetToCustomIfContentTypeIsNot_m2813459946
QDg:__Z49RuntimeInvoker_DateTime_t3738529785_RuntimeObjectPFvvEPK10MethodInfoPvPS4_
q6h:__ZL70RuntimePlatform_t4159857903_CustomAttributesCacheGenerator_FlashPlayerP21CustomAttributesCache
$Kf:_Guid_GetHashCode_m3042133858_AdjustorThunk
k_:__Z38PreallocateObjectFromPersistentManagerib
nFi:_Event_t2956885303_marshal_pinvoke_cleanup
qsf:_SecurityException_get_FirstPermissionThatFailed_m3934559164
jlf:_Interpreter_Backtrack_m2828876822
T2a:__ZNK9Texture2D20GetUnscaledTextureIDEv
NOh:__ZL103TypeBuilder_t1073948154_CustomAttributesCacheGenerator_TypeBuilder_DefineDefaultConstructor_m2168449784P21CustomAttributesCache
Nhd:_SByte_System_IConvertible_ToType_m4075253447
uWj:_glFenceSync__wrapper
oZi:__ZNK15dense_hashtableINSt3__24pairIK10KeyWrapperIPK22Il2CppGenericParameterEP11Il2CppClassEES6_N6il2cpp5utils11PointerHashIS4_EEN14dense_hash_mapIS6_S9_SE_NS6_14EqualsComparerINS0_8equal_toIS5_EEEENS0_9allocatorISA_EEE9SelectKeyESJ_SL_E8min_sizeEjj
BBg:_Transform_INTERNAL_get_worldToLocalMatrix_m2730237241
tVe:_InputField_IsValidChar_m1928072643
A$g:__Z51RuntimeInvoker_Void_t1185182177_HitInfo_t3229609740PFvvEPK10MethodInfoPvPS4_
Y2a:__ZNK9Texture2D26CanReuploadDataToGfxDeviceEv
JCb:__ZN18StreamedBinaryReadILb0EE21TransferSTLStyleArrayI13dynamic_arrayI4AABBLj4EEEEvRT_17TransferMetaFlags
eVh:__ZL63CodeAccessPermission_t2681295399_CustomAttributesCacheGeneratorP21CustomAttributesCache
bhb:__Z29ClearRepeatingLogMessageStatev
yCe:_InternalEnumerator_1_get_Current_m3191242573_gshared
sud:_Byte_Equals_m1161982810_AdjustorThunk
T_g:__Z53RuntimeInvoker_Int32_t2950945753_UICharInfo_t75501106PFvvEPK10MethodInfoPvPS4_
$3b:__ZN15QualitySettings12CleanupClassEv
Yie:_SslCipherSuite_ComputeMasterSecret_m3963626850
ZBh:_List_1_GrowIfNeeded_m278824317_gshared
LJa:__ZN7ApiGLESD2Ev
wQi:__ZL25UnresolvedVirtualCall_149P12Il2CppObject22Navigation_t3049316579S1_PK10MethodInfo
hRa:__ZN9Transform47ClearTransformHierarchyAndApplyToSerializedDataEv
Muc:__ZN8JSONRead21TransferSTLStyleArrayINSt3__26vectorI8MonoPPtr13stl_allocatorIS3_L18MemLabelIdentifier1ELi16EEEEEEvRT_17TransferMetaFlags
OKd:_IntPtr_op_Explicit_m536245531
rSa:__ZN6Camera23VirtualRedirectTransferER19StreamedBinaryWriteILb0EE
aQj:dynCall_fidi
Ibj:__ZN15dense_hashtableINSt3__24pairIK10KeyWrapperINS1_IPK9FieldInfoP11Il2CppClassEEEjEES9_17ReflectionMapHashIS8_EN14dense_hash_mapIS9_jSD_NS9_14EqualsComparerINS0_8equal_toIS8_EEEENS0_9allocatorISB_EEE9SelectKeyESI_SK_E12resize_deltaEjj
avh:_List_1_TrimExcess_m3433550210_gshared
UIh:__ZL63IntPtr_t_CustomAttributesCacheGenerator_IntPtr__ctor_m987082960P21CustomAttributesCache
O0i:__ZNK15dense_hashtableINSt3__24pairIK10KeyWrapperIPK19Il2CppGenericMethodEPK26Il2CppGenericMethodIndicesEES6_N6il2cpp8metadata23Il2CppGenericMethodHashEN14dense_hash_mapIS6_SA_SE_NS6_14EqualsComparerINSD_26Il2CppGenericMethodCompareEEENS0_9allocatorISB_EEE9SelectKeyESI_SK_E8min_sizeEjj
LRh:__ZL58IContextProperty_t840037424_CustomAttributesCacheGeneratorP21CustomAttributesCache
pGi:_GUILayoutEntry__ctor_m2229197035
CU:__ZN11UnityEngine15CloudWebService14RestDownloaderD2Ev
AZd:_EnumBuilder_get_Assembly_m1175292766
X_b:__Z29StdTemplateConversionFunctionIjhEbPvR14SafeBinaryRead
u4:__ZN15dense_hashtableINSt3__24pairIKN9ShaderLab7Program23ShaderKeywordSetAndHashEPKNS2_10SubProgramEEES4_NS3_24ShaderKeywordHashFunctorEN14dense_hash_mapIS4_S8_SA_NS0_8equal_toIS4_EE13stl_allocatorIS9_L18MemLabelIdentifier67ELi16EEE9SelectKeyESD_SG_E15insert_noresizeERKS9_
rqi:_Array_swap_TisCustomAttributeNamedArgument_t287865710_TisCustomAttributeNamedArgument_t287865710_m881919420_gshared
Ldc:__ZNK13MonoBehaviour13GetScriptTypeEv
oZa:__ZN13RenderTexture12SetDimensionE16TextureDimension
X8e:_DSAManaged_add_KeyGenerated_m2286864968
me:_SDL_FreeRW
zei:__ZL109ExecuteEvents_t3484638744_CustomAttributesCacheGenerator_ExecuteEvents_U3Cs_HandlerListPoolU3Em__0_m391641698P21CustomAttributesCache
_$g:__Z79RuntimeInvoker_Void_t1185182177_Int32_t2950945753_ParameterModifier_t1461694466PFvvEPK10MethodInfoPvPS4_
pSc:__Z34CanvasRenderer_Get_Custom_PropCullP12Il2CppObject
oN:__ZN20SoundChannelInstance8getDelayE14FMOD_DELAYTYPEPjS1_
MFj:__ZNSt3__26__treeINS_12__value_typeIPvxEENS_19__map_value_compareIS2_S3_NS_4lessIS2_EELb1EEENS_9allocatorIS3_EEE12__find_equalIS2_EERPNS_16__tree_node_baseIS2_EESF_RKT_
L4:__ZNSt3__26vectorIN20GpuProgramParameters15StructParameterENS_9allocatorIS2_EEEC2ERKS5_
awe:_ArrayReadOnlyList_1_Contains_m232667507_gshared
OMg:__Z77RuntimeInvoker_Boolean_t97287965_IntPtr_t_Int32_t2950945753_SByte_t1669577662PFvvEPK10MethodInfoPvPS4_
Avg:_PlayableHandle_GetPlayableType_m432385838_AdjustorThunk
jKc:__ZNSt3__26vectorIN20TextRenderingPrivate8FontImpl13CharacterInfoE13stl_allocatorIS3_L18MemLabelIdentifier1ELi16EEE8__appendEj
v:tempBigInt
VUf:_Array_InternalArray__Insert_TisKeyframe_t4206410242_m1558638568_gshared
pXh:__ZL77Convert_t2465617642_CustomAttributesCacheGenerator_Convert_ToByte_m3567528984P21CustomAttributesCache
ue:_emscripten_glVertexAttrib1fv
Mia:__ZNSt3__26vectorIN9ShaderLab20SerializedSubProgram12UAVParameterENS_9allocatorIS3_EEE7reserveEj
aNj:__ZSt11__terminatePFvvE
UJ:__ZN12AudioManager14systemCallbackEP11FMOD_SYSTEM24FMOD_SYSTEM_CALLBACKTYPEPvS3_
g8h:__ZL57PlayableOutput_t3179894105_CustomAttributesCacheGeneratorP21CustomAttributesCache
Hgh:_ReadOnlyCollection_1_System_Collections_Generic_ICollectionU3CTU3E_Clear_m3451551308_gshared
l7c:_BaseMeshEffect_OnEnable_m3291426649
ing:_ClassLibraryInitializer_Init_m988673678
BF:__ZN10SampleClip23VirtualRedirectTransferER24GenerateTypeTreeTransfer
AYa:__ZN16ReflectionProbes16UpdateSampleDataEv
F8h:__ZL90PlayerEditorConnectionEvents_t3411787513_CustomAttributesCacheGenerator_disconnectionEventP21CustomAttributesCache
pJf:_CultureInfo_GetCultureInfo_m56098747
i8a:__ZN14Texture2DArray5ResetEv
bVb:__Z20AddActiveLocalLightsR11CullResultsR27LocalLightCullingParametersPPK15SharedLightDataPK8Vector4fRK9IndexListPfRSA_R12ActiveLightsSG_P5RectTIfEP13TargetEyeMask
wMh:__ZL80Hashtable_t1853889766_CustomAttributesCacheGenerator_Hashtable__ctor_m1763145853P21CustomAttributesCache
CDd:_Convert_ToDecimal_m1284148187
A8g:_Collection_1__ctor_m3489157029_gshared
_Sj:_emscripten_glRenderbufferStorage__wrapper
U9i:__ZNK6il2cpp2vm14TypeNameParser10NextWillBeEcb
uzc:_cf2_getNormalizedVector
Re:_JS_Sound_Play
XNe:_KeyCollection_GetEnumerator_m1862005650_gshared
pXc:__Z26GetUnityConnectSettingsPtrv
Ehh:_ReadOnlyCollection_1_System_Collections_IList_set_Item_m1538987737_gshared
rha:__ZN9ShaderLab16SerializedShader8TransferI14SafeBinaryReadEEvRT_
GLa:__ZN5Mutex7TryLockEv
Aed:_GridLayoutGroup_set_constraint_m3308895167
mai:__ZL103AudioSource_t3935305588_CustomAttributesCacheGenerator_AudioSource_ReadExtensionPropertyValue_m72717540P21CustomAttributesCache
Mpe:_ConstructionCallDictionary_SetMethodProperty_m3145285304
NId:_Int32_System_IConvertible_ToUInt32_m3557270157
JPg:__Z243RuntimeInvoker_Void_t1185182177_Int16_t2552820387_RuntimeObject_Int32_t2950945753_Int32_t2950945753_Int32_t2950945753_SByte_t1669577662_SByte_t1669577662_SByte_t1669577662_SByte_t1669577662_Int16_t2552820387_SByte_t1669577662_SByte_t1669577662PFvvEPK10MethodInfoPvPS4_
Vwe:_InternalEnumerator_1_System_Collections_IEnumerator_get_Current_m1503522504_gshared
xB:__ZN7mecanim8skeleton13SkeletonAlignEPKNS0_8SkeletonERKN4math7_float4ES7_i
$5b:__ZN19ShaderPropertySheet16SetVectorIndexedEN9ShaderLab16FastPropertyNameEifRK8Vector4fNS_8SetFlagsE
m1f:_Type_get_IsAbstract_m1120089130
JCg:_Vector3_get_normalized_m2454957984_AdjustorThunk
pq:__ZN14SafeBinaryRead21TransferSTLStyleArrayIN4core12basic_stringIcNS1_20StringStorageDefaultIcEEEEEEvRT_17TransferMetaFlags
dFi:_UriFormatException__ctor_m1115096473
yAe:_InternalEnumerator_1_Dispose_m2818366163_AdjustorThunk
HOf:_Array_InternalArray__IEnumerable_GetEnumerator_TisSlot_t384495010_m460993382_gshared
c4h:__ZL114MonoBehaviour_t3962482529_CustomAttributesCacheGenerator_MonoBehaviour_StopCoroutineViaEnumerator_Auto_m3883784228P21CustomAttributesCache
Sjj:__ZN15dense_hashtableINSt3__24pairIK10KeyWrapperINS1_IP11Il2CppClassjEEES4_EES6_N6il2cpp8metadata14ArrayClassHashEN14dense_hash_mapIS6_S4_SB_NS6_14EqualsComparerINSA_17ArrayClassCompareEEENS0_9allocatorIS8_EEE9SelectKeyESF_SH_E9copy_fromERKSK_j
z$b:__Z29StdTemplateConversionFunctionIayEbPvR14SafeBinaryRead
PZf:_WaitHandle__ctor_m1707080176
N3g:__Z55RuntimeInvoker_Boolean_t97287965_Nullable_1_t2603721331PFvvEPK10MethodInfoPvPS4_
_Hi:_GUIUtility_IsExitGUIException_m3644066650
dV:__ZN11UnityEngine15CloudWebService14DataDispatcher4StopEv
n9c:_ColorBlock_GetHashCode_m4264192507
CGd:_Int16_System_IConvertible_ToUInt64_m134975563
Oia:__ZNSt3__26vectorIN9ShaderLab20SerializedSubProgram12UAVParameterENS_9allocatorIS3_EEE8__appendEj
$Ph:__ZL68TargetInvocationException_t4266643902_CustomAttributesCacheGeneratorP21CustomAttributesCache
nfj:__ZNK15dense_hashtableINSt3__24pairIK10KeyWrapperINS1_IPK9EventInfoP11Il2CppClassEEEjEES9_17ReflectionMapHashIS8_EN14dense_hash_mapIS9_jSD_NS9_14EqualsComparerINS0_8equal_toIS8_EEEENS0_9allocatorISB_EEE9SelectKeyESI_SK_E12test_deletedERK24dense_hashtable_iteratorISB_S9_SD_SM_SI_SK_E
Xmc:__ZN5IMGUI9GUIWindow5OnGUIER8GUIState
BNi:_AudioConfigurationChangeHandler_EndInvoke_m4175380841
atf:_Single_System_IConvertible_ToDecimal_m325860800_AdjustorThunk
GTf:_Array_InternalArray__ICollection_CopyTo_TisSingle_t1397266774_m455540885_gshared
YMa:__ZN17ScriptingGCHandle7AcquireE18ScriptingObjectPtr25ScriptingGCHandleWeakness
aPg:__Z74RuntimeInvoker_RuntimeObject_RuntimeObject_Int64_t3736567304_RuntimeObjectPFvvEPK10MethodInfoPvPS4_
kQc:__ZN2UI14CanvasRenderer14AttachToCanvasER8JobFencePNS_6CanvasENS0_15InstructionTypeE
iRe:_Enumerator__ctor_m1734342590_gshared
WOj:dynCall_iifiii
iRg:__Z85RuntimeInvoker_Int32_t2950945753_RuntimeObject_Int32U26_t1369213839_Int32_t2950945753PFvvEPK10MethodInfoPvPS4_
rya:__Z21HasAlphaTextureFormat13TextureFormat
ZO:__ZN12AudioManager6UpdateEv
kya:__ZN14ImageReference9BlitImageERKS_NS_8BlitModeE
$s:__ZN8Animator12AddToManagerEv
dSd:_MissingFieldException__ctor_m3742452630
fjf:_X509Chain__ctor_m2674663382
Igh:_ReadOnlyCollection_1_System_Collections_Generic_IListU3CTU3E_Insert_m1121807192_gshared
UEb:__ZN23CachedSerializationDataD2Ev
_Wb:__ZNK25CameraStackRenderingState31CalculateStereoCameraTargetTypeEv
aYa:__ZN14RenderSettings23VirtualRedirectTransferER14SafeBinaryRead
wFe:_InternalEnumerator_1_get_Current_m114240259_gshared
iwj:__ZN6il2cpp2os10ThreadImpl15CurrentThreadIdEv
dVf:_Array_InternalArray__Insert_TisVector2_t2156229523_m2148694950_gshared
DVa:__ZN17GlobalGameManager8TransferI17RemapPPtrTransferEEvRT_
ani:__ZL73FieldWithTarget_t3058750293_CustomAttributesCacheGenerator_m_StaticStringP21CustomAttributesCache
spf:_SymmetricAlgorithm_get_Key_m3241860519
xWe:_U3CMouseDragOutsideRectU3Ec__Iterator1_Reset_m2233410497
PTe:_InputField_set_customCaretColor_m720445789
IXa:__ZN16LevelGameManager8TransferI18StreamedBinaryReadILb0EEEEvRT_
UHc:_UNITY_tt_face_load_fpgm
bRa:__Z17IsObjectAvailablei
kcb:__ZN12InputManagerD0Ev
jEh:_Queue_1_Peek_m1713833142_gshared
VTh:__ZL64DSASignatureFormatter_t2007981259_CustomAttributesCacheGeneratorP21CustomAttributesCache
ZZf:_ExecutionContext_Capture_m681135907
_9f:_Dictionary_2_System_Collections_IDictionary_Add_m4011968134_gshared
mBb:__Z18Transfer_BlittableI18StreamedBinaryReadILb0EELb1EtEvRK29SerializationCommandArgumentsR31RuntimeSerializationCommandInfo
lye:_InternalEnumerator_1_System_Collections_IEnumerator_get_Current_m2889979481_AdjustorThunk
WLj:_posix_memalign
Owg:_Rect_get_position_m2115952571
Weh:_ReadOnlyCollection_1_get_Item_m4005849861_gshared
B2e:_Slider_get_direction_m3871593184
p8e:_ASN1_GetBytes_m3305539297
pCh:_List_1_Remove_m2092116835_gshared
w8h:__ZL86Logger_t274032455_CustomAttributesCacheGenerator_Logger_LogFormat_m3030796110____args2P21CustomAttributesCache
UXh:__ZL77Convert_t2465617642_CustomAttributesCacheGenerator_Convert_ToSByte_m717245755P21CustomAttributesCache
OHe:_DefaultComparer__ctor_m2039558311_gshared
o_:__ZNK15MonoScriptCache7ReleaseEv
k_i:__ZN6il2cpp2vm5Class13HasReferencesEP11Il2CppClass
bwd:_CLSCompliantAttribute__ctor_m581760440
eg:_glBindTexture
kKj:_snprintf
TKd:_InvalidCastException__ctor_m2551002860
RVg:__Z50RuntimeInvoker_RuntimeObject_Resources_t1597885468PFvvEPK10MethodInfoPvPS4_
pUj:_emscripten_glVertexAttrib1fv__wrapper
K$g:__Z76RuntimeInvoker_Void_t1185182177_Int32_t2950945753_KeyValuePair_2_t2401056908PFvvEPK10MethodInfoPvPS4_
Bib:__Z36scripting_liveness_calculation_begin17ScriptingClassPtriPFvPP12Il2CppObjectiPvES3_PFvvES7_
mNi:_AudioExtensionManager_RemoveExtensionFromManager_m442924172
OSj:_emscripten_glGetProgramInfoLog__wrapper
YD:__ZN25AnimatedPropertyEvaluator29BindCurveToScriptingObjectPtrERKN13AnimationClip10FloatCurveEj18ScriptingObjectPtrb
dVh:__ZL80AllowPartiallyTrustedCallersAttribute_t1828959166_CustomAttributesCacheGeneratorP21CustomAttributesCache
kFh:_Collection_1_SetItem_m1090516645_gshared
Xfi:__ZL52InputMode_t3382566315_CustomAttributesCacheGeneratorP21CustomAttributesCache
l0:__ZN17PersistentManager23DestroyFromFileInternalEi
Zog:_Display__ctor_m501911701
odh:_ReadOnlyCollection_1_System_Collections_Generic_IListU3CTU3E_Insert_m1020890112_gshared
kbd:_Dropdown_get_onValueChanged_m2462066659
yad:_DefaultControls_SetDefaultTextValues_m1943359795
jQb:__Z19SetupMotionMatricesR6CameraR18RPDataMotionVector
UXi:__ZL7log2_64y
TC:__ZN26AnimatorControllerPlayable18PrepareForPlaybackERN7mecanim6memory9AllocatorE
pD:__ZN8Animator11AnimatorJob11AddPlayableEP17AnimationPlayablef
ved:_GridLayoutGroup_get_cellSize_m2967185053
Bxf:_CurrentSystemTimeZone_GetUtcOffset_m340358963
owi:_PKCS12_Decrypt_m1280162536
pYi:_CustomEventData_AddChar_m2745147926
uye:_InternalEnumerator_1_get_Current_m3081223448_gshared
HFi:_Event_get_isMouse_m1058251071
KWa:__ZN10VertexDataC2ERKS_17ShaderChannelMask10MemLabelId
Tyd:_CaseInsensitiveHashCodeProvider_AreEqual_m1790260777
LFh:_Collection_1_IndexOf_m3762683187_gshared
BCc:_otv_JSTF_validate
O4:__ZN22CreateGpuProgramOutputC2Ev
U9d:_BigInteger_op_LessThanOrEqual_m3925173639
iqg:_PersistentCallGroup_Initialize_m4253175514
Hsd:_Boolean_System_IConvertible_ToChar_m4279513009_AdjustorThunk
Szd:_Hashtable__ctor_m1763145853
Xpe:_LogicalCallContext__ctor_m1263247987
RHd:_NumberFormatter_ScaleOrder_m3813786990
ash:_List_1_GetEnumerator_m239622569_gshared
Vgi:__ZL60OptionData_t3270282352_CustomAttributesCacheGenerator_m_TextP21CustomAttributesCache
WVg:__Z43RuntimeInvoker_VerticalWrapMode_t2936607737PFvvEPK10MethodInfoPvPS4_
waf:_PrivateKeyInfo_DecodeDSA_m771724585
$cj:__ZNK15dense_hashtableINSt3__24pairIK10KeyWrapperINS1_IPK10MethodInfoP11Il2CppClassEEEjEES9_17ReflectionMapHashIS8_EN14dense_hash_mapIS9_jSD_NS9_14EqualsComparerINS0_8equal_toIS8_EEEENS0_9allocatorISB_EEE9SelectKeyESI_SK_E23find_position_with_hashERSA_j
UUc:__Z38CustomEventData_CUSTOM_InternalDestroyP12Il2CppObject
_di:__ZL53EventHandle_t600343995_CustomAttributesCacheGeneratorP21CustomAttributesCache
V6b:__ZN8GUILayer12CleanupClassEv
Zxd:_SynchronizedArrayListWrapper_get_SyncRoot_m3862302789
puh:_List_1_System_Collections_IEnumerable_GetEnumerator_m839737540_gshared
W3f:_UInt32_System_IConvertible_ToSByte_m1061556466
Mme:_WellKnownClientTypeEntry__ctor_m2471908952
j_i:__ZN6il2cpp2vm5Class4InitEP11Il2CppClass
ga:invoke_vidi
C$a:__ZN8Material17MainThreadCleanupEv
Qke:_RemotingServices_CreateClientProxyForContextBound_m783705199
XWg:__Z30RuntimeInvoker_Axis_t809944411PFvvEPK10MethodInfoPvPS4_
jbc:__ZNK15GUIEventManager15GetEventAtIndexEi
Wti:_InternalAsyncResult_get_ProceedAfterHandshake_m2508379800
BQc:__ZN2UI14CanvasRenderer17SyncDirtyElementsER8JobFence
iBb:__Z18Transfer_BlittableI18StreamedBinaryReadILb0EELb0ExEvRK29SerializationCommandArgumentsR31RuntimeSerializationCommandInfo
lvd:_Convert_ToUInt16_m2952781888
NKe:_Enumerator_System_Collections_IEnumerator_get_Current_m3816090481_gshared
mzj:__ZN6il2cpp5utils11StringUtils15StringDuplicateEPKc
Mcg:_DefaultComparer_Equals_m2480133610_gshared
d4:__ZNK9ShaderLab21ShaderRasterStateDesc16ToGfxRasterStateEPK19ShaderPropertySheetS3_R14GfxRasterState
gqi:_Array_Sort_TisVector3_t3722313464_m1915176437_gshared
rIj:__ZN6il2cpp2os9EventImplC2Ebb
J2g:__Z36RuntimeInvoker_Enumerator_t572278398PFvvEPK10MethodInfoPvPS4_
fr:__ZN4PPtrI13MonoBehaviourE8TransferI19StreamedBinaryWriteILb0EEEEvRT_
Uxh:_List_1_get_Item_m2113769949_gshared
hUa:__ZN12FlareManager12RemoveCameraER6Camera
qzg:_ScriptableObject_t2528358522_marshal_pinvoke
c5:__Z20IsMatrixBuiltinParamPKcPi
Nfj:__ZN6il2cpp2gc19AppendOnlyGCHashMapINSt3__24pairIPK10MethodInfoP11Il2CppClassEEP11Il2CppArray17ReflectionMapHashIS9_ENS2_8equal_toIS9_EEEC2Ev
lzb:__ZN18StreamedBinaryReadILb1EE5AlignEv
ysf:_SecurityFrame_t1422462475_marshal_pinvoke
gdj:__ZN15dense_hashtableINSt3__24pairIK10KeyWrapperINS1_IPK10MethodInfoP11Il2CppClassEEEjEES9_17ReflectionMapHashIS8_EN14dense_hash_mapIS9_jSD_NS9_14EqualsComparerINS0_8equal_toIS8_EEEENS0_9allocatorISB_EEE9SelectKeyESI_SK_E16reset_thresholdsEv
bYf:_UnicodeEncoding_GetBytesInternal_m1902824297
I5b:__ZN8Renderer19PostInitializeClassEv
gQf:_Array_FindIndex_TisRuntimeObject_m2504082708_gshared
fyi:_X509Chain_FindCertificateRoot_m1937726457
$ze:_InternalEnumerator_1__ctor_m217498388_AdjustorThunk
GEj:__ZN6il2cpp6icalls8mscorlib6System8Delegate23CreateDelegate_internalEP20Il2CppReflectionTypeP12Il2CppObjectP22Il2CppReflectionMethodb
OLe:_Enumerator_System_Collections_IEnumerator_get_Current_m921113401_AdjustorThunk
dWb:__ZNK13RendererScene22GetStaticBoundingBoxesEv
mEb:__ZN18DelayedCallManager18CancelCallDelayed2E4PPtrI6ObjectEPF15CallObjectStatePS1_PvES7_
Zsg:_Matrix4x4_GetHashCode_m4034747639
NKa:__ZN25ThreadsafeLinearAllocator10ReallocateEPvji
nob:__Z18Transfer_BlittableI14SafeBinaryReadLb1E11QuaternionfEvRK29SerializationCommandArgumentsR31RuntimeSerializationCommandInfo
Lga:__ZN18SpriteAtlasManagerD0Ev
Mgg:_GenericEqualityComparer_1__ctor_m1058369027_gshared
HLi:_ToggleGroup_set_allowSwitchOff_m4192200290
gZg:__Z57RuntimeInvoker_Boolean_t97287965_KeyValuePair_2_t71524366PFvvEPK10MethodInfoPvPS4_
gab:__ZN10Matrix4x4f8TransferI14SafeBinaryReadEEvRT_
mej:__ZNK10KeyWrapperINSt3__24pairIPK12PropertyInfoP11Il2CppClassEEE14EqualsComparerINS0_8equal_toIS7_EEEclERKS8_SE_
Nid:_CryptographicUnexpectedOperationException__ctor_m2381988196
qgj:__ZN14dense_hash_mapI10KeyWrapperIPK22Il2CppGenericParameterEPK24MonoGenericParameterInfoN6il2cpp5utils11PointerHashIS2_EENS4_14EqualsComparerINSt3__28equal_toIS3_EEEENSD_9allocatorINSD_4pairIKS4_S7_EEEEE15set_deleted_keyERSJ_
NC:__ZN14AvatarPlayback8StopTimeEv
ZAe:_InternalEnumerator_1_System_Collections_IEnumerator_get_Current_m4213507601_gshared
oba:__Z6AppendRKN4core12basic_stringIcNS_20StringStorageDefaultIcEEEEPKc
A2g:__Z74RuntimeInvoker_DictionaryEntry_t3123975638_RuntimeObject_SByte_t1669577662PFvvEPK10MethodInfoPvPS4_
Aib:__ZL14OnWorldStoppedv
QOf:_Array_InternalArray__IEnumerable_GetEnumerator_TisCustomAttributeNamedArgument_t287865710_m523021714_gshared
_ah:__ZN21InterfaceFuncInvoker1I19Vector4_t3319028937iE6InvokeEjP11Il2CppClassP12Il2CppObjecti
Zxb:__Z18Transfer_BlittableI18StreamedBinaryReadILb1EELb0E8Vector3fEvRK29SerializationCommandArgumentsR31RuntimeSerializationCommandInfo
MAd:_HashKeys_get_SyncRoot_m3757723936
THi:_GUIUtility_RemoveCapture_m1294193818
lua:__ZN7ApiGLES18ClearBufferSubDataEjN2gl12BufferTargetEll
pfc:__Z37Camera_Get_Custom_PropAllCamerasCountv
D8a:__ZN14Texture2DArray8TransferI18StreamedBinaryReadILb0EEEEvRT_
jBh:_List_1_CopyTo_m2746988508_gshared
kUb:__Z18ApplyOcclusionMaskR19ProbeOcclusionCacheRK17LightProbeContextRK10RenderNodeb
vJc:_Split_Cubic
db:invoke_fiiii
WVe:_InputField_OnSubmit_m3583210804
d$h:__ZL64CipherSuiteCollection_t1129639304_CustomAttributesCacheGeneratorP21CustomAttributesCache
Zbi:__ZL72GUISkin_t1244372282_CustomAttributesCacheGenerator_m_horizontalScrollbarP21CustomAttributesCache
qEi:_Uri_CheckHostName_m2213216182
mUj:_emscripten_glBindRenderbuffer__wrapper
Xri:_Mesh_SetUvsImpl_TisVector2_t2156229523_m3009194955_gshared
M5f:_ValueType_InternalEquals_m1384040357
iqi:_Array_Sort_TisVector4_t3319028937_TisVector4_t3319028937_m4254533673_gshared
kFe:_InternalEnumerator_1_System_Collections_IEnumerator_Reset_m729791527_AdjustorThunk
cxd:_ArrayListWrapper_Contains_m2641184447
hJc:_ft_black_render
jMg:__Z177RuntimeInvoker_Int32_t2950945753_RuntimeObject_Int32_t2950945753_Int32_t2950945753_RuntimeObject_Int32_t2950945753_EncoderFallbackBufferU26_t2343550713_CharU5BU5DU26_t3299466565PFvvEPK10MethodInfoPvPS4_
hQj:dynCall_viiifi
VCa:__ZN18GfxFramebufferGLES20ActiveContextChangedEPP17RenderSurfaceBaseS2_
mwd:_ArrayList_get_IsFixedSize_m24366329
MCa:__Z19PluginsRenderMarkeri
lHe:_InternalEnumerator_1__ctor_m2307827786_AdjustorThunk
FE:__ZN10HumanTrait18InitializeBoneNameEv
Via:__ZNSt3__26vectorIN9ShaderLab20SerializedSubProgram15StructParameterENS_9allocatorIS3_EEE6assignINS_11__wrap_iterIPS3_EEEENS_9enable_ifIXaasr21__is_forward_iteratorIT_EE5valuesr16is_constructibleIS3_NS_15iterator_traitsISC_E9referenceEEE5valueEvE4typeESC_SC_
h8a:__ZN14Texture2DArray21AwakeFromLoadThreadedEv
iCb:__Z29Transfer_Blittable_ArrayFieldI18StreamedBinaryReadILb0EEyEvRT_R9ArrayInfoRK23StaticTransferFieldInfo
HAg:_Touch_get_position_m3109777936_AdjustorThunk
Hrj:__ZNSt3__214__split_bufferIN6il2cpp2vm5Image20EmbeddedResourceDataERNS_9allocatorIS4_EEEC2EjjS7_
P7c:_CanvasScaler_set_screenMatchMode_m2975492035
gH:__ZN12AudioManager17RemoveAudioSourceEP11AudioSource
pif:_X509Certificate2Collection_Add_m3151757943
HKh:__ZL83RuntimeArray_CustomAttributesCacheGenerator_RuntimeArray____LongLength_PropertyInfoP21CustomAttributesCache
oJe:_Comparer_1__cctor_m951016718_gshared
Xyd:_CaseInsensitiveHashCodeProvider_get_DefaultInvariant_m4264275163
rZh:__ZL67IndexOutOfRangeException_t1578797820_CustomAttributesCacheGeneratorP21CustomAttributesCache
BMg:__Z195RuntimeInvoker_Int32_t2950945753_RuntimeObject_Int32_t2950945753_Int32_t2950945753_Int32_t2950945753_RuntimeObject_DecoderFallbackBufferU26_t3866396827_ByteU5BU5DU26_t4057885439_SByte_t1669577662PFvvEPK10MethodInfoPvPS4_
PQ:__ZN5physx14PxLightCpuTask12addReferenceEv
sWa:__ZNK15InstancingProps35FillInstanceBufferDispatchConstantsIN10Instancing14RenderLoopArgsEEEvPPvjjRK19ShaderPropertySheetRKT_
SZg:__Z86RuntimeInvoker_Int32_t2950945753_Color32_t2600501292_Color32_t2600501292_RuntimeObjectPFvvEPK10MethodInfoPvPS4_
f5a:__ZN21EnlightenSceneMapping8TransferI19StreamedBinaryWriteILb0EEEEvRT_
utj:__ZN6il2cpp2gc16GarbageCollector19InitializeFinalizerEv
Oy:__ZN7mecanim8skeleton18CreateSkeletonMaskEjPKNS0_19SkeletonMaskElementERNS_6memory9AllocatorE
vih:_ReadOnlyCollection_1_System_Collections_Generic_ICollectionU3CTU3E_get_IsReadOnly_m2508509261_gshared
Cmc:__ZN10GUIManager10DoGUIEventER10InputEventb
fub:__Z35Transfer_Blittable_FixedBufferFieldI24GenerateTypeTreeTransferxEvRK29SerializationCommandArgumentsR31RuntimeSerializationCommandInfo
pDc:_otv_LangSys_validate
Rxg:_RectOffset_get_right_m2294081512
sVf:_Array_InternalArray__set_Item_TisLink_t544317964_m1234244240_gshared
_Hc:_UNITY_TT_Init_Glyph_Loading
kPb:__Z20CalculateSqrDistanceRK8Vector3fRK4AABB
qbd:_OptionData_get_text_m2997376818
OMe:_Enumerator__ctor_m324536319_gshared
KNe:_KeyCollection_get_Count_m1441964482_gshared
sgd:_SerializationInfo_GetBoolean_m1756153320
FL:__Z32AudioMixerDuckingProcessCallbackP21UnityAudioEffectStatePfS1_jii
U$e:_U3CClickRepeatU3Ec__Iterator0_System_Collections_IEnumerator_get_Current_m543328413
Ctg:_Mesh_get_uv2_m3615020997
edh:_ReadOnlyCollection_1_Contains_m2979956790_gshared
M4b:__ZN26CustomRenderTextureManagerD2Ev
rhc:__Z32Input_Get_Custom_PropInputStringv
Mdg:_EqualityComparer_1_System_Collections_IEqualityComparer_Equals_m4172006498_gshared
_H:__ZN12AudioManager8TransferI24GenerateTypeTreeTransferEEvRT_
woi:_Array_qsort_TisOrderBlock_t1585977831_m3322202512_gshared
Lsg:_Mathf_Round_m4098141538
pxa:__Z25GetBytesFromTextureFormat13TextureFormat
Z8a:__ZN9Texture3D19UnloadFromGfxDeviceEb
Xmj:__ZN6il2cpp6icalls8mscorlib6System9Threading6Thread20Thread_free_internalEP12Il2CppThreadi
hOj:dynCall_iiffi
osb:__Z18Transfer_BlittableI17RemapPPtrTransferLb0EsEvRK29SerializationCommandArgumentsR31RuntimeSerializationCommandInfo
BGh:_Collection_1_get_Item_m4103760396_gshared
idf:__KeysEnumerator_get_Current_m2996478063
QVd:_AmbiguousMatchException__ctor_m2012725345
RD:__ZN16MecanimAnimation25RegisterIAnimationBindingEPKN5Unity4TypeEiP17IAnimationBinding
b0:__Z32scripting_class_get_assemblyname17ScriptingClassPtr
lWc:__ZN11UnityEngine15PlatformWrapper15GetVRDeviceNameEv
Kli:__ZL109LayoutUtility_t2745813735_CustomAttributesCacheGenerator_LayoutUtility_U3CGetFlexibleWidthU3Em__3_m1091238571P21CustomAttributesCache
DVg:__Z99RuntimeInvoker_Boolean_t97287965_Int32_t2950945753_PointerEventDataU26_t867828220_SByte_t1669577662PFvvEPK10MethodInfoPvPS4_
Fze:_InternalEnumerator_1_get_Current_m2128158355_AdjustorThunk
PIa:__ZN9GfxDevice21RegisterNativeTextureE9TextureIDi16TextureDimension
gdd:_GraphicRegistry__ctor_m1851575309
w$g:__Z52RuntimeInvoker_Void_t1185182177_Keyframe_t4206410242PFvvEPK10MethodInfoPvPS4_
p_h:__ZL53TypeFilter_t2356120900_CustomAttributesCacheGeneratorP21CustomAttributesCache
WFj:__ZN6il2cpp6icalls8mscorlib6System10Reflection4Emit11TypeBuilder20create_generic_classEP27Il2CppReflectionTypeBuilder
fof:_SHA1Internal_FillBuff_m3615718415
TNf:_PlayableHandle_IsPlayableOfType_TisAnimationLayerMixerPlayable_t3631223897_m201603007_gshared
qWh:__ZL50Monitor_t2197244473_CustomAttributesCacheGeneratorP21CustomAttributesCache
d7i:__ZNSt3__26vectorIPK10MethodInfoNS_9allocatorIS3_EEE26__swap_out_circular_bufferERNS_14__split_bufferIS3_RS5_EE
fae:_PrimalityTest_EndInvoke_m1035389364
sQ:__Z60Register_UnityEngine_AudioListener_GetNumExtensionPropertiesv
Zi:_emscripten_glUniformMatrix4fv
fkj:__ZN15dense_hashtableINSt3__24pairIK10KeyWrapperINS1_IP11Il2CppClassjEEES4_EES6_N6il2cpp8metadata14ArrayClassHashEN14dense_hash_mapIS6_S4_SB_NS6_14EqualsComparerINSA_17ArrayClassCompareEEENS0_9allocatorIS8_EEE9SelectKeyESF_SH_E13set_empty_keyERKS8_
gjb:__ZN12ScriptMapperD2Ev
oRe:_Enumerator_Dispose_m3040896940_AdjustorThunk
ZXj:b100
Ftg:_Mesh_get_colors32_m1253190811
XBj:_GC_stopped_mark
Hvj:__ZN6il2cpp2os6Thread3RunEPFvPvES2_
clg:_AnimationCurve_Finalize_m2397002729
_3e:_Text_OnEnable_m616205807
c4g:__Z50RuntimeInvoker_RuntimeObject_ColorTween_t809614380PFvvEPK10MethodInfoPvPS4_
TGe:_InternalEnumerator_1__ctor_m945079686_AdjustorThunk
dve:_SerializationCallbacks__cctor_m1674315180
dFg:__Z194RuntimeInvoker_Void_t1185182177_ByteU2AU26_t57153304_ByteU2AU26_t57153304_DoubleU2AU26_t3650786047_UInt16U2AU26_t531067350_UInt16U2AU26_t531067350_UInt16U2AU26_t531067350_UInt16U2AU26_t531067350PFvvEPK10MethodInfoPvPS4_
Zja:__Z32TransferEnumWithNameForceIntSizeI14SafeBinaryRead7FogModeEvRT_RT0_PKc17TransferMetaFlags
Fjc:__Z52Register_UnityEngine_RenderTexture_Internal_GetWidthv
RCj:_GC_check_leaked
Vla:__ZN9ShaderLab20SerializedSubProgram16TextureParameter8TransferI19StreamedBinaryWriteILb0EEEEvRT_
qKa:__ZNK7Hash12812PackToUInt32Ev
dyd:_SynchronizedArrayListWrapper_IndexOf_m3642674350
Q1:__ZNSt3__227__insertion_sort_incompleteIRNS_6__lessI14ObjectLoadDataS2_EEPS2_EEbT0_S6_T_
lV:__ZN11UnityEngine15CloudWebService16SessionContainer8AddEventEPNS0_14CloudEventInfoE
EHa:__Z4TrimRKN4core12basic_stringIcNS_20StringStorageDefaultIcEEEES5_
Yfh:_ReadOnlyCollection_1_CopyTo_m209634623_gshared
lri:_Dictionary_2_Do_ICollectionCopyTo_TisKeyValuePair_2_t3842366416_m1399105608_gshared
kei:__ZL77ExecuteEvents_t3484638744_CustomAttributesCacheGenerator_U3CU3Ef__mgU24cache2P21CustomAttributesCache
Bhf:_X509Certificate2_Import_m4026562329
aNe:_Enumerator_System_Collections_IEnumerator_get_Current_m2763095718_AdjustorThunk
sWj:_glGetStringi__wrapper
b7a:__ZN10VertexData8TransferI14SafeBinaryReadEEvRT_
oJ:__ZN4FMOD8ChannelI8setDelayE14FMOD_DELAYTYPEjj
LDj:_GC_malloc_atomic
I8d:_ActivatedClientTypeEntry_ToString_m2494181680
Lhg:_HashSet_1_GetEnumerator_m3346268098_gshared
tGj:__ZN6il2cpp5utils6Memory13AlignedMallocEjj
Vvg:_PropertyName_GetHashCode_m3570549176_AdjustorThunk
U6h:__ZL55PropertyName_t3749835189_CustomAttributesCacheGeneratorP21CustomAttributesCache
aWe:_Selectable_get_animator_m2899312855
eZ:__ZL20SortItemByInstanceIDRKN18AwakeFromLoadQueue4ItemES2_
pCg:_Vector2_op_Multiply_m2347887432
wcd:_FontData_get_maxSize_m195374730
Adf:_TypeConverterAttribute__ctor_m1774069684
Zy:__ZNK34AnimationStateMachineMixerPlayable26GetInterruptedPosePlayableEv
cZc:__ZN20UnityConnectSettings8TransferI24GenerateTypeTreeTransferEEvRT_
_A:__ZN34BlobWriteTransferSTLStyleArrayImplI22OffsetPtrArrayTransferIbEEclERS1_17TransferMetaFlagsR9BlobWrite
vnd:_Byte_ToString_m4063101981
mTd:_MonoType_GetConstructors_m2574682189
jyj:__ZNK15dense_hashtableINSt3__24pairIK10KeyWrapperIPK19Il2CppGenericMethodEP10MethodInfoEES6_N6il2cpp8metadata23Il2CppGenericMethodHashEN14dense_hash_mapIS6_S9_SD_NS6_14EqualsComparerINSC_26Il2CppGenericMethodCompareEEENS0_9allocatorISA_EEE9SelectKeyESH_SJ_E10test_emptyERK30dense_hashtable_const_iteratorISA_S6_SD_SL_SH_SJ_E
HRh:__ZL59SinkProviderData_t4151372974_CustomAttributesCacheGeneratorP21CustomAttributesCache
kef:_ServicePointManager_FindServicePoint_m4119451290
WHe:__ZN21InterfaceFuncInvoker1Ii22OrderBlock_t1585977831E6InvokeEjP11Il2CppClassP12Il2CppObjectS0_
Uca:__ZL31InitializeRendererUpdateManagerPv
rYd:_ParameterInfo__ctor_m2779026345
WTe:_InputField_set_onValueChange_m1251390545
Gcd:_FontData_get_verticalOverflow_m4132840071
mRc:__ZN2UI13CanvasManager14GetRenderOrderEPKNS_6CanvasE
GUd:_NumberFormatter_get_IsZeroInteger_m2263284741
xP:__ZN13AudioListener12CleanupClassEv
nda:__Z13GetIEnlightenv
Ezg:_HitInfo_t3229609740_marshal_pinvoke
Bui:_X509Certificate_PEM_m2020851166
Q7e:_BigInteger_op_GreaterThanOrEqual_m700865613
qUf:_Array_InternalArray__Insert_TisDateTime_t3738529785_m2308632330_gshared
cnf:_RNGCryptoServiceProvider_RngGetBytes_m1695806698
uhe:_TlsServerCertificateRequest_ProcessAsTls1_m3214041063
LDc:_compare_uni_maps
MTg:__Z72RuntimeInvoker_Boolean_t97287965_Vector2_t2156229523_Vector2_t2156229523PFvvEPK10MethodInfoPvPS4_
YWc:__ZN11UnityEngine15PlatformWrapper27GetGraphicsCapsSupportFlagsEv
GOc:__ZNSt3__218__insertion_sort_3IRPFbPN2UI6CanvasES3_EPS3_EEvT0_S8_T_
mri:_Dictionary_2_Do_ICollectionCopyTo_TisRuntimeObject_m3695543300_gshared
Ixb:__ZN12NativeBufferI16Converter_StringE15SetupForWritingER9ArrayInfo
cga:__ZN13RuntimeStaticI18AssetBundleManagerLb1EE16StaticInitializeEPv
QRj:___cxa_end_catch__wrapper
jRg:__Z121RuntimeInvoker_Int32_t2950945753_RuntimeObject_Int32U26_t1369213839_Int32_t2950945753_Int32_t2950945753_Int32_t2950945753PFvvEPK10MethodInfoPvPS4_
Tvd:_Char_ToString_m278452217
pde:_CipherSuite_get_DecryptionCipher_m2839827488
rEg:__Z32RuntimeInvoker_Boolean_t97287965PFvvEPK10MethodInfoPvPS4_
XQb:__ZNK4PPtrI5LightEcvPS0_Ev
P9d:_BigInteger_op_RightShift_m460065452
XEb:__ZN13MonoBehaviour22DoScriptRebuildWarningEv
rfc:__Z38Camera_CUSTOM_INTERNAL_CALL_RaycastTryP12Il2CppObjectRK3Rayfi
OSi:_ListPool_1_U3Cs_ListPoolU3Em__0_m2790550420_gshared
INc:__Z38TextGenerator_Get_Custom_PropLineCountP12Il2CppObject
hui:_InternalAsyncResult_SetComplete_m963842420
wWf:_Encoding_GetEncoding_m2801244948
Enc:__ZN11IMGUIModule25GetGUIStyleScriptingClassEv
nGc:_tt_get_interface
kke:_SslStreamBase_EndRead_m495357226
Imj:__ZN6il2cpp5utils9PathUtils7CombineIcEENSt3__212basic_stringIT_NS3_11char_traitsIS5_EENS3_9allocatorIS5_EEEERKSA_SC_
mtc:__ZN9JSONWrite8TransferI13dynamic_arrayIiLj4EEEEvRT_PKc17TransferMetaFlags
o7g:_Collection_1_System_Collections_IList_get_IsFixedSize_m214626114_gshared
UOg:__Z64RuntimeInvoker_RuntimeObject_SByte_t1669577662_SByte_t1669577662PFvvEPK10MethodInfoPvPS4_
cH:__ZL16FMOD_ErrorString11FMOD_RESULT_363
V8b:__ZN13PlayableGraph21InvalidateMultithreadEv
Ijg:_Enumerator_System_Collections_IEnumerator_get_Current_m713684915_AdjustorThunk
kgg:_GenericComparer_1_Compare_m459680062_gshared
WZd:_EnumBuilder_GetConstructorImpl_m3068576149
O_:__Z18ConvertUTF16toUTF8PPKtS0_PPhS2_15ConversionFlags
Exj:__ZN6il2cpp2os20PathErrnoToErrorCodeERKNSt3__212basic_stringIcNS1_11char_traitsIcEENS1_9allocatorIcEEEEi
Yhi:__ZL68InputField_t3762917431_CustomAttributesCacheGenerator_m_KeyboardTypeP21CustomAttributesCache
jpf:_SymmetricAlgorithm_System_IDisposable_Dispose_m3402297829
Ybc:__Z24GetActualTargetFrameRatev
HXi:__ZL16my_g_bit_nth_msfj
JZh:__ZL65NonSerializedAttribute_t2945079482_CustomAttributesCacheGeneratorP21CustomAttributesCache
ukj:__ZN15dense_hashtableINSt3__24pairIK10KeyWrapperIP11Il2CppClassES4_EES5_N6il2cpp8metadata16SZArrayClassHashEN14dense_hash_mapIS5_S4_SA_NS5_14EqualsComparerINS9_19SZArrayClassCompareEEENS0_9allocatorIS7_EEE9SelectKeyESE_SG_E12expand_arrayEjN21dense_hash_map_traits17integral_constantIbLb0EEE
Rbg:_DefaultComparer_GetHashCode_m3369508712_gshared
GDh:_Enumerator_MoveNext_m3662315381_AdjustorThunk
che:_TlsClientFinished_ProcessAsTls1_m2429863130
F8d:_ActivatedClientTypeEntry_get_ApplicationUrl_m2894992111
wNb:__Z23SetupStereoFlareElementP11FlareVertexRK8Vector2fS3_S3_RK11ColorRGBA32RK10Matrix4x4fRK8Vector3fb
x_i:__ZN6il2cpp2vm5Class15GetInstanceSizeEPK11Il2CppClass
L5f:_ValueType__ctor_m2036258423
sa:invoke_iiiifiiii
aUe:_InputField_EnforceContentType_m2436948794
C7g:__ZN23InterfaceActionInvoker2Ii20UICharInfo_t75501106E6InvokeEjP11Il2CppClassP12Il2CppObjectiS0_
F3h:__ZL82Input_t1431474628_CustomAttributesCacheGenerator_Input_get_inputString_m1307069105P21CustomAttributesCache
Kvf:_String_Join_m2050845953
aPe:_ShimEnumerator_MoveNext_m2406150314_gshared
ODa:__ZL19BlitFramebufferImplRN4gles23BlitFramebufferDrawQuadER9GfxDevice9TextureIDRK8Vector4f
Srb:__Z18Transfer_BlittableI17RemapPPtrTransferLb0EhEvRK29SerializationCommandArgumentsR31RuntimeSerializationCommandInfo
jcj:__ZN15dense_hashtableINSt3__24pairIK10KeyWrapperIPK10Il2CppTypeEjEES6_N6il2cpp8metadata14Il2CppTypeHashEN14dense_hash_mapIS6_jSB_NS6_14EqualsComparerINSA_26Il2CppTypeEqualityComparerEEENS0_9allocatorIS8_EEE9SelectKeyESF_SH_E4findERS7_
TOj:dynCall_viiiiiiiiiiiiii
EHc:_UNITY_FT_List_Add
k5b:__ZN14Texture2DArray11InitTextureEiii13TextureFormatb
Avi:_X509Extension__ctor_m1474351312
KVh:__ZL104Encoding_t1523322056_CustomAttributesCacheGenerator_Encoding_t1523322056____DecoderFallback_PropertyInfoP21CustomAttributesCache
snh:_InvokableCall_1_Invoke_m1524307439_gshared
G1a:__ZN12CubemapArray21AwakeFromLoadThreadedEv
CLd:_Directory_CreateDirectoriesInternal_m3735342319
igi:__ZL108U3CStartU3Ec__Iterator0_t1249263001_CustomAttributesCacheGenerator_U3CStartU3Ec__Iterator0__ctor_m1316384627P21CustomAttributesCache
hsh:_List_1_RemoveAll_m517055598_gshared
kYe:_LayoutUtility_GetLayoutProperty_m3731360667
fhj:__ZN15dense_hashtableINSt3__24pairIK10KeyWrapperINS1_IPK11Il2CppImageP11Il2CppClassEEEjEES9_17ReflectionMapHashIS8_EN14dense_hash_mapIS9_jSD_NS9_14EqualsComparerINS0_8equal_toIS8_EEEENS0_9allocatorISB_EEE9SelectKeyESI_SK_E14squash_deletedEv
hpf:_SHAConstants__cctor_m1699027474
U3d:_MonoEventInfo_t346866618_marshal_pinvoke_back
gY:__ZNK6Camera26GetStereoSingleCullEnabledEv
nsh:_List_1_TrimExcess_m4121641494_gshared
JXh:__ZL78Convert_t2465617642_CustomAttributesCacheGenerator_Convert_ToInt16_m1733792763P21CustomAttributesCache
_fb:__Z14resize_trimmedINSt3__26vectorIN4core12basic_stringIcNS2_20StringStorageDefaultIcEEEE13stl_allocatorIS6_L18MemLabelIdentifier13ELi16EEEEEvRT_j
Xob:__Z18Transfer_BlittableI14SafeBinaryReadLb0EaEvRK29SerializationCommandArgumentsR31RuntimeSerializationCommandInfo
Xvd:_CharEnumerator_System_Collections_IEnumerator_get_Current_m1328529384
aRj:_emscripten_glFrustum__wrapper
SWi:_AnimationLayerMixerPlayable__ctor_m860721801
AEg:__Z98RuntimeInvoker_Boolean_t97287965_RuntimeObject_Int32_t2950945753_RuntimeObject_Int64U26_t200113976PFvvEPK10MethodInfoPvPS4_
iIc:_UNITY_FT_List_Iterate
yVa:__ZN17GlobalGameManager8TransferI24GenerateTypeTreeTransferEEvRT_
qvd:_Char_System_IConvertible_ToUInt64_m3536560782
bdg:_EqualityComparer_1__cctor_m3452395357_gshared
Jjf:_X509ChainStatus_get_Status_m2572005749_AdjustorThunk
bMb:__Z20SyncFenceCullResultsR11CullResults
qGa:__ZN15TextureTFMethod20IsBoneCountSupportedEi
MFf:_Double_ToString_m3828879243_AdjustorThunk
qtb:__Z22TransferField_NonArrayI17RemapPPtrTransfer27Converter_SimpleNativeClassI8GUIStyleEEvRK23StaticTransferFieldInfoR31RuntimeSerializationCommandInfoRT0_
LQd:_TextReader_Synchronized_m3004980758
Z0b:__ZNK17AnimationCurveTplIfE20EvaluateWithoutCacheEfRf
FTg:__Z67RuntimeInvoker_Boolean_t97287965_Rect_t2360479859_SByte_t1669577662PFvvEPK10MethodInfoPvPS4_
sYa:__ZN19ShaderPropertySheet10SetTextureERK23FastTexturePropertyNameP7Texture
pXd:_CustomAttributeData__ctor_m2966233049
p8c:_CanvasUpdateRegistry_PerformUpdate_m1793997159
sge:_Context_set_ClientWriteIV_m3405909624
Mac:__ZN4Mesh10SetNormalsEPK8Vector3fj
PIi:_AesManaged_CreateDecryptor_m692040246
dzj:__ZNSt3__212basic_stringIDsNS_11char_traitsIDsEENS_9allocatorIDsEEE9__grow_byEjjjjjj
BTi:_TextGenerationSettings_t1351628751_marshal_pinvoke_back
ts:__ZN17AnimationCurveTplIfE8TransferI14SafeBinaryReadEEvRT_
H7f:_Dictionary_2_get_Count_m2449135560_gshared
yVf:_Array_InternalArray__set_Item_TisInt16_t2552820387_m2544074754_gshared
Kpd:_ArithmeticException__ctor_m3551809662
bMd:_MonoIO_ExistsDirectory_m2182482658
YCh:__ZN21InterfaceFuncInvoker0I19Vector4_t3319028937E6InvokeEjP11Il2CppClassP12Il2CppObject
$0g:__Z72RuntimeInvoker_CustomAttributeNamedArgument_t287865710_Int32_t2950945753PFvvEPK10MethodInfoPvPS4_
H_b:__Z29StdTemplateConversionFunctionIybEbPvR14SafeBinaryRead
C5a:__ZNSt3__26vectorIN15QualitySettings14QualitySettingENS_9allocatorIS2_EEE6assignIPS2_EENS_9enable_ifIXaasr21__is_forward_iteratorIT_EE5valuesr16is_constructibleIS2_NS_15iterator_traitsIS9_E9referenceEEE5valueEvE4typeES9_S9_
H2:__ZNK5Unity9Component10GetEnabledEv
l0e:_ScrollRect_get_scrollSensitivity_m2832710591
f:HEAPU32
fsh:_List_1_CheckCollection_m1671972112_gshared
Eij:_il2cpp_class_get_image
FMe:_Enumerator_System_Collections_IEnumerator_get_Current_m1747693366_gshared
nYf:_UnicodeEncoding_GetPreamble_m3002287178
t1:__Z16AsyncReadRequestP16AsyncReadCommand
LZi:__ZNK15dense_hashtableINSt3__24pairIK10KeyWrapperIPK22Il2CppGenericParameterEP11Il2CppClassEES6_N6il2cpp5utils11PointerHashIS4_EEN14dense_hash_mapIS6_S9_SE_NS6_14EqualsComparerINS0_8equal_toIS5_EEEENS0_9allocatorISA_EEE9SelectKeyESJ_SL_E12test_deletedEj
RMi:_AudioSource_get_spatialize_m3609701298
iTg:__Z52RuntimeInvoker_Color_t2555686324_Color32_t2600501292PFvvEPK10MethodInfoPvPS4_
sna:__ZN20GpuProgramParameters14AddVectorParamEPKcii15ShaderParamTypeiiiP16PropertyNamesSet
__c:__ZNK12HeaderHelper3GetERKN4core12basic_stringIcNS0_20StringStorageDefaultIcEEEE
IUc:__Z24GetUnityAnalyticsManagerv
Acb:__ZN9InputAxis8TransferI14SafeBinaryReadEEvRT_
zZ:__ZNK21ExecutionOrderManager30GetCustomAwakeFromLoadQueueForEPKN5Unity4TypeE
r_c:__Z27RegisterModule_UnityConnectv
uOd:_MemoryStream_Expand_m3554752073
Cfj:__ZN6il2cpp2vm10Reflection27GetCustomAttributesCacheForEP25Il2CppReflectionParameter
tzg:_ScriptableObject_CreateInstance_m2611081756
ote:_ObjectRecord_get_IsInstanceReady_m2304516395
vFe:_InternalEnumerator_1_System_Collections_IEnumerator_get_Current_m1635397542_gshared
$Od:_Path__cctor_m3273994011
pJi:_AnalyticsEventTracker__ctor_m3064238498
gNj:__ZNSt11logic_errorD2Ev
tyf:_DateTimeUtils_CountRepeat_m3396693018
q6f:_WeakReference_get_Target_m168713953
IK:__ZN10ObjectPoolIN4FMOD12ChannelGroupENS0_13ChannelGroupIEE7SetSizeEi
yli:__ZL103LayoutRebuilder_t541313304_CustomAttributesCacheGenerator_LayoutRebuilder_U3CRebuildU3Em__5_m1288787547P21CustomAttributesCache
AIi:_SymmetricTransform_FinalDecrypt_m764004682
owj:__ZN6il2cpp2os10ThreadImpl33UnregisterCurrentThreadForCleanupEv
WBh:_List_1_System_Collections_IList_get_Item_m1315368445_gshared
ffi:__ZL114PointerEventData_t3807901092_CustomAttributesCacheGenerator_PointerEventData_get_pointerCurrentRaycast_m2627585223P21CustomAttributesCache
kBi:_Parser_ParseGroupingConstruct_m263270497
w1c:_UIBehaviour_OnDisable_m1784507360
A8h:__ZL112PlayerConnection_t3081694049_CustomAttributesCacheGenerator_PlayerConnection_MessageCallbackInternal_m1914517467P21CustomAttributesCache
PW:__Z22ValidateTlsfAllocationPvjiS_
Xze:_InternalEnumerator_1_MoveNext_m3525157932_gshared
kng:_Color__ctor_m2943235014_AdjustorThunk
lhj:__ZN14dense_hash_mapI10KeyWrapperINSt3__24pairIPK9EventInfoP11Il2CppClassEEEj17ReflectionMapHashIS8_ENS9_14EqualsComparerINS1_8equal_toIS8_EEEENS1_9allocatorINS2_IKS9_jEEEEE15set_deleted_keyERSH_
dx:__ZN27AnimationLayerMixerPlayable22PrepareAnimationEventsEfR13dynamic_arrayI22AnimationClipEventInfoLj4EE
Hqb:__Z14resize_trimmedINSt3__26vectorI17AnimationCurveTplIfE13stl_allocatorIS3_L18MemLabelIdentifier1ELi16EEEEEvRT_j
YWb:__ZN25CameraStackRenderingState19SetupLastEyeCamerasERK11CameraStack
NPa:__Z12GUIDToStringRK9UnityGUID
Qie:_RSASslSignatureDeformatter_SetKey_m2204705853
FG:__ZN11SoundHandleC2ERKS_
ot:__ZN17AnimationPlayableC2E18DirectorPlayerType
cTe:_InputField_set_shouldHideMobileInput_m1650743574
y3i:__ZNK6il2cpp5utils11collections13ArrayValueMapIPK10Il2CppType17Il2CppInteropData26InteropDataToTypeConverterNS_8metadata14Il2CppTypeLessENS8_26Il2CppTypeEqualityComparerEE10find_firstERKS5_
oDh:_List_1_Reverse_m1445355384_gshared
YMd:_FileStream_get_CanSeek_m331583577
$_b:__Z29StdTemplateConversionFunctionItxEbPvR14SafeBinaryRead
Qse:_WellKnownServiceTypeEntry_get_ObjectType_m3211195371
wMi:_PCMReaderCallback_EndInvoke_m3916876196
c2d:_TypeBuilder_get_ContainsGenericParameters_m1769080325
Qjd:_DSAParameters_t1885824122_marshal_pinvoke_back
Dz:__ZN8Animator22OnGraphTopologyChangedEP8Playablei
L7e:_Kernel_MultiplyByDword_m1266935086
zEd:_Convert_ToInt64_m3916071102
GYb:__ZN6Camera25StandaloneRenderToCubemapEP7TextureiPFvPK9SceneNodePK4AABBR9IndexListPvESA_j
Guf:_String_Trim_m3384720403
eYa:__ZN14RenderSettings18TransferDeprecatedI14SafeBinaryReadEEvRT_
IMg:__Z93RuntimeInvoker_Single_t1397266774_SingleU26_t1922108698_Single_t1397266774_Single_t1397266774PFvvEPK10MethodInfoPvPS4_
qFi:_Event__ctor_m526447123
VZh:__ZL56RankException_t3812021567_CustomAttributesCacheGeneratorP21CustomAttributesCache
nZg:__Z72RuntimeInvoker_Boolean_t97287965_CustomAttributeNamedArgument_t287865710PFvvEPK10MethodInfoPvPS4_
RPg:__Z88RuntimeInvoker_RuntimeObject_RuntimeObject_RuntimeObject_RuntimeObject_Int32_t2950945753PFvvEPK10MethodInfoPvPS4_
k2f:_Type_ToString_m3975981286
rZ:__ZN12TLSAllocatorI14StackAllocatorE8AllocateEji
s$:__ZN16ScriptingManager18GetMonoScriptCacheEi
yBi:_ExpressionAssertion__ctor_m2554412824
WCi:_CapturingGroup_IsComplex_m4061114763
zig:_Enumerator_System_Collections_IEnumerator_get_Current_m2237476582_gshared
cpb:__Z18Transfer_BlittableI14SafeBinaryReadLb1EyEvRK29SerializationCommandArgumentsR31RuntimeSerializationCommandInfo
E2h:__ZL99GameObject_t1113636619_CustomAttributesCacheGenerator_GameObject_GetComponentInChildren_m2670866854P21CustomAttributesCache
rUd:_NullReferenceException__ctor_m3076065613
iqc:__ZN8JSONRead8TransferIfEEvRT_PKc17TransferMetaFlagsb
qJh:__ZL73Enum_t4135868527_CustomAttributesCacheGenerator_Enum_ToObject_m3092348831P21CustomAttributesCache
Ujh:_Comparison_1_EndInvoke_m3981968715_gshared
Asd:__ZN21InterfaceFuncInvoker2IP12Il2CppObjectP6Type_tS1_E6InvokeEjP11Il2CppClassS1_S3_S1_
ngf:_X509SubjectKeyIdentifierExtension_Decode_m1505409124
bna:__ZL23AddGpuProgramParametersR20GpuProgramParametersRKNSt3__26vectorIN9ShaderLab20SerializedSubProgram15MatrixParameterENS1_9allocatorIS5_EEEERKNS2_INS4_15VectorParameterENS6_ISB_EEEEiiP16PropertyNamesSet
GAa:__ZN6prcoreL17RemapGenericFloatI18TexFormatARGBFloat17TexFormatRGBAHalfEEvPKNS_9InnerInfoE
mJi:_AnalyticsEventParamListContainer__ctor_m1995104893
juf:_String_System_IConvertible_ToUInt16_m2888090399
pM:__ZN11AudioSource21ApplyCachedParametersE12SoundChannel
gWd:_Assembly_InternalGetType_m3065345470
HMe:_Enumerator_System_Collections_IEnumerator_Reset_m1943008355_gshared
Kye:_InternalEnumerator_1__ctor_m3390957028_gshared
a7d:_ResourceSet__ctor_m3356376607
Y9d:_PrimeGeneratorBase_get_PrimalityTest_m2487240563
K3c:_PhysicsRaycaster_get_maxRayIntersections_m3887348715
oRh:__ZL56_ParameterInfo_t489405856_CustomAttributesCacheGeneratorP21CustomAttributesCache
H4a:__ZN15SerializeTraitsI33EnlightenTerrainChunksInformationE8TransferI14SafeBinaryReadEEvRS0_RT_
Y5b:__ZNK32RendererMaterialAnimationBinding9BindValueER6ObjectRKN11UnityEngine9Animation14GenericBindingERNS3_10BoundCurveE
Iii:__ZL109MaskableGraphic_t3839221559_CustomAttributesCacheGenerator_MaskableGraphic_ParentMaskStateChanged_m1092090553P21CustomAttributesCache
vQe:_Transform_1_Invoke_m1731820209_gshared
$Ya:__Z13GetIAnimationv
Pya:__ZL18stbir__support_onef
Ctf:_Single_CompareTo_m189772128
Vrc:__Z26Transfer_UnityEngineObjectI9JSONWriteLb0EEvRK29SerializationCommandArgumentsR31RuntimeSerializationCommandInfo
KHe:_DefaultComparer_Compare_m4042058291_gshared
cfd:_Image_set_overrideSprite_m3213596394
n0a:__ZNSt3__26vectorIN4core12basic_stringIcNS1_20StringStorageDefaultIcEEEE13stl_allocatorIS5_L18MemLabelIdentifier1ELi16EEE6assignINS_11__wrap_iterIPS5_EEEENS_9enable_ifIXaasr21__is_forward_iteratorIT_EE5valuesr16is_constructibleIS5_NS_15iterator_traitsISF_E9referenceEEE5valueEvE4typeESF_SF_
JPc:__ZNSt3__27__sort5IRNS_6__lessIN2UI14DepthSortEntryES3_EEPS3_EEjT0_S7_S7_S7_S7_T_
JMd:_FileLoadException_ToString_m2989457882
zvi:_AuthorityKeyIdentifierExtension__ctor_m2197389230
hNi:_AudioListener_ClearExtensionProperties_m3849891634
bzc:_UNITY_FT_DivFix
ysi:_Array_InternalArray__get_Item_TisDecimal_t2948259380_m3511003792_gshared
Xdj:__ZNSt3__218uninitialized_copyIPNS_4pairIK10KeyWrapperINS1_IPK11Il2CppImageP11Il2CppClassEEEjEESC_EET0_T_SE_SD_
Xqf:_SecurityElement_IsValidAttributeValue_m948345692
Wxc:__ZN19ControllerHitReport15onControllerHitERKN5physx16PxControllersHitE
Ba:invoke_vdd
Bn:FUNCTION_TABLE_fiii
KPh:__ZL102MethodInfo_t_CustomAttributesCacheGenerator_MethodInfo_MakeGenericMethod_m1996785325____typeArguments0P21CustomAttributesCache
WQd:_TextWriter_Write_m2252948084
k8b:__Z19RegisterModule_Corev
mpe:_AsyncResult_get_CallMessage_m1679778649
mPf:_Array_InternalArray__IEnumerable_GetEnumerator_TisPlayableBinding_t354260709_m1924544205_gshared
mNc:__ZZ29InitializeTextRenderingModulevEN27cleanupAfterLoadRegistrator7ForwardEv
ikb:__ZNSt3__26__sortIRPFbRK23TransformAccessReadOnlyS3_EPS1_EEvT0_S8_T_
DHf:_CCFixed_FromDateTime_m3894190577
LWb:__Z29PluginsIssueRenderingExtEvent26UnityRenderingExtEventTypePv
HHg:__Z116RuntimeInvoker_RuntimeObject_RuntimeObject_Int32_t2950945753_RuntimeObject_RuntimeObject_RuntimeObject_RuntimeObjectPFvvEPK10MethodInfoPvPS4_
dhd:_RuntimeMethodHandle__ctor_m2229201676_AdjustorThunk
Ste:_MessageFormatter_ReadMethodCall_m2327590823
Z4b:__Z14RandomRotationP9Texture2DPhiiii
ESf:_Array_InternalArray__ICollection_Add_TisUInt16_t2177724958_m3981262878_gshared
ACf:_Decimal_GetBits_m453754410
Ihg:_HashSet_1_Contains_m3173358704_gshared
gLi:_ToggleEvent__ctor_m834619998
OGe:_InternalEnumerator_1_Dispose_m436383441_AdjustorThunk
Vbe:_PKCS1_Encode_v15_m2077073129
O9f:_Dictionary_2_get_Values_m2682483593_gshared
S9g:_Collection_1_set_Item_m4084225937_gshared
j3g:__Z51RuntimeInvoker_OrderBlock_t1585977831_RuntimeObjectPFvvEPK10MethodInfoPvPS4_
Pxg:_RectOffset_get_left_m1232181034
QBa:__ZN4gles14UseGLSLProgramER15DeviceStateGLESjbij
SUg:__Z59RuntimeInvoker_Boolean_t97287965_Int32_t2950945753_IntPtr_tPFvvEPK10MethodInfoPvPS4_
YUj:_glDeleteProgram__wrapper
yfc:__Z50Register_UnityEngine_Camera_INTERNAL_get_pixelRectv
Yza:__ZN6prcoreL18BlitFloatToIntegerERK14ImageReferenceRS0_
xBf:_DBNull_System_IConvertible_ToUInt32_m3784627971
vfe:_ClientSessionCache_Add_m964342678
wHi:_SkinChangedDelegate__ctor_m1270439727
_Fa:__ZN13dynamic_arrayI15ComputeShaderCBLj4EE6assignEPKS0_S3_
BNb:__Z13GetIPhysics2Dv
GU:__ZN11UnityEngine15CloudWebService14RestDownloader17OnCompleteContentEv
abj:__ZN15dense_hashtableINSt3__24pairIK10KeyWrapperINS1_IPK14Il2CppAssemblyP11Il2CppClassEEEjEES9_17ReflectionMapHashIS8_EN14dense_hash_mapIS9_jSD_NS9_14EqualsComparerINS0_8equal_toIS8_EEEENS0_9allocatorISB_EEE9SelectKeyESI_SK_E15insert_noresizeERKSB_
sBg:_Transform_get_localScale_m129152068
UCf:_DivideByZeroException__ctor_m3496959969
cDa:__ZN26SinglePassStereoSupportExt19AfterDrawCallStereoEv
C1e:_ScrollRect_get_layoutPriority_m1584702890
Qa:invoke_viffi
jz:__ZN17AnimationPlayable28UpdateInternalStateRecursiveILi1ELb0EEEvPK35AnimationPlayableEvaluationConstant
Itj:__ZN6il2cpp2gcL10CleanupCCWEPvS1_
Ta:invoke_vifff
QWj:_glGetVertexAttribiv__wrapper
Qe:_emscripten_request_fullscreen
Nlh:_Predicate_1_Invoke_m851618236_gshared
ANh:__ZL67IsolatedStorageException_t3468072396_CustomAttributesCacheGeneratorP21CustomAttributesCache
RFb:__ZN20LocalFileSystemWebGL6DeleteER13FileEntryDatab
Se:_emscripten_glDisableVertexAttribArray
pNf:_Array_InternalArray__ICollection_Remove_TisSingle_t1397266774_m3361324455_gshared
Xm:FUNCTION_TABLE_iiiifiiii
Mga:__ZN4core8hash_mapINS_12basic_stringIcNS_20StringStorageDefaultIcEEEE13dynamic_arrayI4PPtrI6SpriteELj4EENS_4hashIS4_EENSt3__28equal_toIS4_EEE12delete_nodesEv
jFh:_Collection_1_set_Item_m839097518_gshared
mze:_InternalEnumerator_1__ctor_m3456047704_gshared
mc:invoke_fifffi
E8g:_Collection_1_System_Collections_IList_Add_m2969482770_gshared
yJ:__ZN4FMOD5Sound15getNumSubSoundsEPi
kwa:__ZN4gles23ClearCurrentFramebufferEP7ApiGLESbbbRK10ColorRGBAffi
VKe:_Enumerator_System_Collections_IDictionaryEnumerator_get_Entry_m3249874482_AdjustorThunk
Soh:_UnityEvent_1_Invoke_m3604335408_gshared
MYh:__ZL79Convert_t2465617642_CustomAttributesCacheGenerator_Convert_ToUInt64_m2652538228P21CustomAttributesCache
bf:_emscripten_glDeleteObjectARB
l2c:_EventSystem_RaycastComparer_m3685368675
Yf:_IMG_Load
BLg:__Z131RuntimeInvoker_Void_t1185182177_RuntimeObject_RuntimeObject_Int64_t3736567304_ObjectU26_t2146539884_SerializationInfoU26_t419328957PFvvEPK10MethodInfoPvPS4_
mBa:__ZN6prcoreL27StretchGenericFloatBilinearI18TexFormatARGBFloatEEvPKNS_9InnerInfoE
Gjc:__Z53Register_UnityEngine_RenderTexture_Internal_GetHeightv
Zgi:__ZL87U3CDelayedDestroyDropdownListU3Ec__Iterator0_t3853912249_CustomAttributesCacheGeneratorP21CustomAttributesCache
Wbf:_PKCS12_RemoveCertificate_m1421555398
e3e:_Slider_FindSelectableOnLeft_m1667068522
ZAa:__ZN6prcoreL17RemapGenericFloatI17TexFormatRGBAHalf18TexFormatARGBFloatEEvPKNS_9InnerInfoE
vAb:__ZN18StreamedBinaryReadILb1EE21TransferSTLStyleArrayI13dynamic_arrayIN4math12int3_storageELj4EEEEvRT_17TransferMetaFlags
unc:__Z14GetBuiltinSkini
Eqe:_MethodDictionary_get_Item_m1201458851
SEg:__Z60RuntimeInvoker_SByte_t1669577662_RuntimeObject_RuntimeObjectPFvvEPK10MethodInfoPvPS4_
O8e:_CryptoConvert_ToInt32LE_m3340980429
N7:___cxx_global_var_init_18
ll:_JS_SystemInfo_GetBrowserVersionString
Kjb:__ZN2UI13RectTransform23VirtualRedirectTransferER14SafeBinaryRead
egb:__ZN24GenerateTypeTreeTransfer8TransferINSt3__26vectorIN4core12basic_stringIcNS3_20StringStorageDefaultIcEEEE13stl_allocatorIS7_L18MemLabelIdentifier13ELi16EEEEEEvRT_PKc17TransferMetaFlags
pRe:_Enumerator_MoveNext_m3045873697_gshared
GRg:__Z31RuntimeInvoker_Rect_t2360479859PFvvEPK10MethodInfoPvPS4_
kka:__ZNSt3__26vectorIN9ShaderLab20SerializedSubProgramENS_9allocatorIS2_EEE6assignIPS2_EENS_9enable_ifIXaasr21__is_forward_iteratorIT_EE5valuesr16is_constructibleIS2_NS_15iterator_traitsIS9_E9referenceEEE5valueEvE4typeES9_S9_
fuc:__Z18Transfer_BlittableI8JSONReadLb0E8BitFieldEvRK29SerializationCommandArgumentsR31RuntimeSerializationCommandInfo
yqf:_SecurityPermission_set_Flags_m1503445204
Chg:_HashSet_1_CopyTo_m2849056227_gshared
azb:__ZL17Transfer_GUIStyleI18StreamedBinaryReadILb1EELb0EEvRK29SerializationCommandArgumentsR31RuntimeSerializationCommandInfo
t7e:_ModulusRing_Multiply_m343333088
$ha:__ZN9ShaderLab14SerializedPass8TransferI14SafeBinaryReadEEvRT_
moc:__Z71Register_UnityEngine_GUILayoutUtility_INTERNAL_CALL_Internal_MoveWindowv
bP:__ZN12AudioManager16SetListenerPauseEb
Xfb:__ZNSt3__26vectorIN30RuntimeInitializeOnLoadManager9ClassInfoE13stl_allocatorIS2_L18MemLabelIdentifier13ELi16EEE6assignINS_11__wrap_iterIPS2_EEEENS_9enable_ifIXaasr21__is_forward_iteratorIT_EE5valuesr16is_constructibleIS2_NS_15iterator_traitsISC_E9referenceEEE5valueEvE4typeESC_SC_
bOf:_SetPropertyUtility_SetStruct_TisSingle_t1397266774_m2805350785_gshared
xXf:_StringBuilder_get_Length_m3238060835
doj:__ZN6il2cpp2vm9Exception25RaiseOutOfMemoryExceptionERKNS_5utils10StringViewIDsEE
Xhg:_KeyValuePair_2_set_Value_m2953914627_AdjustorThunk
da:invoke_viiiiiiiiiii
YIj:___syscall_ret
rwi:_DeriveBytes_set_Salt_m1400945044
u4c:_PointerEventData_set_worldNormal_m1888481930
J7c:_CanvasScaler_set_referencePixelsPerUnit_m1768965301
gCi:_AnchorInfo__ctor_m46784903
bee:_CipherSuiteCollection_get_Item_m4188309062
Lje:_SslHandshakeHash_HashFinal_m2573455475
Aoe:_SynchronizationAttribute_ReleaseLock_m1030353464
sqi:_Array_swap_TisCustomAttributeNamedArgument_t287865710_m2628186452_gshared
sVc:__Z56Register_UnityEngine_Analytics_CustomEventData_AddDoublev
F7a:__ZN11ChannelInfo8TransferI19StreamedBinaryWriteILb0EEEEvRT_
gzj:__ZN4utf88internal13validate_nextIPKcEENS0_9utf_errorERT_S5_Rj
fki:__ZL53ToggleGroup_t123837990_CustomAttributesCacheGeneratorP21CustomAttributesCache
jof:_SHA1Internal_AddLength_m2737455899
kOb:__ZN14qsort_internal13Partition3WayIP17RODataReplacementi19ROSorterReplacementEENSt3__24pairIT_S6_EES6_S6_T0_T1_
NVe:_InputField_CreateCursorVerts_m3585916868
m9f:_KeyValuePair_2_get_Value_m755756747_gshared
Ggc:__Z34Register_UnityEngine_Gradient_Initv
xXe:_LayoutGroup_OnDidApplyAnimationProperties_m1333813659
Zdj:__ZN24dense_hashtable_iteratorINSt3__24pairIK10KeyWrapperINS1_IPK11Il2CppImageP11Il2CppClassEEEjEES9_17ReflectionMapHashIS8_EN14dense_hash_mapIS9_jSD_NS9_14EqualsComparerINS0_8equal_toIS8_EEEENS0_9allocatorISB_EEE9SelectKeyESI_SK_E30advance_past_empty_and_deletedEv
g$d:_GenericTypeParameterBuilder_IsArrayImpl_m67259334
One:_Context_ToString_m1073616138
VXd:_DefaultMemberAttribute_get_MemberName_m3384235354
D6a:__ZN13ScreenManager23SetIsOrientationEnabledE18EnabledOrientationb
MOi:__ZL24UnresolvedVirtualCall_57P12Il2CppObjectiPK10MethodInfo
YSe:_InputField_EnforceTextHOverflow_m3400115777
hwh:_List_1_System_Collections_IEnumerable_GetEnumerator_m1225415523_gshared
PSg:__Z41RuntimeInvoker_TextureWrapMode_t584250749PFvvEPK10MethodInfoPvPS4_
Ecb:__ZN9InputAxis8TransferI19StreamedBinaryWriteILb0EEEEvRT_
$Gd:__Z33il2cpp_codegen_check_sub_overflowxx
SOj:dynCall_viififiii
LTe:_InputField_get_caretColor_m2973283772
YSi:_ListPool_1_Release_m591299672_gshared
jYh:__ZL79Convert_t2465617642_CustomAttributesCacheGenerator_Convert_ToUInt16_m3116648921P21CustomAttributesCache
qFe:_InternalEnumerator_1_MoveNext_m1096095130_AdjustorThunk
a9g:_Collection_1_RemoveAt_m226266097_gshared
gph:_UnityEvent_1_AddListener_m1590149461_gshared
fci:__ZL63GUISkin_t1244372282_CustomAttributesCacheGenerator_m_ScrollViewP21CustomAttributesCache
Rti:_Resources_ConvertObjects_TisRuntimeObject_m1486780300_gshared
cFf:_Double_System_IConvertible_ToInt16_m3591921965_AdjustorThunk
Wjh:_Comparison_1_Invoke_m2925518770_gshared
KQa:__ZN10GameObject23VirtualRedirectTransferER18StreamedBinaryReadILb0EE
jIi:_SymmetricTransform__ctor_m2693628991
lVd:_ObjectDisposedException__ctor_m1034312941
tg:_glFrontFace
aOd:_FileSystemInfo_InternalRefresh_m1700260373
Hbd:_Dropdown_OnSubmit_m1624226516
Lxg:_RectOffset__ctor_m3236153262
i3i:__ZNK15dense_hashtableINSt3__24pairIK10KeyWrapperIPK19Il2CppGenericMethodEPK26Il2CppGenericMethodIndicesEES6_N6il2cpp8metadata23Il2CppGenericMethodHashEN14dense_hash_mapIS6_SA_SE_NS6_14EqualsComparerINSD_26Il2CppGenericMethodCompareEEENS0_9allocatorISB_EEE9SelectKeyESI_SK_E12test_deletedEj
lZe:_MaskUtilities_IsDescendantOrSelf_m2247511982
INg:__Z51RuntimeInvoker_UInt16_t2177724958_SByte_t1669577662PFvvEPK10MethodInfoPvPS4_
gTb:__ZNSt3__26vectorI16ShadowCasterData13stl_allocatorIS1_L18MemLabelIdentifier2ELi16EEE21__push_back_slow_pathIKS1_EEvRT_
SDg:__Z46RuntimeInvoker_Double_t594665363_RuntimeObjectPFvvEPK10MethodInfoPvPS4_
WNc:__Z51Register_UnityEngine_TextGenerator_GetLinesInternalv
NQe:_Enumerator_get_Current_m2250080680_AdjustorThunk
WIi:_AesManaged_set_Key_m767972181
bGd:_Int16_System_IConvertible_ToBoolean_m1656400658_AdjustorThunk
Ztd:_Byte_System_IConvertible_ToInt64_m285584218
Dta:__ZN13GfxDeviceGLES22SetScissorRectPlatformERK5RectTIiE
oAa:__ZN6prcoreL17RemapGenericFloatI17TexFormatRGBFloat18TexFormatRGBAFloatEEvPKNS_9InnerInfoE
Ezd:_DictionaryEntry_t3123975638_marshal_pinvoke_cleanup
YRf:_Array_InternalArray__ICollection_Add_TisDictionaryEntry_t3123975638_m665385049_gshared
iSd:_MissingMemberException__ctor_m2707802176
j_c:__ZN20UnityConnectSettings10InitializeEv
nVi:_Canvas_get_renderMode_m841659411
N4a:__ZN15SerializeTraitsI13dynamic_arrayI28EnlightenRendererInformationLj8EEE19ResizeSTLStyleArrayERS2_i
mgd:_SerializationInfo_GetValue_m42271953
wG:__ZN9AudioClip11CreateSoundEv
zhj:__ZN14dense_hash_mapI10KeyWrapperINSt3__24pairIPK9FieldInfoP11Il2CppClassEEEj17ReflectionMapHashIS8_ENS9_14EqualsComparerINS1_8equal_toIS8_EEEENS1_9allocatorINS2_IKS9_jEEEEEC2EjRKSB_RKSF_
Xcj:__ZNK15dense_hashtableINSt3__24pairIK10KeyWrapperINS1_IPK10MethodInfoP11Il2CppClassEEEjEES9_17ReflectionMapHashIS8_EN14dense_hash_mapIS9_jSD_NS9_14EqualsComparerINS0_8equal_toIS8_EEEENS0_9allocatorISB_EEE9SelectKeyESI_SK_E13find_positionERSA_
Ksa:__ZN13GfxDeviceGLES20CreateComputeProgramEPKhj
zZc:__ZN11UnityEngine7Connect16PersistentValues13RestoreValuesER8JSONRead
qKh:__ZL65RuntimeArray_CustomAttributesCacheGenerator_Array_Sort_m182264525P21CustomAttributesCache
fLf:_Guid_BaseToString_m3600006650
rOa:__ZN20ArchiveStorageReader31TryToReadDirectoryFromBlockDataEyPKvj
F1c:_PointerEventData_set_pointerEnter_m3256217464
jqj:__ZN6il2cpp2vmL11GetIdentityEP14Il2CppIUnknown
ACj:_GC_push_gc_structures
mhe:_TlsServerCertificate_ProcessAsTls1_m819212276
zth:_List_1_System_Collections_Generic_ICollectionU3CTU3E_get_IsReadOnly_m507350231_gshared
Bri:_Dictionary_2_Do_ICollectionCopyTo_TisRuntimeObject_m3942192587_gshared
A7i:__ZN6il2cpp6icalls8mscorlib6SystemL8IsPublicEPK9EventInfo
sdi:__ZL139RectTransformUtility_t1743242446_CustomAttributesCacheGenerator_RectTransformUtility_INTERNAL_CALL_RectangleContainsScreenPoint_m1214874141P21CustomAttributesCache
hae:_PrimalityTests_RabinMillerTest_m2544317101
lDa:__Z22GetShaderCachePathGLESv
s9d:_Kernel_DwordDivMod_m1540317819
Jmh:_CachedInvokableCall_1_Invoke_m931536002_gshared
BDh:_Enumerator_System_Collections_IEnumerator_get_Current_m1399273671_gshared
P1d:_TypeBuilder_GetPropertyImpl_m3104345782
Z7a:__ZNSt3__213__stable_sortIRNS_4lessI4PPtrI11SpriteAtlasEEENS_11__wrap_iterIPS4_EEEEvT0_SA_T_NS_15iterator_traitsISA_E15difference_typeEPNSD_10value_typeEi
pKd:_Int64_ToString_m2085073918_AdjustorThunk
ZPe:_Transform_1_Invoke_m4084479750_gshared
v2d:_FieldInfo_GetFieldOffset_m1356898082
k3g:__Z36RuntimeInvoker_Enumerator_t652329154PFvvEPK10MethodInfoPvPS4_
hRf:_Array_InternalArray__IndexOf_TisTypeTag_t3541821701_m2988972362_gshared
d9:__ZN8keywords6CreateEPKc
VXi:__ZL7log2_32j
S:Math_imul
Jjg:_Enumerator_Dispose_m786980821_AdjustorThunk
xZg:__Z49RuntimeInvoker_Boolean_t97287965_Byte_t1134296376PFvvEPK10MethodInfoPvPS4_
Hhe:_TlsServerKeyExchange_Update_m453798279
Q5a:__ZN11PlayerPrefs6GetIntERKN4core12basic_stringIcNS0_20StringStorageDefaultIcEEEEi
iee:_CipherSuiteCollection_System_Collections_IList_IndexOf_m1361500977
Z3e:_Text_set_fontStyle_m648756124
ENc:__Z45TextGenerator_CUSTOM_INTERNAL_get_rectExtentsP12Il2CppObjectP5RectTIfE
hSg:__Z50RuntimeInvoker_Touch_t1921856868_Int32_t2950945753PFvvEPK10MethodInfoPvPS4_
Nxf:_DateTime__ctor_m2135476686_AdjustorThunk
Kre:_SoapFieldAttribute_IsInteropXmlElement_m2819415462
PP:__ZN11AudioSource12SetAudioClipEP9AudioClip
zyg:_RectTransform_GetLocalCorners_m823861473
lyd:_SynchronizedArrayListWrapper_GetEnumerator_m1579424644
Odg:_EqualityComparer_1__ctor_m3717935020_gshared
mkh:_Comparison_1_EndInvoke_m2734814639_gshared
A_:__ZN18ScriptingArguments9AddObjectE18ScriptingObjectPtr
SRc:__Z39CanvasGroup_Get_Custom_PropInteractableP12Il2CppObject
KR:__ZN11UnityEngine15CloudWebService16SessionContainerD2Ev
JZc:__ZL38InitializeUnityConnectScriptingClassesv
tXb:__ZN13ProbeRenderer8ConvolveEbijjb
PHi:_GUIUtility_set_systemCopyBuffer_m608712289
Ewa:__ZN17GenericDynamicVBOC2ER9GfxDevice13GfxBufferModejj
vmc:__ZZN10GUIManager14InitGUIManagerEvEN41PreUpdateIMGUISendQueuedEventsRegistrator7ForwardEv
qff:_ServicePointManager_get_SecurityProtocol_m966397919
iDa:__ZN13dynamic_arrayIN18GlslGpuProgramGLES9GLProgramELj4EE6insertEPS1_jRKS1_
sdg:_EqualityComparer_1_System_Collections_IEqualityComparer_Equals_m2639327655_gshared
OHf:_CCGregorianCalendar_day_from_fixed_m1674702403
bT:__ZN11UnityEngine15CloudWebService17SessionEventQueue10PurgeItemsEj
ZXb:__ZN6Camera16StandaloneRenderENS_10RenderFlagEP6ShaderRKN4core12basic_stringIcNS3_20StringStorageDefaultIcEEEE
Thf:_X509Chain_PrepareForNextCertificate_m3691934993
V1a:__ZNK12CubemapArray13GetIsReadableEv
uyb:__Z18Transfer_BlittableI18StreamedBinaryReadILb1EELb1EtEvRK29SerializationCommandArgumentsR31RuntimeSerializationCommandInfo
zbi:__ZL58EventType_t3528516131_CustomAttributesCacheGenerator_keyUpP21CustomAttributesCache
wTh:__ZL57X509Certificate_t713131622_CustomAttributesCacheGeneratorP21CustomAttributesCache
Rab:__ZN12BoneWeights48TransferI19StreamedBinaryWriteILb0EEEEvRT_
Pqa:__ZN9GfxDevice20DeallocRenderSurfaceEP17RenderSurfaceBase
ASe:_ValueCollection_System_Collections_Generic_ICollectionU3CTValueU3E_get_IsReadOnly_m1110422367_gshared
gna:__ZN20GpuProgramParameters36UpdatePrepareValuesMaximumBufferSizeEv
HNi:_AudioSourceExtension_Stop_m387892536
HCh:_List_1_System_Collections_IEnumerable_GetEnumerator_m1355413981_gshared
k5e:_SimpleCollator_GetContraction_m2205549079
cgg:_EqualityComparer_1_get_Default_m168544645_gshared
keh:_ReadOnlyCollection_1_System_Collections_IList_get_IsReadOnly_m3888539454_gshared
Hda:__ZN13RuntimeStaticI10WatermarksLb0EE13StaticDestroyEPv
Rae:_ARC4Managed_GenerateKey_m1607343060
mTf:_Array_InternalArray__ICollection_CopyTo_TisDecimal_t2948259380_m2749946216_gshared
Eie:_ReceiveRecordAsyncResult_get_ResultingBuffer_m1839161335
iSa:__ZN12BaseRenderer23RendererBecameInvisibleEv
x_d:_EnumBuilder_IsPointerImpl_m2644353933
Joe:_EnvoyInfo__ctor_m276600651
rKc:__ZN20TextRenderingPrivate8FontImpl13CharacterInfo8TransferI18StreamedBinaryReadILb0EEEEvRT_
Jvb:__Z29Transfer_Blittable_ArrayFieldI24GenerateTypeTreeTransferfEvRT_R9ArrayInfoRK23StaticTransferFieldInfo
Hba:__ZNSt3__26__treeINS_12__value_typeIN4core12basic_stringIcNS2_20StringStorageDefaultIcEEEES6_EENS_19__map_value_compareIS6_S7_NS_4lessIS6_EELb1EEE13stl_allocatorIS7_L18MemLabelIdentifier13ELi16EEE7destroyEPNS_11__tree_nodeIS7_PvEE
sqg:_UnityEvent_FindMethod_Impl_m2312362624
nZb:__ZN19CustomRenderTexture9AddParentE4PPtrIS_E
c7:__ZN8Gradient8TransferI14SafeBinaryReadEEvRT_
$lg:_Vector3_GetHashCode_m2879461828
iBi:_Parser_ParseSpecial_m1961501104
utf:_Single_System_IConvertible_ToUInt64_m3299129161_AdjustorThunk
m0a:__ZNSt3__26vectorIN4core12basic_stringIcNS1_20StringStorageDefaultIcEEEE13stl_allocatorIS5_L18MemLabelIdentifier1ELi16EEE7reserveEj
pdi:__ZL93CanvasRenderer_t2598313366_CustomAttributesCacheGenerator_CanvasRenderer_set_cull_m4222419074P21CustomAttributesCache
hSe:_ValueCollection_System_Collections_Generic_ICollectionU3CTValueU3E_Contains_m3110959791_gshared
Xef:_IPv6Address_AsIPv4Int_m844941024
JVd:_Random__ctor_m3209279193
cie:_RecordProtocol__cctor_m1280873827
k8d:_Marshal__cctor_m4007734770
uBj:_GC_new_free_list_inner
cbf:_SymmetricTransform_Random_m2004892672
gQg:__Z79RuntimeInvoker_Void_t1185182177_RuntimeObject_Byte_t1134296376_Byte_t1134296376PFvvEPK10MethodInfoPvPS4_
cce:_EncryptedPrivateKeyInfo_get_IterationCount_m2912222740
$Aj:_GC_err_printf
ZOi:__ZL24UnresolvedVirtualCall_70P12Il2CppObjectPK10MethodInfo
YNh:__ZL63PathTooLongException_t2919094560_CustomAttributesCacheGeneratorP21CustomAttributesCache
vce:_RSAManaged_DecryptValue_m1804388365
Dwe:_InternalEnumerator_1_System_Collections_IEnumerator_get_Current_m2980550840_AdjustorThunk
Vuc:__ZN8JSONRead8TransferI10RectOffsetEEvRT_PKc17TransferMetaFlagsb
hrj:__ZNK15dense_hashtableINSt3__24pairIK10KeyWrapperINS1_IPKcS4_EEEiEES6_24NamespaceAndNamePairHashN14dense_hash_mapIS6_iS9_NS6_14EqualsComparerI26NamespaceAndNamePairEqualsEENS0_9allocatorIS8_EEE9SelectKeyESD_SF_E12test_deletedERK24dense_hashtable_iteratorIS8_S6_S9_SH_SD_SF_E
LS:__ZN9JSONWrite8TransferIN11UnityEngine15CloudWebService14DataErrorEvent15FileErrorDetailEEEvRT_PKc17TransferMetaFlags
X5g:_Collection_1_ClearItems_m2728738230_gshared
aJd:_Int32_Parse_m2087562008
UUa:__Z21ClearFenceWithoutSyncR8JobFence
cQf:_Array_compare_TisVector4_t3319028937_m1974066282_gshared
j5d:_MonoProperty_GetAccessors_m412928203
DSi:_TweenRunner_1_Start_m3757154622_gshared
CJ:__ZN12SoundManager20RegisterModifiedClipEP10SampleClip
Yke:_RemotingServices_GetClientChannelSinkChain_m1499550585
hWd:_Assembly_FillName_m1660001542
dRh:__ZL56_EventBuilder_t2558055199_CustomAttributesCacheGeneratorP21CustomAttributesCache
j0e:_ScrollRect_get_decelerationRate_m74583805
Jof:_SHA384Managed_processBlock_m1272529332
gM:__ZN11AudioSource4PlayEd
Uvd:_Char_ToString_m278452217_AdjustorThunk
b1i:__ZN15dense_hashtableI10KeyWrapperIPK17Il2CppGenericInstES4_N6il2cpp8metadata21Il2CppGenericInstHashEN14dense_hash_setIS4_S7_NS4_14EqualsComparerINS6_24Il2CppGenericInstCompareEEENSt3__29allocatorIS4_EEE8IdentityESB_SE_E13set_empty_keyERKS4_
iFg:__Z63RuntimeInvoker_Char_t3634460470_Int16_t2552820387_RuntimeObjectPFvvEPK10MethodInfoPvPS4_
ODd:_Convert_ToDouble_m2924063577
Rlb:__ZNK20LocalFileSystemPosix8IsHiddenERK13FileEntryData
Nkg:_Enumerator_System_Collections_IEnumerator_get_Current_m3594024719_gshared
qGe:_InternalEnumerator_1_System_Collections_IEnumerator_Reset_m1601477281_AdjustorThunk
LXd:_CustomAttributeNamedArgument_ToString_m1488801416_AdjustorThunk
WRe:_ValueCollection_System_Collections_Generic_ICollectionU3CTValueU3E_Remove_m3673494156_gshared
ldi:__ZL113CanvasRenderer_t2598313366_CustomAttributesCacheGenerator_CanvasRenderer_SplitUIVertexStreamsInternal_m3280623346P21CustomAttributesCache
O2a:__ZN7Cubemap23VirtualRedirectTransferER18StreamedBinaryReadILb0EE
gNe:_Enumerator_MoveNext_m76191888_AdjustorThunk
WFe:_InternalEnumerator_1__ctor_m1739091604_gshared
Whc:__ZNSt3__27__sort4IRNS_6__lessI11KeyframeTplIfES3_EEPS3_EEjT0_S7_S7_S7_T_
UGc:_Read_CVT
m5e:_SimpleCollator_GetTailContraction_m2107754083
xub:__ZL26Transfer_SimpleNativeClassI24GenerateTypeTreeTransfer17AnimationCurveTplIfELb0EEvRK29SerializationCommandArgumentsR31RuntimeSerializationCommandInfo
zDd:_Convert_ToDecimal_m1783778724
Vvc:__ZN8JSONRead21TransferSTLStyleArrayI13dynamic_arrayI9BoundsIntLj4EEEEvRT_17TransferMetaFlags
V4a:__ZN24GenerateTypeTreeTransfer8TransferI13dynamic_arrayI33EnlightenTerrainChunksInformationLj4EEEEvRT_PKc17TransferMetaFlags
Dyf:_DateTimeFormatInfo__ctor_m3106345035
_ee:_TlsServerKeyExchange_verifySignature_m3412856769
Ucg:_EqualityComparer_1_System_Collections_IEqualityComparer_GetHashCode_m4137147946_gshared
cda:__ZN16LightmapSettings20DidChangeActiveSceneEP10UnitySceneS1_
Zvb:__Z18Transfer_BlittableI19StreamedBinaryWriteILb0EELb0EN4math12int3_storageEEvRK29SerializationCommandArgumentsR31RuntimeSerializationCommandInfo
sni:__ZL59g_AssemblyU2DCSharp_Assembly_CustomAttributesCacheGeneratorP21CustomAttributesCache
O7i:__ZN6il2cpp5utils9PathUtils8BasenameIcEENSt3__212basic_stringIT_NS3_11char_traitsIS5_EENS3_9allocatorIS5_EEEERKSA_
Kse:_RemotingProxy__cctor_m4096951805
_nc:__Z35Register_UnityEngine_Event_get_typev
ooj:__ZN6il2cpp2vm9Exception23GetInvalidCastExceptionERKNS_5utils10StringViewIDsEE
Vii:__ZL64Scrollbar_t1494447233_CustomAttributesCacheGenerator_m_DirectionP21CustomAttributesCache
kz:__ZN8Animator28BuildControllerPlayableCacheEv
aSh:__ZL48Header_t549724581_CustomAttributesCacheGeneratorP21CustomAttributesCache
Uci:__ZL88CanvasGroup_t4083511760_CustomAttributesCacheGenerator_CanvasGroup_get_alpha_m2918269489P21CustomAttributesCache
KUg:__Z36RuntimeInvoker_EventType_t3528516131PFvvEPK10MethodInfoPvPS4_
hZ:__Z63ThreadAndSerializationSafeCheckGetMonoBehaviourBeingTransferredv
CEf:_StackTrace__ctor_m206492268
fvh:_List_1_set_Item_m4224739467_gshared
lHg:__Z74RuntimeInvoker_Int32_t2950945753_RuntimeObject_RuntimeObject_RuntimeObjectPFvvEPK10MethodInfoPvPS4_
G9c:_ColorTween_set_startColor_m2562993758_AdjustorThunk
BYd:_ConstructorBuilder_get_Name_m2426555260
Chc:__Z37Register_UnityEngine_Input_GetAxisRawv
N_h:__ZL80ModulusRing_t596511505_CustomAttributesCacheGenerator_ModulusRing_Pow_m729002192P21CustomAttributesCache
jBi:_Parser_ParseCharacterClass_m4285351396
LEd:_Convert_ToSByte_m2653418303
ZAd:_SyncHashtable__ctor_m2449935938
UL:__ZN11AudioSource5ResetEv
Vnf:_RSAPKCS1SignatureFormatter_SetKey_m2935054088
KNb:__ZN12ImageFilters27SetSurfaceUseResolvedBufferEP13RenderTextureb
m8a:__ZN14Texture2DArray23VirtualRedirectTransferER18StreamedBinaryReadILb0EE
YYf:_UTF7Encoding_GetByteCount_m209415911
Bjb:__ZN2UI13RectTransform13AwakeFromLoadE17AwakeFromLoadMode
RDi:_RegularExpression_Compile_m2385682508
YHf:_CompareInfo__cctor_m1837489679
I2h:__ZL90GameObject_t1113636619_CustomAttributesCacheGenerator_GameObject_get_transform_m1369836730P21CustomAttributesCache
GSb:__ZN14qsort_internal30FindAndMovePivotToLastPositionIP20ShadowCasterSortDatai26ShadowCasterSortDataSorterEEvT_S4_T0_T1_
FSh:__ZL60IRemotingTypeInfo_t2222593263_CustomAttributesCacheGeneratorP21CustomAttributesCache
Vnb:__Z18Transfer_BlittableI14SafeBinaryReadLb1EiEvRK29SerializationCommandArgumentsR31RuntimeSerializationCommandInfo
Zhf:_X509ExtensionEnumerator_get_Current_m256207749
g8:__GLOBAL__sub_I_modules_profiler_public_0_cpp
qmh:_Predicate_1__ctor_m3829092036_gshared
bib:__ZN17PersistentManager13GetAllFileIDsERKN4core12basic_stringIcNS0_20StringStorageDefaultIcEEEER13dynamic_arrayIxLj8EE
OVh:__ZL83StringBuilder_t_CustomAttributesCacheGenerator_StringBuilder_AppendLine_m1438862993P21CustomAttributesCache
rrd:_Array_Sort_m182264525
dXe:_LayoutGroup_set_padding_m282562135
CFh:_Collection_1_System_Collections_IList_get_IsReadOnly_m773226719_gshared
dXd:_Default_IsArrayAssignable_m953489228
qD:__ZNK4PPtrI8RendererEcvPS0_Ev
Oij:_il2cpp_field_get_offset
x3f:_UInt16_ToString_m355311020_AdjustorThunk
tld:_RC2__ctor_m1146135664
ynh:_InvokableCall_1_remove_Delegate_m667188944_gshared
Doe:_SynchronizedClientContextSink__ctor_m4129963630
Hk:_glGetStringi
Iwf:_DecoderExceptionFallback_CreateFallbackBuffer_m1133375601
fsj:__ZNK15dense_hashtableI10KeyWrapperIP18Il2CppGenericClassES3_N6il2cpp8metadata22Il2CppGenericClassHashEN14dense_hash_setIS3_S6_NS3_14EqualsComparerINS5_25Il2CppGenericClassCompareEEENSt3__29allocatorIS3_EEE8IdentityESA_SD_E10test_emptyERK30dense_hashtable_const_iteratorIS3_S3_S6_SF_SA_SD_E
vLe:_Enumerator_get_CurrentKey_m889650866_gshared
f1a:__ZNSt3__26__treeINS_12__value_typeIN9ShaderLab16FastPropertyNameEN18UnityPropertySheet11UnityTexEnvEEENS_19__map_value_compareIS3_S6_NS_4lessIS3_EELb1EEENS_9allocatorIS6_EEE12__find_equalIS3_EERPNS_16__tree_node_baseIPvEENS_21__tree_const_iteratorIS6_PNS_11__tree_nodeIS6_SG_EEiEESJ_RKT_
g9a:__ZN18StreamedBinaryReadILb0EE21TransferSTLStyleArrayI13dynamic_arrayI8Vector4fLj4EEEEvRT_17TransferMetaFlags
yJe:_Comparer_1_get_Default_m1513846993_gshared
tbf:_EncryptedData_get_EncryptionAlgorithm_m1297902161
Xgi:__ZL67OptionDataList_t1438173104_CustomAttributesCacheGenerator_m_OptionsP21CustomAttributesCache
CA:__ZN8Animator9WriteStepEy
OKe:_Enumerator_VerifyCurrent_m829026141_gshared
b9b:__ZN16PropertyAccessorC2Ev
Z5a:__ZNSt3__23mapIN4core12basic_stringIcNS1_20StringStorageDefaultIcEEEE9PrefValueNS_4lessIS5_EENS_9allocatorINS_4pairIKS5_S6_EEEEEixERSB_
Syb:__Z35Transfer_Blittable_FixedBufferFieldI18StreamedBinaryReadILb1EEaEvRK29SerializationCommandArgumentsR31RuntimeSerializationCommandInfo
x8b:__ZN15DirectorManager22ConstructPlayableGraphEv
Uii:__ZL65Scrollbar_t1494447233_CustomAttributesCacheGenerator_m_HandleRectP21CustomAttributesCache
p6a:__ZN13ScreenManager16SetScreenTimeoutEi
_sb:__Z18Transfer_BlittableI17RemapPPtrTransferLb0EdEvRK29SerializationCommandArgumentsR31RuntimeSerializationCommandInfo
FGh:_Collection_1_ConvertItem_m1743542180_gshared
LNc:__Z38Register_UnityEngine_Font_HasCharacterv
Q2g:__Z68RuntimeInvoker_Boolean_t97287965_Int16_t2552820387_Int16_t2552820387PFvvEPK10MethodInfoPvPS4_
DWb:__Z35IntersectSpherePlaneBoundsOptimizedRKN4math7_float4EPS1_i
anf:_RNGCryptoServiceProvider__cctor_m3587754670
mBe:_InternalEnumerator_1_MoveNext_m1728532725_AdjustorThunk
ryi:_X509Crl_get_IssuerName_m1792797338
huh:_List_1_get_Count_m241572196_gshared
Vuj:__ZN6il2cpp2os5posix15PosixWaitObject13InterruptWaitEv
Bca:__Z22CleanupLODGroupManagerPv
Wnc:__Z21Event_CUSTOM_PopEventP12Il2CppObject
rl:_glUniform3fv
oHj:__ZNK6il2cpp8metadata24Il2CppGenericInstCompareclERK10KeyWrapperIPK17Il2CppGenericInstES8_
$eb:__ZNSt3__218__insertion_sort_3IRN15ResourceManager10Dependency6SorterEPS2_EEvT0_S6_T_
sif:_X509ChainElement_Set_m655180762
uYi:_CustomEventData_AddInt32_m548429697
$tg:_MonoBehaviour_StopCoroutine_m615723318
iwg:_Quaternion_GetHashCode_m2636680144
rRb:__ZNK16LightmapSettings31GetRealtimeLightmapDecodeValuesEv
WK:__ZN5audio5mixer12SetSuspendedERNS0_16AudioMixerMemoryEb
Vib:__ZN17PersistentManager21UnloadNonDirtyStreamsEv
mYf:_UnicodeDecoder__ctor_m3606046165
lMg:__Z96RuntimeInvoker_Int32_t2950945753_RuntimeObject_Int32_t2950945753_RuntimeObject_Int32_t2950945753PFvvEPK10MethodInfoPvPS4_
JJi:_AnalyticsEventTracker_OnEnable_m1121905268
rEi:_Uri_get_Parser_m3737125102
wVi:_Canvas_get_overrideSorting_m2740418462
Bog:_Debug_LogFormat_m309087137
u$f:_Scheduler__ctor_m3313141270
n9a:__ZN12ImageFilters4BlitER17ShaderPassContextP7TextureP13RenderTextureiPK18SharedMaterialDataPKcP6ShaderiNS_9BlitFlagsE11CubemapFaceRK8Vector2fSH_
gvf:_String_LastIndexOf_m3451222878
fzi:_Mark_get_Index_m3048692661
yki:__ZL69CanvasScaler_t2767979955_CustomAttributesCacheGenerator_m_ScaleFactorP21CustomAttributesCache
i7f:_Dictionary_2_ToTValue_m692436965_gshared
lT:__ZN11UnityEngine15CloudWebService10RestClientINS0_23WebRequestRestHeaderMapEED2Ev
Xkh:_U3CCreateWhereIteratorU3Ec__Iterator1D_1__ctor_m1723214851_gshared
Nl:_emscripten_glDepthMask
Pke:_RemotingServices_CreateClientProxy_m3886727610
Txa:__ZN4crnd25static_huffman_data_model22prepare_decoder_tablesEv
O3a:__ZN9Texture2D23VirtualRedirectTransferER17RemapPPtrTransfer
zlg:_AssetBundleRequest_t699759206_marshal_pinvoke
dbg:_DefaultComparer__ctor_m1292755885_gshared
hie:_RecordProtocol_GetMessage_m2086135164
Vmc:__Z23GUIStatePopDisplayIndexv
$Ab:__Z18Transfer_BlittableI18StreamedBinaryReadILb0EELb0E10ColorRGBAfEvRK29SerializationCommandArgumentsR31RuntimeSerializationCommandInfo
hda:__Znaj
wVj:_emscripten_glEnableClientState__wrapper
d8h:__ZL60PlayableBehaviour_t4203540982_CustomAttributesCacheGeneratorP21CustomAttributesCache
R9:__ZN17MessageIdentifierC2EPKcNS_7OptionsEPKN5Unity4TypeES1_
kFg:__Z45RuntimeInvoker_Void_t1185182177_RuntimeObjectPFvvEPK10MethodInfoPvPS4_
T7a:__ZN13dynamic_arrayI4PPtrI6SpriteELj4EE9push_backERKS2_
Ttg:_Mesh_SetTriangles_m1523451247
jtf:_Single_System_IConvertible_ToSByte_m1208276900
koi:_Array_InternalArray__set_Item_TisVector4_t3319028937_m757305038_gshared
fSa:__ZN11GameManager15ThreadedCleanupEv
EKg:__Z105RuntimeInvoker_Void_t1185182177_RuntimeObject_RuntimeObject_RuntimeObject_RuntimeObject_Int32_t2950945753PFvvEPK10MethodInfoPvPS4_
FRe:_ValueCollection_System_Collections_Generic_ICollectionU3CTValueU3E_Add_m3298059628_gshared
FFg:__Z64RuntimeInvoker_RuntimeObject_Int16_t2552820387_Int16_t2552820387PFvvEPK10MethodInfoPvPS4_
BQ:__Z55Register_UnityEngine_AudioSource_get_spatializeInternalv
nni:__ZL71TrackableTrigger_t621205209_CustomAttributesCacheGenerator_m_MethodPathP21CustomAttributesCache
hLa:__ZN14SafeBinaryRead8TransferI14ConstantStringEEvRT_PKc17TransferMetaFlags
XLb:__ZNK6Camera16GetStereoEnabledEv
E$h:__ZL90HttpWebRequest_t1669436515_CustomAttributesCacheGenerator_HttpWebRequest__ctor_m1789065007P21CustomAttributesCache
mPg:__Z72RuntimeInvoker_Int32_t2950945753_TimeSpan_t881159249_TimeSpan_t881159249PFvvEPK10MethodInfoPvPS4_
Iie:_SendRecordAsyncResult_SetComplete_m153213906
Mna:__ZL24FindBelongingStructParamRPKcRNSt3__26vectorIN9ShaderLab20SerializedSubProgram14ConstantBufferENS2_9allocatorIS6_EEEE
A5b:__ZN12LightManager15InitializeClassEv
H$f:_WaitHandle__cctor_m4242752477
l$a:__ZN9ShaderLab11shaderprops16GetComputeBufferEPK19ShaderPropertySheetS3_NS_16FastPropertyNameE
rzj:__ZN6il2cpp6icalls8mscorlib6System10Reflection10MethodBase31GetMethodFromHandleInternalTypeEii
Q_:__ZN18ScriptingArgumentsC2Ev
vmg:_Vector3_op_Equality_m4231250055
q7f:_Dictionary_2_System_Collections_IDictionary_get_Item_m1524611028_gshared
$Sj:_emscripten_glBlendFuncSeparate__wrapper
Rai:__ZL68GUISettings_t1774757634_CustomAttributesCacheGenerator_m_CursorColorP21CustomAttributesCache
lMd:_FileSystemInfo__ctor_m3769019897
fti:_Array_InternalArray__get_Item_TisContentType_t1787303396_m421427711_gshared
jxg:_Rect_get_xMin_m581135837_AdjustorThunk
Wua:__Z17HasSampledTexture14GraphicsFormat13formatSupport
kNb:__ZNK25CameraStackRenderingState27GetStereoImageEffectTextureEb
Nkd:_HMACSHA384__ctor_m1677515580
Ymf:_RIPEMD160Managed_J_m1336489154
yp:__ZN8Vector3f8TransferI14SafeBinaryReadEEvRT_
k5i:__ZN6il2cpp6icalls6System6System3Net7Sockets6Socket7ReceiveEiP11Il2CppArrayiiNS4_11SocketFlagsEPi
Bo:FUNCTION_TABLE_ii
_Ra:__ZN10TagManager8TransferI18StreamedBinaryReadILb0EEEEvRT_
D6g:_Collection_1_System_Collections_IList_get_IsReadOnly_m2202364665_gshared
vrc:__Z18Transfer_BlittableI9JSONWriteLb0E8BitFieldEvRK29SerializationCommandArgumentsR31RuntimeSerializationCommandInfo
kOd:_MemoryStream_set_Capacity_m1773624579
Zjj:__ZNK15dense_hashtableINSt3__24pairIK10KeyWrapperINS1_IP11Il2CppClassjEEES4_EES6_N6il2cpp8metadata14ArrayClassHashEN14dense_hash_mapIS6_S4_SB_NS6_14EqualsComparerINSA_17ArrayClassCompareEEENS0_9allocatorIS8_EEE9SelectKeyESF_SH_E10test_emptyEj
r3e:_SpriteState_set_pressedSprite_m3368686500_AdjustorThunk
Wia:__ZNSt3__26vectorIN9ShaderLab20SerializedSubProgram15StructParameterENS_9allocatorIS3_EEE8__appendEj
vb:invoke_diiii
GRj:b47
pKi:_EventTrigger_set_initTime_m3128947762
rRg:__Z95RuntimeInvoker_Void_t1185182177_RuntimeObject_RuntimeObject_SByte_t1669577662_SByte_t1669577662PFvvEPK10MethodInfoPvPS4_
GMa:__Z24CreateDirectoryRecursiveRKN4core12basic_stringIcNS_20StringStorageDefaultIcEEEE
sRj:b41
qla:__ZN9ShaderLab20SerializedSubProgram8TransferI18StreamedBinaryReadILb0EEEEvRT_
zje:_SslClientStream_get_HaveRemoteValidation2Callback_m2858953511
rRj:b40
mga:__ZN19ThreadSpecificValueIP14StackAllocatorE15ReinitializeTLSEPv
kVb:__Z9EndJobSetR8JobFence11JobPriority
c6h:__ZL54ContextMenu_t1295656858_CustomAttributesCacheGeneratorP21CustomAttributesCache
r9:__ZN13RuntimeStaticI21ScalableBufferManagerLb0EE13StaticDestroyEPv
rOc:__ZN2UI13CanvasManager9AddCanvasEPNS_6CanvasE
e9a:__ZN9Texture3D8TransferI19StreamedBinaryWriteILb0EEEEvRT_
PNb:__ZNK6Camera22CalculateRenderingPathEv
vEd:_Convert_ToInt64_m3758262873
jpd:_Hashtable_TestPrime_m3839319309
lC:__ZN11UnityEngine9Animation37SetGenericRootTransformPropertyValuesERKNS0_30AnimatorGenericBindingConstantERKN7mecanim10ValueArrayER9Transformbb
eEa:__Z13ConvertMipmap14GraphicsFormatPKvS_Pviiii
R1c:_BaseRaycaster_get_renderOrderPriority_m1110184610
Qbf:_PKCS12_get_IterationCount_m626423090
dtb:__ZL12InvokeMethodI17RemapPPtrTransferEvRK29SerializationCommandArgumentsR31RuntimeSerializationCommandInfo
$df:_RemoteCertificateValidationCallback_Invoke_m3086073466
gwf:_StringComparer_Compare_m991165676
BEc:_tt_sbit_decoder_load_image
oye:_InternalEnumerator_1_MoveNext_m3299696349_AdjustorThunk
WAh:_List_1_System_Collections_ICollection_get_IsSynchronized_m1552759297_gshared
Fkj:__ZN15dense_hashtableINSt3__24pairIK10KeyWrapperIP11Il2CppClassES4_EES5_N6il2cpp8metadata16SZArrayClassHashEN14dense_hash_mapIS5_S4_SA_NS5_14EqualsComparerINS9_19SZArrayClassCompareEEENS0_9allocatorIS7_EEE9SelectKeyESE_SG_EC2EjRKSA_RKSE_RKSI_
pSi:_U3CStartU3Ec__Iterator0_Dispose_m261027331_gshared
dFa:__ZN4core8hash_mapIPK17RenderSurfaceBaseP13RenderTexture19PointerHashFunctionIS3_ENSt3__28equal_toIS3_EEE6insertERKNS8_4pairIKS3_S5_EE
Pmc:__ZNSt3__24listIN10GUIManager12SortedScriptE11memory_poolIS2_EE6__sortI13OldSortScriptEENS_15__list_iteratorIS2_PvEESA_SA_jRT_
jfg:_EqualityComparer_1_System_Collections_IEqualityComparer_GetHashCode_m2588073987_gshared
Bvh:_List_1_AddEnumerable_m3500350831_gshared
i4i:__ZN24dense_hashtable_iteratorINSt3__24pairIK10KeyWrapperIPK11Il2CppClassEPKcEES6_N6il2cpp5utils11PointerHashIS3_EEN14dense_hash_mapIS6_S9_SE_NS6_14EqualsComparerINS0_8equal_toIS5_EEEENS0_9allocatorISA_EEE9SelectKeyESJ_SL_E30advance_past_empty_and_deletedEv
gce:_PrivateKeyInfo_get_PrivateKey_m3647771102
QXc:__ZN18UnityConnectClient12CloseServiceEv
Isb:__Z18Transfer_BlittableI17RemapPPtrTransferLb1E8BitFieldEvRK29SerializationCommandArgumentsR31RuntimeSerializationCommandInfo
Wmj:__ZN6il2cpp6icalls8mscorlib6System9ThreadingL11ThreadStartEPv
$ea:__ZN15DirectorManager12OnSampleTimeEv
K0d:_TypeBuilder_check_not_created_m3652863637
Q5c:_StandaloneInputModule_UpdateModule_m450861257
qTi:_Font_add_textureRebuilt_m2164317336
Cih:_ReadOnlyCollection_1_System_Collections_IList_Insert_m2928873627_gshared
kL:__ZNK4PPtrI10AudioMixerEptEv
Beg:_EqualityComparer_1__cctor_m314889309_gshared
n6:__ZN12CachedReader10Align4ReadEv
Lbg:_DefaultComparer_GetHashCode_m556015105_gshared
dxi:_X501__cctor_m2428304915
vVi:_Canvas_get_renderOrder_m1489855841
cGg:__Z50RuntimeInvoker_Void_t1185182177_Single_t1397266774PFvvEPK10MethodInfoPvPS4_
jei:__ZL77ExecuteEvents_t3484638744_CustomAttributesCacheGenerator_U3CU3Ef__mgU24cache1P21CustomAttributesCache
KFi:_Event_ToString_m1688862299
nQg:__Z70RuntimeInvoker_Boolean_t97287965_RuntimeObject_IPAddressU26_t589322682PFvvEPK10MethodInfoPvPS4_
eVg:__Z105RuntimeInvoker_Void_t1185182177_Vector2U26_t2376273893_RuntimeObject_RuntimeObject_Vector2U26_t2376273893PFvvEPK10MethodInfoPvPS4_
iKa:__ZNK9Behaviour22GetTypeVirtualInternalEv
NHf:_CCGregorianCalendar_month_from_fixed_m4268992710
VPf:_Array_compare_TisUICharInfo_t75501106_m1310495481_gshared
F3b:__ZNK28MonoBehaviourPropertyBinding12SetPPtrValueERKN11UnityEngine9Animation10BoundCurveEi
nXb:__Z21GetScriptingArraySize17ScriptingArrayPtr
PJc:__ZN20TextRenderingPrivate8FontImpl8TransferI14SafeBinaryReadEEvRT_
QNg:__Z51RuntimeInvoker_UInt32_t2560061978_Double_t594665363PFvvEPK10MethodInfoPvPS4_
RMh:__ZL55ISymbolWriter_t780458634_CustomAttributesCacheGeneratorP21CustomAttributesCache
Fnc:__ZN11IMGUIModule21ClearDeveloperConsoleEv
G8h:__ZL81MessageTypeSubscribers_t1684935770_CustomAttributesCacheGenerator_m_messageTypeIdP21CustomAttributesCache
vQi:__ZL25UnresolvedVirtualCall_148P12Il2CppObject22ColorBlock_t2139031574S1_PK10MethodInfo
Rgh:_ReadOnlyCollection_1_System_Collections_IList_Clear_m4022532825_gshared
yWf:_Encoding_get_ASCII_m3595602635
zwg:_Ray_get_direction_m761601601_AdjustorThunk
Lra:__ZN9GfxDevice17ImmediateTexCoordEifff
eJc:_ft_black_new
zZd:_DerivedType_GetCustomAttributes_m3536779709
oWh:__ZL93Interlocked_t2273387594_CustomAttributesCacheGenerator_Interlocked_CompareExchange_m388540288P21CustomAttributesCache
M1d:_MethodBase_get_IsAbstract_m428833029
Ird:_AssemblyLoadEventHandler__ctor_m896828968
Gtb:__Z35Transfer_Blittable_FixedBufferFieldI24GenerateTypeTreeTransferhEvRK29SerializationCommandArgumentsR31RuntimeSerializationCommandInfo
UQj:_emscripten_glUniform4f__wrapper
Yuh:_List_1_Reverse_m4144036584_gshared
fqh:_Enumerator_MoveNext_m2595190390_AdjustorThunk
sRf:_Array_InternalArray__IndexOf_TisColor32_t2600501292_m3783551884_gshared
uY:__ZNK6Camera16GetProjectionFarEv
Tq:__Z24InverseTransformRotationRK23TransformAccessReadOnlyRKN4math7_float4E
dyi:_X509Chain_Build_m2469702749
nrf:_Evidence_get_IsSynchronized_m3446368195
$L:__ZN11AudioSource6UpdateEv
DPe:_Transform_1_EndInvoke_m1204015506_gshared
E_c:__Z31GetPerformanceReportingSettingsv
o1a:__ZNK14PlayableOutput11DerivesFromE17ScriptingClassPtr
B2a:__ZN7Texture34CreateFileTextureUploadInstructionE18TextureUploadFlagsj
C8e:_BitConverterLE_ULongFromBytes_m1677445591
cXa:__ZThn280_N31CanvasBatchIntermediateRenderer20OnAssetBoundsChangedEv
I0d:_TypeBuilder_DefineConstructor_m2989882735
lPa:__ZN25SingleBlockMemoryFileDataC2E10MemLabelIdPvjb
Qbi:__ZL59GUISkin_t1244372282_CustomAttributesCacheGenerator_m_toggleP21CustomAttributesCache
k3b:__ZN19LowerResBlitTexture13ApplySettingsEv
sKc:__ZN18StreamedBinaryReadILb0EE21TransferSTLStyleArrayI10vector_mapINSt3__24pairIttEEfN20TextRenderingPrivate8FontImpl14KerningCompareENS3_9allocatorINS4_IS5_fEEEEEEEvRT_17TransferMetaFlags
pkj:__ZN15dense_hashtableINSt3__24pairIK10KeyWrapperIP11Il2CppClassES4_EES5_N6il2cpp8metadata16SZArrayClassHashEN14dense_hash_mapIS5_S4_SA_NS5_14EqualsComparerINS9_19SZArrayClassCompareEEENS0_9allocatorIS7_EEE9SelectKeyESE_SG_E4swapERSJ_
wQa:__ZN17GlobalGameManager23VirtualRedirectTransferER18StreamedBinaryReadILb0EE
aWb:__ZN27IntermediateRendererManager24GetIntermediateRenderersEi
I1:__Z23AsyncReadForceCloseFileRKN4core12basic_stringIcNS_20StringStorageDefaultIcEEEE
_t:__ZN17AnimationPlayable34CollectAnimatorControllerPlayablesER13dynamic_arrayIP26AnimatorControllerPlayableLj4EE
M8h:__ZL120RenderPipelineManager_t4036911426_CustomAttributesCacheGenerator_RenderPipelineManager_DoRenderLoop_Internal_m3799666479P21CustomAttributesCache
VO:__ZN16BaseVideoTexture19UpdateVideoTexturesEv
i4d:_MonoField_GetValue_m3124733531
kWa:__Z28BuildSingleStreamChannelInfo17ShaderChannelMaskRK20VertexChannelsLayoutS_S2_P11ChannelInfo
iPf:_Array_InternalArray__IEnumerable_GetEnumerator_TisOrderBlock_t1585977831_m2414028303_gshared
ofe:_Context_set_HandshakeState_m1329976135
K6a:__ZN6Sprite23VirtualRedirectTransferER19StreamedBinaryWriteILb0EE
OGf:_Enum_GetHashCode_m2848082716
B2c:_EventTrigger_Execute_m2453060771
Kjh:_Comparison_1_Invoke_m517083441_gshared
EMg:__Z253RuntimeInvoker_Int32_t2950945753_RuntimeObject_Int32_t2950945753_Int32_t2950945753_RuntimeObject_Int32_t2950945753_UInt32U26_t3735378166_UInt32U26_t3735378166_RuntimeObject_DecoderFallbackBufferU26_t3866396827_ByteU5BU5DU26_t4057885439_SByte_t1669577662PFvvEPK10MethodInfoPvPS4_
Zbj:__ZNK15dense_hashtableINSt3__24pairIK10KeyWrapperINS1_IPK9FieldInfoP11Il2CppClassEEEjEES9_17ReflectionMapHashIS8_EN14dense_hash_mapIS9_jSD_NS9_14EqualsComparerINS0_8equal_toIS8_EEEENS0_9allocatorISB_EEE9SelectKeyESI_SK_E5beginEv
Zna:__ZNK9ShaderLab7Program19HasMatchingVariantsERK13dynamic_arrayI16ShaderKeywordSetLj4EE
Neh:_ReadOnlyCollection_1_System_Collections_IList_get_IsFixedSize_m3402868227_gshared
pB:__ZN15SerializeTraitsIN4math4trsXEE8TransferI8BlobSizeEEvRS1_RT_
Fva:__ZN14DataBufferGLES11CopySubDataEPKS_jjj
ie:_emscripten_glVertexPointer
tQc:__ZN2UI13PrepareOutputERNS_7BatchesEjjNS_30AdditionalCanvasShaderChannelsE
$7i:__ZN6il2cpp2vm7Runtime47RaiseExecutionEngineExceptionIfMethodIsNotFoundEPK10MethodInfo
Nzi:_PatternCompiler_GetMachineFactory_m3758869886
jTb:__Z17GetFrustumPortionPK8Vector3fffPS_
J5h:__ZL105RectTransform_t3704657025_CustomAttributesCacheGenerator_RectTransform_INTERNAL_get_anchorMin_m1735215721P21CustomAttributesCache
Gpj:__ZN15dense_hashtableINSt3__24pairIK10KeyWrapperIP14Il2CppIUnknownEjEES5_N6il2cpp5utils11PointerHashIS3_EEN14dense_hash_mapIS5_jSB_NS5_14EqualsComparerINS0_8equal_toIS4_EEEENS0_9allocatorIS7_EEE9SelectKeyESG_SI_E14squash_deletedEv
S2c:_EventTrigger_OnCancel_m585099428
gVh:__ZL107CodeAccessPermission_t2681295399_CustomAttributesCacheGenerator_CodeAccessPermission_GetHashCode_m880096813P21CustomAttributesCache
WGi:_GUILayoutEntry_ApplyOptions_m1741659338
Gpe:_MethodDictionary_set_MethodKeys_m1451825752
qhd:_RuntimeTypeHandle_Equals_m2857439487_AdjustorThunk
B6g:_Collection_1_System_Collections_ICollection_get_SyncRoot_m1659213062_gshared
Cpa:__ZNK9GfxDevice27GetPlatformAdjustedViewportEv
Ydh:_ReadOnlyCollection_1_System_Collections_Generic_IListU3CTU3E_set_Item_m88350439_gshared
GKi:_StandardEventPayload_IsRequiredDataValid_m361738930
Ukh:_Func_3_Invoke_m1194147890_gshared
wCi:_Reference_Compile_m4195878675
WUi:_InputBuffer_remove_onCommandSent_m3139499669
kgh:_ReadOnlyCollection_1_System_Collections_ICollection_CopyTo_m2672196987_gshared
f9b:__ZN16StreamedResource8TransferI24GenerateTypeTreeTransferEEvRT_
byg:_RectTransform_get_anchorMin_m2928307238
dwd:_ArrayList__ctor_m3828927650
Nta:__ZThn9568_N13GfxDeviceGLES26EnableScissorRectsPlatformEv
OGa:__ZN10Matrix3x3f15InvertTransposeEv
gHi:_GUILayoutGroup_SetHorizontal_m996475327
psf:_SecurityException_get_Demanded_m2500043391
ZGi:_GUILayoutEntry__cctor_m663865902
xkf:_CaptureCollection_GetEnumerator_m732412500
rLb:__Z11IsBatchmodev
Hjg:_Enumerator_System_Collections_IEnumerator_get_Current_m713684915_gshared
Frb:__Z29Transfer_Blittable_ArrayFieldI14SafeBinaryRead8Vector3fEvRT_R9ArrayInfoRK23StaticTransferFieldInfo
j2d:_MemberInfo__ctor_m3258770133
fTh:__ZL62IFormatterConverter_t2171992254_CustomAttributesCacheGeneratorP21CustomAttributesCache
aYh:__ZL78Convert_t2465617642_CustomAttributesCacheGenerator_Convert_ToSByte_m4075629912P21CustomAttributesCache
$re:_SoapTypeAttribute_get_XmlTypeNamespace_m4211398148
EKc:__ZN20TextRenderingPrivate8FontImpl18ResetCachedTextureEv
D6i:__ZN6il2cpp6icalls8mscorlib6SystemL16GetFieldFromTypeINS_5utils10functional6FilterINSt3__212basic_stringIcNS7_11char_traitsIcEENS7_9allocatorIcEEEENS4_13VmStringUtils21CaseSensitiveComparerEEEEEP21Il2CppReflectionFieldP11Il2CppClassSK_iRKT_
Skc:__Z27Screen_Get_Custom_PropWidthv
cCj:_GC_print_finalization_stats
gOe:_KeyCollection_System_Collections_ICollection_get_IsSynchronized_m2596089789_gshared
qoa:__ZN11NamedObject15ThreadedCleanupEv
NHi:_GUITargetAttribute_GetGUITargetAttrValue_m2954410352
bfc:__Z53Register_UnityEngine_Behaviour_get_isActiveAndEnabledv
zrd:_SimpleEnumerator_get_Current_m72361444
nq:__ZNSt3__26vectorIN4core12basic_stringIcNS1_20StringStorageDefaultIcEEEENS_9allocatorIS5_EEE8__appendEj
iP:__ZN13ProduceHelperI10SampleClipLb0EE7ProduceE10MemLabelId18ObjectCreationMode
oeb:__ZN26PlayerSettingsSplashScreen8TransferI17RemapPPtrTransferEEvRT_
m8e:_ASN1_set_Value_m2803403806
K6i:__ZN6il2cpp6icalls8mscorlib6SystemL17CollectTypeFieldsINS_5utils10functional10TrueFilterEEEvP11Il2CppClassPKS7_iRNSt3__26vectorIP9FieldInfoNSB_9allocatorISE_EEEERKT_
BGg:__Z52RuntimeInvoker_Int16_t2552820387_Decimal_t2948259380PFvvEPK10MethodInfoPvPS4_
N1b:__Z13GetTagManagerv
cpd:_Hashtable__ctor_m1815022027
tZf:_UTF8Encoding_GetChars_m1433288684
MXi:__ZL10roundUp128PyS_
uR:__ZN11UnityEngine15CloudWebService17CloudJobSchedulerD0Ev
MEg:__Z50RuntimeInvoker_Boolean_t97287965_SByte_t1669577662PFvvEPK10MethodInfoPvPS4_
Mve:_ArrayReadOnlyList_1_Contains_m381552673_gshared
d_g:__Z105RuntimeInvoker_Int32_t2950945753_RuntimeObject_OrderBlock_t1585977831_Int32_t2950945753_Int32_t2950945753PFvvEPK10MethodInfoPvPS4_
b1f:_TimeZone_ToUniversalTime_m2789507578
_Fg:__Z96RuntimeInvoker_Boolean_t97287965_RuntimeObject_RuntimeObject_Int32_t2950945753_Int32_t2950945753PFvvEPK10MethodInfoPvPS4_
wQf:_Array_IndexOf_TisUICharInfo_t75501106_m3198896198_gshared
POc:__ZNK2UI11CanvasGroup22GetTypeVirtualInternalEv
Age:_Context_get_Current_m2853615040
kJf:_CultureInfo_construct_internal_locale_from_lcid_m2668301444
fVi:_Keyboard_WarnIfTerminalNotConneced_m1063217717
R7e:_PrimeGeneratorBase__ctor_m2973488305
hnc:__Z21CleanupGlobalGUIStatev
f2f:_Type_IsContextfulImpl_m3693603908
GJh:__ZL81RuntimeArray_CustomAttributesCacheGenerator_Array_GetValue_m120423883____indices0P21CustomAttributesCache
Bai:__ZL79Event_t2956885303_CustomAttributesCacheGenerator_Event_get_modifiers_m995073384P21CustomAttributesCache
zkg:_Enumerator_VerifyState_m2873941769_gshared
UAb:__Z18Transfer_BlittableI18StreamedBinaryReadILb0EELb1EN4math12int3_storageEEvRK29SerializationCommandArgumentsR31RuntimeSerializationCommandInfo
LDg:__Z56RuntimeInvoker_RuntimeObject_RuntimeObject_RuntimeObjectPFvvEPK10MethodInfoPvPS4_
lIa:__ZN22VertexDeclarationCache5ClearEv
Yid:_CspParameters__ctor_m3852972821
opd:_AppDomainInitializer_EndInvoke_m2095010821
o_b:__ZN17PersistentManager12SetPathRemapERKN4core12basic_stringIcNS0_20StringStorageDefaultIcEEEES6_
Dw:__Z27ProcessRootMotionEmptyMixerP35AnimationPlayableEvaluationConstantP32AnimationPlayableEvaluationInputP33AnimationPlayableEvaluationOutput
MUb:__ZN6Camera24PrepareCullingParametersERK23CameraCullingParameters13RenderingPathR11CullResults
Abc:__Z12SetIUISystemP9IUISystem
Hgb:__ZN19RuntimeSceneManager22EndIntegrateMainThreadEP10UnitySceneNS_11LoadingModeE
Wpi:_Array_Sort_TisUICharInfo_t75501106_m3474449559_gshared
rug:__ZN21InterfaceFuncInvoker0IP34MessageTypeSubscribers_t1684935770E6InvokeEjP11Il2CppClassP12Il2CppObject
ftb:__Z26Transfer_UnityEngineObjectI17RemapPPtrTransferLb0EEvRK29SerializationCommandArgumentsR31RuntimeSerializationCommandInfo
zkb:__ZN17WeakPtrSharedDataD0Ev
KAi:_QuickSearch_GetShiftDistance_m2542665852
V9a:__Z32TransferEnumWithNameForceIntSizeI14SafeBinaryRead11IndexFormatEvRT_RT0_PKc17TransferMetaFlags
Gsi:_Array_InternalArray__get_Item_TisCustomAttributeTypedArgument_t2723150157_m2639399822_gshared
D6e:_BigInteger_GenerateRandom_m3141592944
Avb:__Z29Transfer_Blittable_ArrayFieldI24GenerateTypeTreeTransfer4AABBEvRT_R9ArrayInfoRK23StaticTransferFieldInfo
gmf:_Interval_Contains_m1454846757
hdd:_Graphic_CacheCanvas_m1120385152
hHe:_InternalEnumerator_1_MoveNext_m1262906009_gshared
ccd:_U3CDelayedDestroyDropdownListU3Ec__Iterator0_Dispose_m100123149
UIj:_emscripten_GetProcAddress
Brh:_List_1_System_Collections_Generic_IEnumerableU3CTU3E_GetEnumerator_m944444416_gshared
Ca:invoke_fiiifii
oKj:_modff
JYa:__ZN20SphericalHarmonicsL219AddDirectionalLightERKN4math7_float3ERKNS0_7_float4E
Bjf:_X509ChainElementCollection_get_IsSynchronized_m3980338507
Sea:__Z26ScheduleJobForEachInternalR8JobFencePFvPvjES1_iPFvS1_E11JobPriority
cLb:__ZZ23InitPlayerLoopCallbacksvEN41PostLateUpdateProfilerEndFrameRegistrator7ForwardEv
Ubc:__ZN9Scripting18RaiseMonoExceptionEPKcz
pOc:__ZN2UI13UIInstruction19ClearSharedMeshDataER8JobFence
V7b:__ZN10GameObject17WillHandleMessageERK17MessageIdentifier
drf:_StrongNamePublicKeyBlob_Equals_m3655422942
asf:_SecurityContext__ctor_m1730177197
GWi:_RectTransformUtility_GetTransposed_m3952754222
Z5b:__ZN9ShaderLab16FastPropertyName15InitBy28BitHashEj
E_i:__ZN6il2cpp2vm5Class7GetNameEP11Il2CppClass
Buh:_List_1_System_Collections_IList_set_Item_m4182383657_gshared
Vdg:_EqualityComparer_1_System_Collections_IEqualityComparer_GetHashCode_m3723747923_gshared
Yoi:_Array_Resize_TisOrderBlock_t1585977831_m3449774576_gshared
gJg:__Z96RuntimeInvoker_Void_t1185182177_Int32_t2950945753_Single_t1397266774_RuntimeObject_RuntimeObjectPFvvEPK10MethodInfoPvPS4_
Bch:_ReadOnlyCollection_1_CopyTo_m3722791265_gshared
q_g:__Z59RuntimeInvoker_Int32_t2950945753_KeyValuePair_2_t3699644050PFvvEPK10MethodInfoPvPS4_
YJe:_Enumerator_System_Collections_IDictionaryEnumerator_get_Key_m195047678_AdjustorThunk
lAf:_DateTimeFormatInfo_get_RawAbbreviatedMonthNames_m2395953416
uVi:_Canvas_get_pixelPerfect_m333060872
eab:__ZN17PackedFloatVector12UnpackFloatsEPfiiii
Y1d:_TypeBuilder_ToString_m3497908325
Iz:__ZN17AnimationPlayable28UpdateInternalStateRecursiveILi3ELb0EEEvPK35AnimationPlayableEvaluationConstant
Lsa:__ZN13GfxDeviceGLES21DestroyComputeProgramER12ObjectHandleI18ComputeProgram_TagPvE
hAi:_PatternCompiler_EmitIfDefined_m2075050865
pCf:_Decimal_System_IConvertible_ToInt64_m1446427516_AdjustorThunk
Fca:__ZN17UniqueIDGenerator16DestroyPureIndexEj
mUd:_NotImplementedException__ctor_m3095902440
c0:__ZL21AppendNestedClassName17ScriptingClassPtrRN4core17string_with_labelILi1EEE
Dia:__ZN14SafeBinaryRead21TransferSTLStyleArrayINSt3__26vectorIN9ShaderLab20SerializedSubProgram12UAVParameterENS1_9allocatorIS5_EEEEEEvRT_17TransferMetaFlags
tTi:_FontTextureRebuildCallback_Invoke_m3604797831
Fta:__ZN13GfxDeviceGLES32InitStereoGlobalsBuffersPlatformEiijPKv
$V:__ZNK13BaseAllocator10IsAssignedEv
DS:__ZN24TextDOMTransferWriteBaseI9JSONWriteE12PushMetaFlagEi
pRh:__ZL59_PropertyBuilder_t1366136710_CustomAttributesCacheGeneratorP21CustomAttributesCache
yE:__ZZN8Animator15InitializeClassEvEN31FunctorImpl_420kDidDeleteMotion4CallEPviR11MessageData
qBa:__ZN6prcoreL26RemapGenericIntegerToFloatI17TexFormatARGB888815TexFormatRFloatEEvPKNS_9InnerInfoE
oW:__ZN5Mutex6UnlockEv
c6i:__ZN6il2cpp2vm10ThreadPool10InitializeEv
Xxh:_List_1__ctor_m808270210_gshared
Y9i:__ZN6il2cpp2vm17TypeNameParseInfoD2Ev
phg:_PrimeHelper_ToPrime_m3704362632_gshared
aJ:__ZN4FMOD7Channel7setModeEj
ZBf:_Decimal_System_IConvertible_ToType_m2919262279
wCg:_Vector2_get_right_m1027081661
DX:__ZNK8Renderer8GetLayerEv
hPd:_Stream_Close_m771352034
THe:__ZN21InterfaceFuncInvoker1Ii19TimeSpan_t881159249E6InvokeEjP11Il2CppClassP12Il2CppObjectS0_
Jy:__ZN7mecanim9animation22DestroyBlendTreeOutputEPNS0_15BlendTreeOutputERNS_6memory9AllocatorE
wPb:__ZNK6Camera20GetReplacementShaderEv
UAh:_List_1_System_Collections_IList_Remove_m4226673807_gshared
qGj:__ZNSt3__26__treeINS_12__value_typeINS_12basic_stringIcNS_11char_traitsIcEENS_9allocatorIcEEEEPFvvEEENS_19__map_value_compareIS7_SA_NS_4lessIS7_EELb1EEENS5_ISA_EEE4findIS7_EENS_15__tree_iteratorISA_PNS_11__tree_nodeISA_PvEEiEERKT_
Fya:__ZL23stbir__calculate_memoryP11stbir__info
zNe:_KeyCollection_System_Collections_Generic_ICollectionU3CTKeyU3E_Clear_m1261840136_gshared
tdj:__ZNK15dense_hashtableINSt3__24pairIK10KeyWrapperINS1_IPK10MethodInfoP11Il2CppClassEEEjEES9_17ReflectionMapHashIS8_EN14dense_hash_mapIS9_jSD_NS9_14EqualsComparerINS0_8equal_toIS8_EEEENS0_9allocatorISB_EEE9SelectKeyESI_SK_E12test_deletedERK24dense_hashtable_iteratorISB_S9_SD_SM_SI_SK_E
qlf:_Interpreter_Close_m126356671
E4g:_Collection_1_InsertItem_m168969280_gshared
HOc:__ZNSt3__227__insertion_sort_incompleteIRPFbPN2UI6CanvasES3_EPS3_EEbT0_S8_T_
z9a:__ZNK6Camera18GetRenderRectangleEv
S2i:__ZN6il2cpp5utils13dynamic_arrayIPK10Il2CppTypeLj4EE7reserveEj
V7a:__ZN13sorted_vectorIN4core12basic_stringIcNS0_20StringStorageDefaultIcEEEENSt3__24lessIS4_EE13stl_allocatorIS4_L18MemLabelIdentifier81ELi16EEE4findIS4_EENS5_11__wrap_iterIPS4_EERKT_
aBi:_Parser_HandleExplicitNumericGroups_m1412234891
dti:_Array_InternalArray__get_Item_TisRaycastHit2D_t2279581989_m2440275162_gshared
EXd:_CustomAttributeNamedArgument_Equals_m1414002036
ouc:__ZL26Transfer_SimpleNativeClassI8JSONRead10RectOffsetLb1EEvRK29SerializationCommandArgumentsR31RuntimeSerializationCommandInfo
ysg:_Material_SetInt_m475299667
_Rc:__Z44CanvasRenderer_CUSTOM_INTERNAL_CALL_SetColorP12Il2CppObjectRK10ColorRGBAf
Dqh:_List_1__ctor_m3376109328_gshared
O_d:_FieldBuilder_GetFieldOffset_m725157755
qRe:_Enumerator_MoveNext_m3045873697_AdjustorThunk
Wig:_Enumerator_System_Collections_IEnumerator_Reset_m959124362_AdjustorThunk
AGf:_Enum_ToObject_m121831801
k1h:__ZL57AsyncOperation_t1445031843_CustomAttributesCacheGeneratorP21CustomAttributesCache
wfd:_Image_get_hasBorder_m3423344180
drc:__Z18Transfer_BlittableI9JSONWriteLb1EsEvRK29SerializationCommandArgumentsR31RuntimeSerializationCommandInfo
vVc:__Z48UnityAnalyticsHandler_CUSTOM_SendCustomEventNameP12Il2CppObjectP12Il2CppString
u2:__ZN6ObjectD2Ev
Ccc:__ZN9Transform16SetLocalRotationERK11Quaternionf
Dcd:_FontData_set_richText_m993590067
c1h:__ZL90Application_t1852185770_CustomAttributesCacheGenerator_Application_get_isEditor_m857789090P21CustomAttributesCache
NLb:__ZN13RenderManager37RenderCamerasWithScriptableRenderLoopEi
chd:_RuntimeMethodHandle__ctor_m2229201676
T$f:_TimeSpan__ctor_m3689759052
YHh:__ZL49UInt16_t2177724958_CustomAttributesCacheGeneratorP21CustomAttributesCache
yB:__ZN7mecanim8skeleton25SkeletonPoseComputeLocalQEPKNS0_8SkeletonEPKNS0_13SkeletonPoseTIN4math4trsXEEEPS7_ii
t3g:__Z37RuntimeInvoker_Enumerator_t3123848928PFvvEPK10MethodInfoPvPS4_
Nsj:__ZN6il2cpp2os19ReleaseSocketHandleEj
gO:__ZN11AudioModule16GetDSPSampleRateEv
byj:__ZN15dense_hashtableINSt3__24pairIK10KeyWrapperIPK19Il2CppGenericMethodEP10MethodInfoEES6_N6il2cpp8metadata23Il2CppGenericMethodHashEN14dense_hash_mapIS6_S9_SD_NS6_14EqualsComparerINSC_26Il2CppGenericMethodCompareEEENS0_9allocatorISA_EEE9SelectKeyESH_SJ_E5clearEv
c9b:__ZN16PropertyAccessor5ClearEv
DIb:__ZN15InstancingProps11NewConstantERKN9ShaderLab16FastPropertyNameEj15ShaderParamTypehhjjP6Object
jJe:_Comparer_1__ctor_m3649041856_gshared
Afd:_Image_OnBeforeSerialize_m3415525254
zTe:_InputField_get_characterValidation_m4196664041
j1f:_Type_get_Attributes_m58528356
PPb:__ZN6Camera28DefaultPerformRenderFunctionD0Ev
Omd:_Array_GetUpperBound_m4018715963
Myi:_X509Store__ctor_m2736551756
Ouj:__ZN6il2cpp2os5posix15PosixWaitObjectC2ENS2_4TypeE
JNb:__ZN6Camera21PostMultiCustomRenderENS_10RenderFlagEb
DUf:_Array_InternalArray__Insert_TisMonoResource_t4103430009_m1997865927_gshared
$of:_SHA512Managed_HashFinal_m2173184560
Amf:_RIPEMD160__ctor_m860963627
rIb:__ZN23ShaderVariantCollection13WarmupShadersEv
fZb:__ZNK4PPtrI8MaterialEptEv
a4b:__ZN13ProduceHelperI9TransformLb0EE7ProduceE10MemLabelId18ObjectCreationMode
tje:_SslStreamBase_Finalize_m3260913635
M$:__Z25GetCommonScriptingClassesv
dhb:__Z27scripting_gc_collect_unsafei
Ibe:_MD5SHA1_HashFinal_m4115488658
wNe:_KeyCollection_get_Count_m2424674141_gshared
_Rf:_Array_InternalArray__ICollection_Add_TisKeyValuePair_2_t71524366_m3468275433_gshared
vNi:_AudioSettings_InvokeOnAudioManagerUpdate_m4044425648
qQ:__Z59Register_UnityEngine_AudioExtensionManager_GetAudioListenerv
aNh:__ZL78Calendar_t1661121569_CustomAttributesCacheGenerator_Calendar_Clone_m1356182658P21CustomAttributesCache
Tub:__Z26Transfer_UnityEngineObjectI24GenerateTypeTreeTransferLb0EEvRK29SerializationCommandArgumentsR31RuntimeSerializationCommandInfo
MDd:_Convert_ToDouble_m278900635
qBc:_UNITY_FT_GlyphLoader_CheckPoints
Xog:_DebugLogHandler_LogException_m302830419
uVe:_InputField_LineDownCharacterPosition_m2798128425
nhg:_PrimeHelper_TestPrime_m2318568626_gshared
fMh:__ZL63KeyNotFoundException_t2292407383_CustomAttributesCacheGeneratorP21CustomAttributesCache
zLe:_Enumerator_System_Collections_IDictionaryEnumerator_get_Value_m684446183_AdjustorThunk
EUa:__ZN15SharedLightData7PrecalcEv
V1:__ZN10Matrix4x4fmLERKS_
Iq:__ZN4PPtrI9TransformE8TransferI18StreamedBinaryReadILb0EEEEvRT_
Pwg:_Vector2__ctor_m3970636864
pyb:__Z35Transfer_Blittable_FixedBufferFieldI18StreamedBinaryReadILb1EEsEvRK29SerializationCommandArgumentsR31RuntimeSerializationCommandInfo
oR:__ZNK4PPtrI4MeshEdeEv
YGf:_Environment_InternalGetFolderPath_m468390978
VRi:__ZL25UnresolvedVirtualCall_228P12Il2CppObject25RaycastResult_t3360306849PK10MethodInfo
dOa:__ZN15ArchiveReadFileD0Ev
ZZh:__ZL65StackOverflowException_t3629451388_CustomAttributesCacheGeneratorP21CustomAttributesCache
sOe:_KeyCollection_System_Collections_IEnumerable_GetEnumerator_m2779004382_gshared
jxh:_List_1_System_Collections_Generic_ICollectionU3CTU3E_get_IsReadOnly_m2562366358_gshared
Lbe:_RSASslSignatureFormatter__ctor_m1299283008
cXc:__ZN11UnityEngine15PlatformWrapper18GetOperatingSystemEv
Eoa:__ZNSt3__26vectorIP14DataBufferGLESNS_9allocatorIS2_EEE21__push_back_slow_pathIKS2_EEvRT_
Ksf:_SecurityFrame_ToString_m339310712
s_h:__ZL54ThreadStart_t1006689297_CustomAttributesCacheGeneratorP21CustomAttributesCache
jLh:__ZL62ParamArrayAttribute_t3664765590_CustomAttributesCacheGeneratorP21CustomAttributesCache
Suc:__ZN8GUIStyle8TransferI8JSONReadEEvRT_
u5h:__ZL98Transform_t3600365921_CustomAttributesCacheGenerator_Transform_INTERNAL_set_localScale_m1089294020P21CustomAttributesCache
GHi:_GUIStyleState_t1397964415_marshal_pinvoke
Bp:__ZN15SerializeTraitsI13dynamic_arrayIiLj4EEE19ResizeSTLStyleArrayERS1_i
mpi:_Array_Resize_TisVector4_t3319028937_m1507893064_gshared
nWh:__ZL94Interlocked_t2273387594_CustomAttributesCacheGenerator_Interlocked_CompareExchange_m3023855514P21CustomAttributesCache
oof:_SHA1Managed_HashFinal_m2365675383
r6c:_TouchInputModule_ProcessTouchPress_m3504077560
TKi:_FieldWithTarget_get_typeString_m238478345
d2e:_Selectable_IsInteractable_m2611421038
VAc:_FT_MSB
jdg:_EqualityComparer_1_get_Default_m2572737998_gshared
dWj:_emscripten_glReadPixels__wrapper
Ghg:_HashSet_1_Add_m1971460364_gshared
GGj:__ZN6il2cpp6icalls8mscorlib4Mono8Security12Cryptography18KeyPairPersistence10_CanSecureEP12Il2CppString
obe:_MD4__ctor_m919379109
eMf:_Array_InternalArray__ICollection_Contains_TisParameterModifier_t1461694466_m1000453323_gshared
APh:__ZL57FieldAttributes_t400321159_CustomAttributesCacheGeneratorP21CustomAttributesCache
q9f:_Dictionary_2_System_Collections_ICollection_CopyTo_m4047192178_gshared
F8i:__ZN6il2cpp2os4File11GetFileStatERKNSt3__212basic_stringIcNS2_11char_traitsIcEENS2_9allocatorIcEEEEPNS0_8FileStatEPi
Cmf:_RIPEMD160Managed_Initialize_m2173168986
cSh:__ZL54IMessageCtrl_t317049502_CustomAttributesCacheGeneratorP21CustomAttributesCache
M5b:__ZN9TransformC2E10MemLabelId18ObjectCreationMode
Xoa:__ZN13GfxDeviceGLES14SetRasterStateEPK17DeviceRasterState
mWd:_Assembly_ToString_m2053237013
lpb:__Z30TransferField_LinearCollectionI14SafeBinaryReadEvRK29SerializationCommandArgumentsR31RuntimeSerializationCommandInfo
btg:_Vector4_Equals_m1779210055
LEf:_Exception_set_HResult_m3489164646
kDc:_otv_Coverage_get_count
Z5d:_ParameterModifier_t1461694466_marshal_pinvoke_back
M2:__ZN14SafeBinaryRead11EndTransferEv
Mfg:_EqualityComparer_1__cctor_m2741186979_gshared
Fpb:__ZN14SafeBinaryRead8TransferI8MonoPPtrEEvRT_PKc17TransferMetaFlags
v0h:__ZL70Uri_t100236324_CustomAttributesCacheGenerator_Uri_Unescape_m3373094076P21CustomAttributesCache
p1e:_ScrollRect_set_verticalNormalizedPosition_m1452826170
qGf:_Enum_System_IConvertible_ToUInt16_m4216751959
bUg:__Z61RuntimeInvoker_Boolean_t97287965_PlayableHandleU26_t645981773PFvvEPK10MethodInfoPvPS4_
vGa:__ZN21UniformBufferTFMethod13MapBoneBufferEj
SUi:_StringExtension_Anagram_m968226828
uUf:_Array_InternalArray__Insert_TisInt32_t2950945753_m4073217122_gshared
dnf:_RNGCryptoServiceProvider_RngClose_m3915778345
NBd:_SortedList_Remove_m2784369438
Dxa:__ZN4crnd12crn_unpacker10unpack_dxnEPPhjjj
fzf:_DateTime_get_Kind_m2154871796_AdjustorThunk
AFb:__ZN9TextAsset15ThreadedCleanupEv
Azi:_MatchCollection_get_SyncRoot_m1957585059
u0:__ZN14SerializedFileD2Ev
Tea:__Z21CompleteFenceInternalR8JobFence
Qnc:__Z30Event_Get_Custom_PropModifiersP12Il2CppObject
Q3g:__Z79RuntimeInvoker_RuntimeObject_OrderBlock_t1585977831_RuntimeObject_RuntimeObjectPFvvEPK10MethodInfoPvPS4_
nu:__ZN7mecanim9animation16CreateClipOutputEPKNS0_4ClipERNS_6memory9AllocatorE
Ire:_SoapAttribute_SetReflectionObject_m4109300849
$Ze:_RawImage_get_mainTexture_m2396337033
LYi:_CustomEventData_Add_m1638466298
Uaj:__ZN6il2cpp2vm10Reflection17GetAssemblyObjectEPK14Il2CppAssembly
Vwf:_DecoderFallbackBuffer_Reset_m3069554060
dDb:__ZNSt3__218__stable_sort_moveIRN10vector_mapI17ScriptingClassPtrPKN5Unity4TypeENS_4lessIS2_EENS_9allocatorINS_4pairIS2_S6_EEEEE13value_compareENS_11__wrap_iterIPSB_EEEEvT0_SJ_T_NS_15iterator_traitsISJ_E15difference_typeEPNSM_10value_typeE
fha:__ZN6Shader21AwakeFromLoadThreadedEv
sAa:__ZN6prcoreL17RemapGenericFloatI17TexFormatRGBFloat17TexFormatRGBAHalfEEvPKNS_9InnerInfoE
y6e:_BigInteger__ctor_m3991350270
jCg:_Vector2_GetHashCode_m3916089713_AdjustorThunk
y0c:__ZN13RuntimeStaticINSt3__26vectorIjNS0_9allocatorIjEEEELb0EE16StaticInitializeEPv
cU:__ZN13UploadHandler10OnSentDataEj
SHj:__ZN6il2cpp2os9SemaphoreC2Eii
Hpb:__ZNSt3__26vectorI8MonoPPtr13stl_allocatorIS1_L18MemLabelIdentifier1ELi16EEE8__appendEj
mOb:__ZN14qsort_internal30FindAndMovePivotToLastPositionIP17RODataReplacementi19ROSorterReplacementEEvT_S4_T0_T1_
GGa:__ZN15UniformTFMethod20IsBoneCountSupportedEi
zmi:__ZL76StandardEventPayload_t1629891255_CustomAttributesCacheGenerator_m_ParametersP21CustomAttributesCache
Idh:_ReadOnlyCollection_1_System_Collections_IList_get_Item_m3076053687_gshared
y5f:_UnauthorizedAccessException__ctor_m246605039
f5b:__Z12BuildTextureIA4_tPFvP9Texture2DPS0_iiiiEES2_PKcii13TextureFormatRKT0_17TextureColorSpaceb
FOj:dynCall_viidi
Pt:__ZN8Playable18OnApplicationPauseEb
jNe:_KeyCollection__ctor_m1356492051_gshared
a$:__ZN24ScriptingMethodFiltering17FilterOnSignatureENS_18MethodSearchFilterE
gTi:_ListPool_1_U3Cs_ListPoolU3Em__0_m2283646495_gshared
OZb:__ZN18ScreenManagerWebGL13SetLockCursorE14CursorLockMode
Pde:_CipherSuite_DecryptRecord_m1495386860
Bxi:_X509Certificate_VerifySignature_m3538124832
lPd:_StreamAsyncResult_SetComplete_m1102187093
fDi:_CharacterClass_GetIntervalCost_m4036989868
Qki:__ZL64HorizontalLayoutGroup_t2586782146_CustomAttributesCacheGeneratorP21CustomAttributesCache
A3b:__ZN13MonoBehaviour19HandleNotificationsEPviR11MessageData
Mxg:_RectOffset_Init_m2028508611
tIj:__ZN6il2cpp2os9EventImpl5ResetEv
Fzh:_List_1_Sort_m933660666_gshared
Tce:_Alert__ctor_m3135936936
BJd:_Int64_System_IConvertible_ToInt32_m772105781
sui:_TlsClientSettings__ctor_m3220697265
Vej:__ZNK15dense_hashtableINSt3__24pairIK10KeyWrapperINS1_IPK9EventInfoP11Il2CppClassEEEjEES9_17ReflectionMapHashIS8_EN14dense_hash_mapIS9_jSD_NS9_14EqualsComparerINS0_8equal_toIS8_EEEENS0_9allocatorISB_EEE9SelectKeyESI_SK_E23find_position_with_hashERSA_j
KCi:_CaptureAssertion_set_CapturingGroup_m2003123956
bSj:b58
iVg:__Z103RuntimeInvoker_Boolean_t97287965_RuntimeObject_Vector2_t2156229523_RuntimeObject_Vector2U26_t2376273893PFvvEPK10MethodInfoPvPS4_
G8f:_Dictionary_2_make_pair_m2250450206_gshared
aXf:_ForwardingDecoder_GetChars_m4228908854
Llf:_InterpreterFactory_get_GroupCount_m2226373271
WRj:b53
JRj:b50
KRj:b51
$Rj:b56
aSj:b57
XRj:b54
_Rj:b55
Ish:_List_1_System_Collections_IList_get_IsReadOnly_m3531293387_gshared
LL:__ZN4PPtrI15AudioMixerGroupE8TransferI18StreamedBinaryReadILb0EEEEvRT_
s5e:_SimpleCollator_IsSafe_m310268646
uPf:_Array_InternalArray__IEnumerable_GetEnumerator_TisWorkRequest_t1354518612_m2622205355_gshared
Itd:_Byte_System_IConvertible_ToByte_m162267264_AdjustorThunk
Zmd:_X509Certificate_get_RawData_m2387471414
ITj:_glDetachShader__wrapper
Grd:_ArrayTypeMismatchException__ctor_m3375008173
iPe:_Transform_1_BeginInvoke_m1757796657_gshared
taj:__ZNSt3__214__split_bufferINS_12basic_stringIcNS_11char_traitsIcEENS_9allocatorIcEEEERNS4_IS6_EEEC2EjjS8_
mig:_KeyValuePair_2__ctor_m1794021352_AdjustorThunk
WZg:__Z88RuntimeInvoker_Int32_t2950945753_UIVertex_t4057497605_UIVertex_t4057497605_RuntimeObjectPFvvEPK10MethodInfoPvPS4_
o7b:__ZN10GameObject12CleanupClassEv
Lpa:__ZN9GfxDevice25SetShaderPropertiesSharedERK19ShaderPropertySheet
k7c:_BaseMeshEffect_get_graphic_m1852367505
Yyd:_CaseInsensitiveHashCodeProvider_GetHashCode_m2168170016
kFb:__ZN10MonoScript17MainThreadCleanupEv
bxa:__ZN18AsyncUploadManager19AsyncResourceUploadER9GfxDeviceii9TextureID
aGe:_InternalEnumerator_1_Dispose_m28687982_AdjustorThunk
I6b:__ZL25InitializeDefaultMaterialv
ySc:__Z53Register_UnityEngine_CanvasRenderer_get_materialCountv
p1d:_PropertyBuilder_GetCustomAttributes_m3798356764
QMd:_Stream__ctor_m3881936881
b6d:_PropertyInfo_get_MemberType_m2794839864
NOa:__ZN19FileAccessorHandlerD2Ev
vKi:_EventTrigger_RemoveRule_m1596811726
nqh:_Enumerator_Dispose_m2367589020_AdjustorThunk
TIe:_Comparer_1_System_Collections_IComparer_Compare_m4179495191_gshared
qMa:__ZN17PersistentManager12UnloadStreamERKN4core12basic_stringIcNS0_20StringStorageDefaultIcEEEEb
cPa:__ZN10MemoryFile4ReadEyyPvPy
$Uf:_Array_InternalArray__Insert_TisUICharInfo_t75501106_m2924156520_gshared
Neg:_EqualityComparer_1_System_Collections_IEqualityComparer_Equals_m3139704160_gshared
QRf:_MonoProperty_GetterAdapterFrame_TisRuntimeObject_TisRuntimeObject_m458718082_gshared
c6a:__ZN13ScreenManager17RequestResolutionEiibi
ajj:_il2cpp_unity_liveness_calculation_from_statics
Wx:__ZNK26AnimatorControllerPlayable11DerivesFromE17ScriptingClassPtr
Fre:_SoapAttribute__ctor_m1857608874
hGe:_InternalEnumerator_1_System_Collections_IEnumerator_get_Current_m2649471526_gshared
Rdg:_EqualityComparer_1_System_Collections_IEqualityComparer_Equals_m3218482536_gshared
g6:__ZN8Renderer8TransferI17RemapPPtrTransferEEvRT_
aui:_InternalAsyncResult_get_AsyncState_m1436290550
Ywe:_InternalEnumerator_1_Dispose_m2018798800_AdjustorThunk
jpa:__ZN13GfxDeviceGLES26UpdateViewProjectionMatrixEv
UJe:_Enumerator_System_Collections_IDictionaryEnumerator_get_Entry_m522483686_gshared
taf:_PrivateKeyInfo_RemoveLeadingZero_m3921889925
B_f:_Thread_get_CurrentContext_m1695017876
Jti:_Mesh_GetAllocArrayFromChannel_TisColor32_t2600501292_m3180365313_gshared
MXb:__Z24LookRotationToQuaternionRK8Vector3fS1_P11Quaternionf
KXb:__ZN16ReflectionProbes9GetCameraEv
Zma:__ZL18IsGpuProgramUsable20ShaderGpuProgramTypePK6Shader
$Qc:__ZN2UI6Canvas17SetSortingLayerIDEi
s7c:_Button_get_onClick_m2332132945
Luj:__ZN6il2cpp2vm11MethodStack23CleanupForCurrentThreadEv
tbh:_Collection_1_ConvertItem_m618594517_gshared
Mhi:__ZL61Image_t2670269651_CustomAttributesCacheGenerator_m_FillMethodP21CustomAttributesCache
HFd:_Convert_ToUInt64_m388601487
AVa:__ZN20TierGraphicsSettings8TransferI24GenerateTypeTreeTransferEEvRT_
E2i:__ZN15dense_hashtableINSt3__24pairIK10KeyWrapperIN6il2cpp5utils13dynamic_arrayIPK10Il2CppTypeLj4EEEEPFvvEEESA_NS3_8metadata19Il2CppSignatureHashEN14dense_hash_mapISA_SD_SG_NSA_14EqualsComparerINSF_22Il2CppSignatureCompareEEENS0_9allocatorISE_EEE9SelectKeyESK_SM_E16reset_thresholdsEv
ytg:_Mesh_get_vertices_m3585684815
urb:__ZN14SafeBinaryRead21TransferSTLStyleArrayI13dynamic_arrayI4AABBLj4EEEEvRT_17TransferMetaFlags
PAg:_TouchScreenKeyboard_get_text_m1797464608
UYb:__ZN26CustomRenderTextureManager25UpdateCustomRenderTextureEP19CustomRenderTexturei
Wfa:__ZNSt3__26__treeINS_12__value_typeIiN11TypeManager18TypeCallbackStructEEENS_19__map_value_compareIiS4_NS_4lessIiEELb1EEENS_9allocatorIS4_EEE7destroyEPNS_11__tree_nodeIS4_PvEE
Pji:__ZL60Slider_t3903728902_CustomAttributesCacheGenerator_m_FillRectP21CustomAttributesCache
_Eb:__ZN13MonoBehaviour18TransferEngineDataI24GenerateTypeTreeTransferEE4PPtrI10MonoScriptERT_
yYg:__Z71RuntimeInvoker_Void_t1185182177_CornerU26_t2243868623_Int32_t2950945753PFvvEPK10MethodInfoPvPS4_
Mqg:_TextureMixerPlayable_Equals_m1074187513_AdjustorThunk
Y8b:__ZNK14PlayableOutput23GetSourcePlayableUnsafeEv
bWc:__ZN11UnityEngine7Connect17XRDeviceInfoEventD0Ev
uSh:__ZL60SoapTypeAttribute_t1750930817_CustomAttributesCacheGeneratorP21CustomAttributesCache
UWd:_Binder_ConvertArgs_m2124461494
XV:__ZN21UnityDefaultAllocatorI17LowLevelAllocatorE10DeallocateEPv
zs:__ZN15PackedIntVector8TransferI14SafeBinaryReadEEvRT_
yCg:_Vector3__ctor_m3353183577_AdjustorThunk
Xye:_InternalEnumerator_1_System_Collections_IEnumerator_get_Current_m1514266661_gshared
Hbe:_MD5SHA1_Initialize_m675470944
LSf:_Array_InternalArray__ICollection_Add_TisKeyframe_t4206410242_m442111799_gshared
xyh:_List_1_CheckMatch_m3263549496_gshared
pWh:__ZL58ManualResetEvent_t451242010_CustomAttributesCacheGeneratorP21CustomAttributesCache
wgh:_ReadOnlyCollection_1_System_Collections_IList_get_IsReadOnly_m2041535988_gshared
mxi:_X509Certificate_set_KeyAlgorithmParameters_m2010117999
EH:__ZN13AudioListener8DoUpdateEv
mJd:_Int32_GetTypeCode_m1648562395_AdjustorThunk
VCd:__Z13bankers_roundd
deb:__ZN14SafeBinaryRead8TransferI5RectTIfEEEvRT_PKc17TransferMetaFlags
ui:_emscripten_glGenFramebuffers
Qfa:__ZN17BaseObjectManager16StaticInitializeEPv
oMe:_Enumerator_MoveNext_m1127886695_gshared
kRi:__ZL25UnresolvedVirtualCall_191P12Il2CppObject26DateTimeOffset_t3229287507S1_PK10MethodInfo
Nha:__ZNSt3__26vectorIN9ShaderLab26SerializedShaderDependencyENS_9allocatorIS2_EEE26__swap_out_circular_bufferERNS_14__split_bufferIS2_RS4_EE
lXh:__ZL80Convert_t2465617642_CustomAttributesCacheGenerator_Convert_ToBoolean_m3613483153P21CustomAttributesCache
Yth:_List_1_CheckCollection_m2602703205_gshared
lKa:__ZN9Behaviour23VirtualRedirectTransferER17RemapPPtrTransfer
kUc:__ZN21UnityAnalyticsManager23VirtualRedirectTransferER19StreamedBinaryWriteILb0EE
Lrc:__Z18Transfer_BlittableI9JSONWriteLb0EyEvRK29SerializationCommandArgumentsR31RuntimeSerializationCommandInfo
x_a:__ZN13RenderTexture15ThreadedCleanupEv
chf:_X509BasicConstraintsExtension__ctor_m3721156175
O1a:__ZN12CubemapArray23VirtualRedirectTransferER14SafeBinaryRead
cei:__ZL70EventSystem_t1003666588_CustomAttributesCacheGenerator_m_DragThresholdP21CustomAttributesCache
ru:__ZN21AnimationClipPlayable16ProcessHumanPassEPK35AnimationPlayableEvaluationConstantPK32AnimationPlayableEvaluationInputP33AnimationPlayableEvaluationOutput
NLd:_Path_GetFileName_m1354558116
G8e:_BitConverterLE_ToDouble_m1601000678
FSj:_emscripten_glUniform3i__wrapper
uxg:_Rect_Contains_m1232228501_AdjustorThunk
REa:__ZN18ProceduralMaterial9ReloadAllEbb
qic:__Z43RectTransform_CUSTOM_INTERNAL_set_sizeDeltaP12Il2CppObjectRK13Vector2fIcall
KJd:_Int64_System_IConvertible_ToType_m3223988955_AdjustorThunk
Bqj:__ZN15dense_hashtableINSt3__24pairIK10KeyWrapperINS1_IPKcS4_EEEiEES6_24NamespaceAndNamePairHashN14dense_hash_mapIS6_iS9_NS6_14EqualsComparerI26NamespaceAndNamePairEqualsEENS0_9allocatorIS8_EEE9SelectKeyESD_SF_E6insertERKS8_
d6:__ZN24GenerateTypeTreeTransfer18BeginArrayTransferEPKcS1_Ri17TransferMetaFlags
bti:_Array_InternalArray__get_Item_TisPlayableBinding_t354260709_m3837494573_gshared
rm:___syscall51
Rvf:_String_CreateString_m4016935005
wzi:_MatchCollection_get_FullList_m1829231879
vm:___syscall54
XOi:__ZL24UnresolvedVirtualCall_68P12Il2CppObject17OpCode_t123070264S0_PK10MethodInfo
vqd:_Array_GetValue_m2528415604
dSh:__ZL55IMessageSink_t2514424906_CustomAttributesCacheGeneratorP21CustomAttributesCache
lpf:_SymmetricAlgorithm_Clear_m3302238152
Cyg:_Transform_INTERNAL_CALL_TransformPoint_m4261269221
dLf:_Guid_AppendShort_m791023083
fQi:__ZL25UnresolvedVirtualCall_132P12Il2CppObject19Vector2_t2156229523S0_PK10MethodInfo
jfi:__ZL109PointerEventData_t3807901092_CustomAttributesCacheGenerator_PointerEventData_get_eligibleForClick_m3788762543P21CustomAttributesCache
Tyh:_List_1__ctor_m4212503576_gshared
FYf:_UTF32Encoding_GetBytes_m2832872594
goa:__ZN9ShaderLab9SubShader19CreateFromSubShaderERKS0_
Swb:__Z18Transfer_BlittableI19StreamedBinaryWriteILb0EELb1EjEvRK29SerializationCommandArgumentsR31RuntimeSerializationCommandInfo
rBc:_cff_builder_add_point1
Krj:__ZN6il2cpp2vm5Image21GetCachedResourceDataEPK11Il2CppImageRKNSt3__212basic_stringIcNS5_11char_traitsIcEENS5_9allocatorIcEEEE
oob:__Z18Transfer_BlittableI14SafeBinaryReadLb0E10ColorRGBAfEvRK29SerializationCommandArgumentsR31RuntimeSerializationCommandInfo
za:invoke_iiiiiiiiii
rpg:_DrivenRectTransformTracker_Clear_m371772582
SP:__ZN11AudioSource25GetNumExtensionPropertiesEv
XTf:_Array_InternalArray__ICollection_CopyTo_TisUILineInfo_t4195266810_m104406798_gshared
WN:__ZNK7Texture10GetVRUsageEv
Nvd:_Char_ToLowerInvariant_m1926695830
gbg:_DefaultComparer__ctor_m41012692_gshared
Iog:_Debug_LogErrorFormat_m3558239521
ddd:_Graphic_get_canvas_m3320066409
TUe:_InputField_ActivateInputFieldInternal_m3360893886
jDh:_List_1_Insert_m1781696722_gshared
jG:__ZN4FMOD7SystemI11createSoundEPKcjP22FMOD_CREATESOUNDEXINFOPPNS_5SoundE
W$b:__ZN10FileSystem19SetCurrentDirectoryERKN4core12basic_stringIcNS0_20StringStorageDefaultIcEEEE
Nng:_Component_get_gameObject_m442555142
URd:_Math_Log_m2526073084
Vec:__Z47Register_UnityEngine_Coroutine_ReleaseCoroutinev
pI:__ZN15AudioReverbZone13SetFMODValuesEv
OZ:__ZN14SafeBinaryRead4InitERK16TypeTreeIteratorxx24TransferInstructionFlags10MemLabelId
$ga:__ZL19StaticDestroyShaderPv
de:_glRenderbufferStorageMultisample
H8b:__ZN8Playable4PlayEv
nBd:_SyncHashtable_Clone_m3726939774
fz:__ZN23AnimationPlayableOutput17SetTargetAnimatorEP8Animator
PPh:__ZL62ParameterAttributes_t1826424051_CustomAttributesCacheGeneratorP21CustomAttributesCache
gtc:__ZN9JSONWrite8TransferI13dynamic_arrayIN4math12int3_storageELj4EEEEvRT_PKc17TransferMetaFlags
CQb:__ZN22MotionVectorRenderLoopD2Ev
hOd:_MemoryStream_get_CanRead_m1639425566
Kog:_Debug_LogException_m2207318968
axf:_DecoderReplacementFallback_GetHashCode_m1611165826
Rfd:_Image_get_minWidth_m755066479
lYj:_pthread_cond_broadcast__wrapper
URf:_Array_InternalArray__ICollection_Add_TisClientCertificateType_t1004704908_m2622721177_gshared
Hs:__ZN17PackedFloatVector8TransferI18StreamedBinaryReadILb0EEEEvRT_
P2a:__ZN7Cubemap23VirtualRedirectTransferER17RemapPPtrTransfer
Vkc:__Z37Register_UnityEngine_Screen_get_widthv
mYi:_UnityAnalyticsHandler_SendCustomEvent_m1223269116
MEi:_Uri_get_Authority_m3816772302
W9b:__ZN22BlockMemoryCacheWriter11GetPathNameEv
xgf:_X509BasicConstraintsExtension__ctor_m1244152959
GAg:_Touch_get_position_m3109777936
m5d:_ParameterInfo__ctor_m3269320476
dkf:_X509SubjectKeyIdentifierExtension_FromHexChars_m3244835916
vtf:_Single_CompareTo_m2785801815
kwi:_PKCS12_MAC_m3355614022
gSh:__ZL63IMethodReturnMessage_t3705538073_CustomAttributesCacheGeneratorP21CustomAttributesCache
ep:stackAlloc
nfc:__Z44Camera_CUSTOM_INTERNAL_CALL_ScreenPointToRayP12Il2CppObjectRK8Vector3fR3Ray
oPa:__ZN25SingleBlockMemoryFileData4LockEPPv
plb:__ZN12HandlerChain5TouchER13FileEntryData
iXj:_glProgramParameteri__wrapper
Zih:_ReadOnlyCollection_1_System_Collections_Generic_ICollectionU3CTU3E_get_IsReadOnly_m1215739200_gshared
JZ:__ZN17PersistentManager23PostReadActivationQueueEiPK8TypeTreeb
Wkg:_AnimationCurve_t3046754366_marshal_pinvoke
Sgc:__Z32RectOffset_Get_Custom_PropBottomP12Il2CppObject
Dog:_Debug_LogError_m2850623458
x8g:_Collection_1_CheckWritable_m3225530705_gshared
IXj:_emscripten_glGetObjectParameterivARB__wrapper
$ki:__ZL74LayoutElement_t1785403678_CustomAttributesCacheGenerator_m_PreferredHeightP21CustomAttributesCache
wKj:_stat
y4:__ZN9ShaderLab10SubProgram7CompileEv
FIb:__ZN15InstancingProps14CombineBuiltinEN10Instancing11BuiltinPropES1_S1_
qzh:_List_1_Contains_m353222571_gshared
i1d:_PropertyBuilder_get_CanRead_m3783190070
x0:__ZN14SerializedFile14SerializedTypeD2Ev
c_h:__ZL64ThreadStaticAttribute_t3840787420_CustomAttributesCacheGeneratorP21CustomAttributesCache
$Rf:_Array_InternalArray__ICollection_Add_TisKeyValuePair_2_t3699644050_m4052349323_gshared
aee:_CipherSuiteCollection_System_Collections_IList_get_Item_m2175128671
kSa:__ZN6CameraD2Ev
la:invoke_iiiiiiiiiiii
Lyf:_DateTime_System_IConvertible_ToType_m1242864300_AdjustorThunk
rSe:_ValueCollection_get_Count_m994935123_gshared
rFe:_InternalEnumerator_1_get_Current_m2446410893_AdjustorThunk
jWa:__Z29CalculateDefaultChannelsToAdd17ShaderChannelMaskS_
Z7h:__ZL89PlayableBinding_t354260709_CustomAttributesCacheGenerator_U3CstreamTypeU3Ek__BackingFieldP21CustomAttributesCache
PRa:__ZN10TagManager13RegisterLayerEjRKN4core12basic_stringIcNS0_20StringStorageDefaultIcEEEE
sIa:__ZNSt3__26__treeI20DeviceBlendStateGLES14MemoryCompLessI16DeviceBlendStateENS_9allocatorIS1_EEE7destroyEPNS_11__tree_nodeIS1_PvEE
eWi:_CanvasRenderer_SetMaterial_m633746949
lL:__ZN10AudioMixer12RebindOutputEv
vkj:__ZNK15dense_hashtableINSt3__24pairIK10KeyWrapperIP11Il2CppClassES4_EES5_N6il2cpp8metadata16SZArrayClassHashEN14dense_hash_mapIS5_S4_SA_NS5_14EqualsComparerINS9_19SZArrayClassCompareEEENS0_9allocatorIS7_EEE9SelectKeyESE_SG_E5beginEv
cze:_InternalEnumerator_1__ctor_m819716934_gshared
XXe:_LayoutRebuilder_PerformLayoutControl_m4241054021
c_i:__ZN6il2cpp2vm17SetupFieldsLockedEP11Il2CppClassRKNS_2os12FastAutoLockE
JXe:_U3CDelayedSetDirtyU3Ec__Iterator0_System_Collections_IEnumerator_get_Current_m3096581881
rHb:__ZNK9GfxDevice20IsViewportFullscreenEv
gPe:_Transform_1__ctor_m2638607165_gshared
fDa:__ZN18GlslGpuProgramGLES13SwitchProgramEj
aQa:__ZN20ArchiveStorageReaderC2E10MemLabelId
yFg:__Z132RuntimeInvoker_Int32_t2950945753_RuntimeObject_Int32_t2950945753_Int32_t2950945753_RuntimeObject_Int32_t2950945753_Int32_t2950945753PFvvEPK10MethodInfoPvPS4_
Hmb:__ZN16MemoryFileSystem4NameEv
Usf:_Single_System_IConvertible_ToBoolean_m1716619219_AdjustorThunk
Qkc:__Z13SetCopyBufferRKN4core12basic_stringIcNS_20StringStorageDefaultIcEEEE
Njg:_Enumerator_get_Current_m2468920150_AdjustorThunk
Kui:_TlsException__ctor_m818940807
lnd:_X509CertificateEnumerator_System_Collections_IEnumerator_get_Current_m418791713
QLc:_UNITY_FT_New_Size
ldc:__Z42ScriptingGetComponentsOfTypeFromGameObjectRK26ScriptingGetComponentsArgs
Hqg:_MaterialEffectPlayable_GetHandle_m4279427933_AdjustorThunk
i7h:__ZL73ArgumentCache_t2187958399_CustomAttributesCacheGenerator_m_ObjectArgumentP21CustomAttributesCache
uog:_StateChanged_EndInvoke_m3313423087
zqi:_Array_swap_TisRaycastResult_t3360306849_TisRaycastResult_t3360306849_m3400922624_gshared
_Mi:_AudioListener_ReadExtensionName_m929423100
aMc:_raccess_guess_vfat
GZd:_EnumBuilder_get_DeclaringType_m4266754303
X0a:__ZNSt3__27__sort4IRPFbRKNS_4pairIN9ShaderLab16FastPropertyNameEN18UnityPropertySheet11UnityTexEnvEEES8_EPS6_EEjT0_SD_SD_SD_T_
mBi:_Assertion_get_TrueExpression_m2743006331
pAc:_cf2_hintmap_build
qAg:_Texture_get_width_m888163864
yJc:_Line_Up
api:_Array_Resize_TisRaycastResult_t3360306849_m1277390301_gshared
ke:_emscripten_glBufferSubData
tvf:_String_ReplaceUnchecked_m1381393810
Waf:_SymmetricTransform_CBC_m435753239
Ysb:__Z18Transfer_BlittableI17RemapPPtrTransferLb1EyEvRK29SerializationCommandArgumentsR31RuntimeSerializationCommandInfo
Hki:__ZL76ContentSizeFitter_t3850442145_CustomAttributesCacheGenerator_m_HorizontalFitP21CustomAttributesCache
DHe:_DefaultComparer__ctor_m1236171334_gshared
Xp:__Z17CalculateGlobalRS23TransformAccessReadOnly
rdj:__ZN24dense_hashtable_iteratorINSt3__24pairIK10KeyWrapperINS1_IPK10MethodInfoP11Il2CppClassEEEjEES9_17ReflectionMapHashIS8_EN14dense_hash_mapIS9_jSD_NS9_14EqualsComparerINS0_8equal_toIS8_EEEENS0_9allocatorISB_EEE9SelectKeyESI_SK_E30advance_past_empty_and_deletedEv
dFj:__ZNSt3__210__list_impIPN6il2cpp5utils10MemoryPool6RegionENS_9allocatorIS5_EEE5clearEv
w0c:__ZN13RuntimeStaticINSt3__26vectorIN5physx25PxVehicleWheelQueryResultENS0_9allocatorIS3_EEEELb0EE16StaticInitializeEPv
qrb:__ZN14SafeBinaryRead21TransferSTLStyleArrayI13dynamic_arrayI9BoundsIntLj4EEEEvRT_17TransferMetaFlags
Zib:__ZN22MemoryCacherReadBlocks14LockCacheBlockEjPPhS1_
mPd:_StreamAsyncResult_get_NBytes_m548041729
H9i:__ZN6il2cpp2vm14TypeNameParser17ParseAssemblyNameEv
u9a:__ZNK9GfxDevice26GetSinglePassStereoEyeMaskEv
Uog:_DebugLogHandler_Internal_Log_m4175774469
lzj:__ZN4utf88internal15increase_safelyIPKcEENS0_9utf_errorERT_S5_
d_i:__ZN6il2cpp2vmL21SetupPropertiesLockedEP11Il2CppClassRKNS_2os12FastAutoLockE
dsf:_SecurityContext_get_CompressedStack_m3401528670
dLc:__ZN20TextRenderingPrivate8FontImpl16CacheFontForTextEPtiifjPK13dynamic_arrayINS_16TextFormatChangeELj4EE
Yvd:_CharEnumerator_get_Current_m525608209
qCe:_InternalEnumerator_1_Dispose_m887344916_AdjustorThunk
U1c:__Z21ArrayElementTypeCheckP11Il2CppArrayPv
nWj:_emscripten_glTexSubImage2D__wrapper
DEf:_StackTrace_init_frames_m641783388
Rgf:_PublicKey_DecodeRSA_m1824703659
sMj:__ZNSt3__212basic_stringIcNS_11char_traitsIcEENS_9allocatorIcEEE6appendEjc
VCb:__Z13TransferFieldI18StreamedBinaryReadILb0EELb0E16Converter_StringEvRK23StaticTransferFieldInfoR31RuntimeSerializationCommandInfoRT1_
ETc:__Z42Register_UnityEngine_Canvas_get_rootCanvasv
jXh:__ZL78Convert_t2465617642_CustomAttributesCacheGenerator_Convert_ToBoolean_m40300963P21CustomAttributesCache
Uwd:_ArrayListWrapper_set_Item_m3849584877
Te:_TTF_RenderText_Solid
ush:_List_1__ctor_m3947764094_gshared
DHh:__ZL52IComparable_t36111218_CustomAttributesCacheGeneratorP21CustomAttributesCache
DDi:_Parser_IsIgnorePatternWhitespace_m2107132682
bef:_HttpRequestCreator_Create_m400548686
b_c:__ZN11UnityEngine7Connect16PersistentValuesC2Ev
mLg:__Z49RuntimeInvoker_RuntimeObject_StringU26_t181565287PFvvEPK10MethodInfoPvPS4_
_hh:_ReadOnlyCollection_1_System_Collections_IList_Insert_m134149130_gshared
prc:__Z18Transfer_BlittableI9JSONWriteLb0E5RectTIiEEvRK29SerializationCommandArgumentsR31RuntimeSerializationCommandInfo
C6e:_BigInteger_get_Rng_m4216817480
yzc:_cf2_getStdVW
WMf:_Array_InternalArray__ICollection_Remove_TisDateTime_t3738529785_m2250893026_gshared
wUh:__ZL67RijndaelManagedTransform_t4102601014_CustomAttributesCacheGeneratorP21CustomAttributesCache
xDa:__Z15IsIEEE754Format14GraphicsFormat
ktb:__Z19TransferField_ArrayI17RemapPPtrTransfer27Converter_UnityEngineObjectEvRK23StaticTransferFieldInfoR31RuntimeSerializationCommandInfoRT0_
Za:invoke_iifiii
Lzd:_KeyNotFoundException__ctor_m541499307
Dba:__ZN13RuntimeStaticINSt3__23mapIN4core12basic_stringIcNS2_20StringStorageDefaultIcEEEES6_NS0_4lessIS6_EE13stl_allocatorINS0_4pairIKS6_S6_EEL18MemLabelIdentifier13ELi16EEEELb0EE16StaticInitializeEPv
qOf:_SetPropertyUtility_SetStruct_TisSpriteState_t1362986479_m665096788_gshared
UFg:__Z61RuntimeInvoker_Single_t1397266774_RuntimeObject_RuntimeObjectPFvvEPK10MethodInfoPvPS4_
Xyi:_Enumerator__ctor_m1228633090
aNf:_Array_InternalArray__ICollection_Remove_TisIntPtr_t_m3807208150_gshared
DSg:__Z71RuntimeInvoker_Void_t1185182177_Vector3_t3722313464_Vector3_t3722313464PFvvEPK10MethodInfoPvPS4_
$Be:_InternalEnumerator_1_get_Current_m2316281569_AdjustorThunk
Oxf:_DateTime__ctor_m1095105629
era:__ZN13GfxDeviceGLES15UploadTexture2DE9TextureID16TextureDimensionPKhiii14GraphicsFormati18TextureUploadFlags16TextureUsageMode
C1g:__Z41RuntimeInvoker_KeyValuePair_2_t3699644050PFvvEPK10MethodInfoPvPS4_
rFi:_Event_Cleanup_m2477919477
hK:__ZN4FMOD6System9createDSPEP20FMOD_DSP_DESCRIPTIONPPNS_3DSPE
FWh:__ZL87Thread_t2300836069_CustomAttributesCacheGenerator_Thread_GetCompressedStack_m2923422412P21CustomAttributesCache
Fzg:_HitInfo_t3229609740_marshal_pinvoke_back
jje:_SslClientStream_get_ClientCertificates_m998716871
cle:__ZN21InterfaceFuncInvoker0IP8String_tE6InvokeEjP11Il2CppClassP12Il2CppObject
hG:__ZN4FMOD8ChannelI11EndCallbackEv
tnc:__ZN8GUIStyle14SetDefaultFontEPN13TextRendering4FontE
duh:_List_1_ToArray_m2860284581_gshared
zIh:__ZL74Single_t1397266774_CustomAttributesCacheGenerator_Single_IsNaN_m4024467661P21CustomAttributesCache
w5a:__ZN15QualitySettings23VirtualRedirectTransferER24GenerateTypeTreeTransfer
nue:_ObjectReader_ReadValue_m3145979203
BDg:_TypeInferenceRuleAttribute_ToString_m4089326196
$7c:_CanvasScaler_OnDisable_m3424669401
AQe:_Transform_1_BeginInvoke_m500585065_gshared
Qta:__ZThn9568_N13GfxDeviceGLES32InitStereoGlobalsBuffersPlatformEiijPKv
Yii:__ZL68Scrollbar_t1494447233_CustomAttributesCacheGenerator_m_NumberOfStepsP21CustomAttributesCache
_$e:_ScrollRect_set_content_m321343743
T0i:__ZN30dense_hashtable_const_iteratorINSt3__24pairIK10KeyWrapperIPK19Il2CppGenericMethodEPK26Il2CppGenericMethodIndicesEES6_N6il2cpp8metadata23Il2CppGenericMethodHashEN14dense_hash_mapIS6_SA_SE_NS6_14EqualsComparerINSD_26Il2CppGenericMethodCompareEEENS0_9allocatorISB_EEE9SelectKeyESI_SK_EppEv
czc:_UNITY_FT_Request_Metrics
f_a:__ZN7Texture8TransferI18StreamedBinaryReadILb0EEEEvRT_
wpj:__ZN6il2cpp6icalls8mscorlib6System10Reflection10MonoMethod29get_IsGenericMethodDefinitionEP22Il2CppReflectionMethod
Rlj:__ZN6il2cpp2vm6Thread21AllocThreadStaticDataEi
Rdi:__ZL63AnalyticsSessionState_t681173134_CustomAttributesCacheGeneratorP21CustomAttributesCache
QJf:_NumberFormatInfo_get_PercentNegativePattern_m1304634118
ZWd:_Default_SelectMethod_m469311730
yrg:_Input_get_mousePosition_m1616496925
hyj:__ZN30dense_hashtable_const_iteratorINSt3__24pairIK10KeyWrapperIPK19Il2CppGenericMethodEP10MethodInfoEES6_N6il2cpp8metadata23Il2CppGenericMethodHashEN14dense_hash_mapIS6_S9_SD_NS6_14EqualsComparerINSC_26Il2CppGenericMethodCompareEEENS0_9allocatorISA_EEE9SelectKeyESH_SJ_EppEv
v4f:_UInt32_ToString_m2066897296_AdjustorThunk
dP:__Z13RegisterClassI13AudioListenerEvv
vjb:__ZN24GenerateTypeTreeTransfer19TransferSTLStyleMapINSt3__23mapI4PPtrI6ShaderEN4core12basic_stringIcNS6_20StringStorageDefaultIcEEEENS1_4lessIS5_EENS1_9allocatorINS1_4pairIKS5_SA_EEEEEEEEvRT_17TransferMetaFlags
aAd:_Enumerator_Reset_m4274366540
Oqc:__Z18Transfer_BlittableI9JSONWriteLb0E8Vector3fEvRK29SerializationCommandArgumentsR31RuntimeSerializationCommandInfo
yca:__ZN13RuntimeStaticI17UniqueIDGeneratorLb0EE13StaticDestroyEPv
Sf:_emscripten_glUniform4i
mDc:_otv_FeatureList_validate
cf:_emscripten_glUniform4f
Bj:___unlock
eBj:_GC_default_oom_fn
uCc:_otv_validate
q_b:__ZN13sorted_vectorINSt3__24pairIN4core12basic_stringIcNS2_20StringStorageDefaultIcEEEES6_EEN10vector_mapIS6_S6_27compare_tstring_insensitiveIS6_E13stl_allocatorIS7_L18MemLabelIdentifier38ELi16EEE13value_compareESD_E9erase_oneIS6_EEjRKT_
vbg:_DefaultComparer__ctor_m963958896_gshared
uqf:_X509Certificate_Equals_m3784196370
DCh:_List_1__ctor_m3376067838_gshared
BM:__ZN20SoundChannelInstance19setReverbPropertiesEP29FMOD_REVERB_CHANNELPROPERTIES
Fkg:_Enumerator_MoveNext_m1446151600_gshared
iof:_SHA1Internal_ProcessFinalBlock_m1403775421
Lci:__ZL87Canvas_t3310196443_CustomAttributesCacheGenerator_Canvas_get_sortingLayerID_m3685979122P21CustomAttributesCache
CZh:__ZL69Math_t1671470975_CustomAttributesCacheGenerator_Math_Sqrt_m1297338011P21CustomAttributesCache
xkc:__Z40Register_UnityEngine_Transform_IsChildOfv
xse:_RemotingServices_GetOrCreateClientIdentity_m648299611
tHe:_InternalEnumerator_1_get_Current_m2356858238_AdjustorThunk
bgc:__Z45Register_UnityEngine_Display_GetSystemExtImplv
Jaf:_RSAManaged_ImportParameters_m1844641996
hPh:__ZL67AssemblyProductAttribute_t1000945320_CustomAttributesCacheGeneratorP21CustomAttributesCache
IJa:__ZN9GfxDevice31DrawIndexedNullGeometryIndirectE16GfxPrimitiveTypeP9GfxBuffer15ComputeBufferIDj
$Je:_Enumerator_System_Collections_IDictionaryEnumerator_get_Value_m3325938730_AdjustorThunk
rv:__ZN7mecanim9animation23TransformValuesFromClipEiiiRKNS_10ValueArrayERKNS0_10ClipOutputERKNS0_12ClipBindingsERS1_RNS_14ValueArrayMaskEb
voi:_Array_qsort_TisOrderBlock_t1585977831_TisOrderBlock_t1585977831_m1675918557_gshared
oSe:_ValueCollection_System_Collections_ICollection_get_SyncRoot_m1114275063_gshared
SXi:__ZL17log2withScale_128yyi
VKf:_Guid_Equals_m1866984197
KPc:__ZNSt3__218__insertion_sort_3IRNS_6__lessIN2UI14DepthSortEntryES3_EEPS3_EEvT0_S7_T_
jLe:_Enumerator__ctor_m65667165_gshared
GVd:_PlatformNotSupportedException__ctor_m1787918017
Oda:__ZN13RuntimeStaticI15DirectorManagerLb0EE16StaticInitializeEPv
efh:_ReadOnlyCollection_1_System_Collections_ICollection_CopyTo_m2643246984_gshared
Rcb:__ZN11TimeManager6UpdateEv
wqh:_Enumerator_System_Collections_IEnumerator_get_Current_m209407522_gshared
Vgd:_StreamingContext_GetHashCode_m2281950854_AdjustorThunk
Fxe:_InternalEnumerator_1__ctor_m619554185_AdjustorThunk
U7c:_CanvasScaler_get_fallbackScreenDPI_m2811935689
Pse:_WellKnownServiceTypeEntry_get_ObjectUri_m560402900
Eyf:_DateTimeFormatInfo_ReadOnly_m890935083
Ygh:_ReadOnlyCollection_1_System_Collections_ICollection_get_SyncRoot_m1280260618_gshared
Mmi:__ZL81ValueProperty_t1868393739_CustomAttributesCacheGenerator_m_EnumTypeIsCustomizableP21CustomAttributesCache
HKj:_fflush
O3:__ZN17LightProbeContext4InitERK16LightmapSettingsRK14RenderSettings
DIg:__Z82RuntimeInvoker_Int32_t2950945753_RuntimeObject_Int32_t2950945753_SByte_t1669577662PFvvEPK10MethodInfoPvPS4_
JTb:__ZN18DeferredRenderLoop14RenderLightingER21ActiveLightingContextP13RenderTexture9TextureIDPS3_iRK8Vector4fRK14LightingLayersR10MinMaxAABBb12ObjectHandleI17RenderSurface_TagP17RenderSurfaceBaseE
mzg:_SceneManager_Internal_ActiveSceneChanged_m3676176255
Exi:_X509Certificate_GetIssuerName_m1142198382
kDi:_ExpressionAssertion_set_Negate_m1236561973
bFf:_Double_System_IConvertible_ToInt16_m3591921965
F8a:__ZN9Texture3DD2Ev
e9g:_Collection_1_set_Item_m4280581817_gshared
ifd:_Image_get_fillMethod_m1027254375
Tji:__ZL60Slider_t3903728902_CustomAttributesCacheGenerator_m_MaxValueP21CustomAttributesCache
t7:__ZN10ColorRGBAf8TransferI19StreamedBinaryWriteILb0EEEEvRT_
jWh:__ZL97CompressedStack_t1202932761_CustomAttributesCacheGenerator_CompressedStack_CreateCopy_m2591279216P21CustomAttributesCache
lDd:_Convert_ToChar_m2796006345
_Uf:_Array_InternalArray__Insert_TisContentType_t1787303396_m3566390691_gshared
Guj:__ZNSt3__26vectorI20Il2CppStackFrameInfoNS_9allocatorIS1_EEE7reserveEj
mSh:__ZL82MethodDictionary_t207894204_CustomAttributesCacheGenerator_U3CU3Ef__switchU24map21P21CustomAttributesCache
nxd:_ArrayListWrapper_GetEnumerator_m2336495952
$Vb:__Z34ProcessIndexListIsNodeVisibleStep2RK22SceneCullingParametersPK9SceneNodePK4AABBR9IndexList
iFb:__ZN10MonoScriptD2Ev
Lza:__ZN6prcoreL12RemapGenericI17TexFormatARGB888817TexFormatBGRA8888EEvPKNS_9InnerInfoE
tHa:__ZN19ConstantBuffersGLES8UpdateCBE5CbKeyPKvj
B7c:_U3COnFinishSubmitU3Ec__Iterator0_System_Collections_Generic_IEnumeratorU3CobjectU3E_get_Current_m2586882303
EMi:_AudioSource_get_spatializeInternal_m2117549793
nhc:__Z39Input_CUSTOM_INTERNAL_get_mousePositionP8Vector3f
rqd:_SimpleEnumerator__ctor_m353509656
$Ec:_tt_cmap13_char_next
eei:__ZL117EventSystem_t1003666588_CustomAttributesCacheGenerator_EventSystem_t1003666588____lastSelectedGameObject_PropertyInfoP21CustomAttributesCache
doa:__ZN9ShaderLab4Pass16SetupPassOptionsEv
iCh:_List_1_GetIndex_m1042356532_gshared
gh:_JS_Sound_ReleaseInstance
bqa:__ZN13GfxDeviceGLES19DrawBuffersIndirectEP9GfxBufferPK18VertexStreamSourceiP17VertexDeclaration17ShaderChannelMask16GfxPrimitiveType15ComputeBufferIDj
HKf:_Guid_CheckArray_m921056615
ome:_ConfigHandler_ReadLifetine_m208994800
OYc:__ZN20UnityConnectSettings16CheckConsistencyEv
Ycj:__ZNK15dense_hashtableINSt3__24pairIK10KeyWrapperINS1_IPK10MethodInfoP11Il2CppClassEEEjEES9_17ReflectionMapHashIS8_EN14dense_hash_mapIS9_jSD_NS9_14EqualsComparerINS0_8equal_toIS8_EEEENS0_9allocatorISB_EEE9SelectKeyESI_SK_E12test_deletedEj
K2f:_UInt16_System_IConvertible_ToByte_m3185614807_AdjustorThunk
Vie:_SecurityParameters_set_ServerWriteMAC_m3003817350
lCb:__Z29Transfer_Blittable_ArrayFieldI18StreamedBinaryReadILb0EEaEvRT_R9ArrayInfoRK23StaticTransferFieldInfo
_wg:_Rect_get_max_m350137314_AdjustorThunk
Fm:FUNCTION_TABLE_diddi
cmj:__ZN6il2cpp6icalls8mscorlib6System5Array8FastCopyEP11Il2CppArrayiS5_ii
Hic:__Z26Material_CUSTOM_SetIntImplP12Il2CppObjectii
_Za:__Z32TransferEnumWithNameForceIntSizeI14SafeBinaryRead15TextureWrapModeEvRT_RT0_PKc17TransferMetaFlags
b7i:__ZNSt3__26vectorIPK10MethodInfoNS_9allocatorIS3_EEE21__push_back_slow_pathIRKS3_EEvOT_
qZg:__Z54RuntimeInvoker_Boolean_t97287965_LabelFixup_t858502054PFvvEPK10MethodInfoPvPS4_
X6b:__ZN8GUILayerD2Ev
lAh:_List_1_Clear_m2244610185_gshared
dhc:__Z42Register_UnityEngine_RectOffset_get_bottomv
BNh:__ZL55BinaryReader_t2428077293_CustomAttributesCacheGeneratorP21CustomAttributesCache
iKj:_newlocale
nVd:_ObjectDisposedException_get_Message_m1666887471
rrb:__ZN9BoundsInt8TransferI14SafeBinaryReadEEvRT_
$Fj:__GLOBAL__sub_I_Runtime_cpp_39599
oOj:dynCall_di
_md:_X509Certificate_get_SubjectName_m3160893681
Fpg:_BaseInvokableCall_AllowInvoke_m878393606
vqc:__Z28RegisterModule_JSONSerializev
ojj:_il2cpp_monitor_enter
Pjb:__ZN2UI13RectTransform8TransferI14SafeBinaryReadEEvRT_
Hrc:__Z35Transfer_Blittable_FixedBufferFieldI9JSONWriteaEvRK29SerializationCommandArgumentsR31RuntimeSerializationCommandInfo
Ulg:_Behaviour_get_enabled_m753527255
ubc:__Z20IsHumanControllingUsv
ARe:_Enumerator_MoveNext_m181298207_gshared
N1g:__Z44RuntimeInvoker_ParameterModifier_t1461694466PFvvEPK10MethodInfoPvPS4_
MW:__ZNK20DynamicHeapAllocatorI17LowLevelAllocatorE10GetPtrSizeEPKv
RCh:_List_1_System_Collections_IList_get_IsReadOnly_m3278465421_gshared
vNh:__ZL51TextInfo_t3810425522_CustomAttributesCacheGeneratorP21CustomAttributesCache
FMa:__ZN10systeminfo21GetPersistentDataPathEv
vIi:_SymmetricTransform_get_KeepLastBlock_m2492071306
Qpa:__ZN13GfxDeviceGLES17DestroyGpuProgramEPK10GpuProgram
Zni:_Array_InternalArray__set_Item_TisRaycastResult_t3360306849_m730888808_gshared
Nnb:__Z44InitializeTransferFunctionScriptingTraitsForI18StreamedBinaryReadILb0EEEvR31TransferFunctionScriptingTraits
bRe:_Enumerator_System_Collections_IEnumerator_Reset_m53411943_gshared
dSb:__ZNSt3__218__insertion_sort_3IR23CompareReflectionProbesP31RuntimeReflectionProbeBlendInfoEEvT0_S5_T_
utb:__ZN12NativeBufferI27Converter_SimpleNativeClassI8GradientEE15SetupForWritingER9ArrayInfo
i7e:_Kernel_RightShift_m2207393597
wga:__ZNSt3__213__stable_sortIRNS_4lessIN4core12basic_stringIcNS2_20StringStorageDefaultIcEEEEEENS_11__wrap_iterIPS6_EEEEvT0_SC_T_NS_15iterator_traitsISC_E15difference_typeEPNSF_10value_typeEi
bmi:__ZL48Shadow_t773074319_CustomAttributesCacheGeneratorP21CustomAttributesCache
q8:__ZN12_GLOBAL__N_113StaticDestroyEPv
fYj:_glUnmapBuffer__wrapper
eQe:_Transform_1__ctor_m3369371265_gshared
nvc:__ZN8JSONRead21TransferSTLStyleArrayINSt3__26vectorI8Gradient13stl_allocatorIS3_L18MemLabelIdentifier1ELi16EEEEEEvRT_17TransferMetaFlags
mdb:__ZNSt3__218__insertion_sort_3IRNS_6__lessINS_4pairIPKN5Unity4TypeE7Hash128EES8_EEPS8_EEvT0_SC_T_
g7c:_U3CDelayUpdateU3Ec__Iterator0_Dispose_m2972384857
XTe:_InputField_set_onValueChanged_m3658917578
cvb:__ZN10RectOffset8TransferI24GenerateTypeTreeTransferEEvRT_
xui:_TlsClientSettings_get_ClientCertificate_m3139459118
ZKd:_BinaryReader__ctor_m2266204403
Ode:__ZN21InterfaceFuncInvoker5IiP22ByteU5BU5D_t4116647657iiS1_iE6InvokeEjP11Il2CppClassP12Il2CppObjectS1_iiS1_i
mjg:_Enumerator_VerifyState_m3047769867_AdjustorThunk
oub:__Z18Transfer_BlittableI24GenerateTypeTreeTransferLb1E5RectTIiEEvRK29SerializationCommandArgumentsR31RuntimeSerializationCommandInfo
inc:__ZN16GUIKeyboardStateD2Ev
uPc:__ZN2UI13CanvasManager19RemoveDirtyRendererEPNS_6CanvasEPNS_14CanvasRendererE
kJj:_isspace
Wse:_BinaryFormatter__ctor_m2620705134
KGb:__Z15GetIApplicationv
QWc:__ZN11UnityEngine15PlatformWrapper25GetGraphicsRendererStringEv
OYf:_UTF7Encoding_InternalGetBytes_m797138468
tV:__ZN11UnityEngine15CloudWebService17WebFileDownloaderINS0_20WebRequestRestClientENS0_23WebRequestRestHeaderMapEED2Ev
ub:invoke_vi
Pnd:_SmallXmlParser_HandleWhitespaces_m549588711
Wsc:__ZN9JSONWrite8TransferI13dynamic_arrayI9BoundsIntLj4EEEEvRT_PKc17TransferMetaFlags
Qb:invoke_vd
rb:invoke_vf
szi:_Regex_get_RightToLeft_m2317867572
x3:__ZNK10GameObject8IsActiveEv
Kfc:__Z34Component_Get_Custom_PropTransformP12Il2CppObject
Nci:__ZL83Canvas_t3310196443_CustomAttributesCacheGenerator_Canvas_get_rootCanvas_m3165691493P21CustomAttributesCache
rci:__ZL67g_UnityEngine_PhysicsModule_Assembly_CustomAttributesCacheGeneratorP21CustomAttributesCache
txi:_X509Certificate_get_SignatureAlgorithm_m122054440
WCa:__ZN18GfxFramebufferGLES23SetupDefaultFramebufferEPP17RenderSurfaceBaseS2_N2gl6HandleILNS3_10ObjectTypeE9EEE
seh:_ReadOnlyCollection_1_get_Item_m3437922467_gshared
Lad:_DefaultControls_CreateDropdown_m3286664171
A6a:__ZN13ScreenManager18RequestOrientationE17ScreenOrientation
B_i:__ZN6il2cpp2vm5Class12SetupMethodsEP11Il2CppClass
Mcc:__Z39DeleteLastPathNameComponentWithAnySlashRKN4core12basic_stringIcNS_20StringStorageDefaultIcEEEE
tmc:__ZN10GUIManager14InitGUIManagerEv
mRg:__Z77RuntimeInvoker_Void_t1185182177_RegexOptionsU26_t1638284957_SByte_t1669577662PFvvEPK10MethodInfoPvPS4_
pli:__ZL78LayoutRebuilder_t541313304_CustomAttributesCacheGenerator_U3CU3Ef__amU24cache1P21CustomAttributesCache
H7i:__ZNSt3__26vectorIP11Il2CppClassNS_9allocatorIS2_EEE26__swap_out_circular_bufferERNS_14__split_bufferIS2_RS4_EE
k3f:_UInt16_Equals_m642257745
Xpd:_Array_System_Collections_IList_IndexOf_m3301661616
wWd:_AssemblyFileVersionAttribute__ctor_m3720707642
qDg:_WaitForSeconds__ctor_m2199082655
q7d:_RuntimeResourceSet_CloneDisposableObjectIfPossible_m2725520898
Okd:_HMACSHA384_set_ProduceLegacyHmacValues_m76936446
Coc:__Z37Register_UnityEngine_GUIStyle_Cleanupv
Ma:invoke_iiifii
t2e:_SliderEvent__ctor_m3149452941
hmd:_DeriveBytes__cctor_m1212925033
w6c:_UIBehaviour_OnDestroy_m1613239498
_6b:__ZN8GUILayer12AddToManagerEv
tdd:_Graphic_OnDisable_m1097930217
u7i:__ZN6il2cpp6icalls8mscorlib6System8MonoType13IsPointerImplEP20Il2CppReflectionType
Ti:_emscripten_glFramebufferRenderbuffer
OUb:__ZN19CullingGroupManager17CullAndSendEventsERK22SceneCullingParametersiRK13CullingOutputRK8JobFence
fle:__ZN21InterfaceFuncInvoker3IP12Il2CppObjectP8String_tS1_PS3_E6InvokeEjP11Il2CppClassS1_S3_S1_S4_
UWi:_AnimationLayerMixerPlayable_GetHandle_m3854437798_AdjustorThunk
$uh:_List_1_ToArray_m2949058867_gshared
B4h:__ZL98DataUtility_t2196215967_CustomAttributesCacheGenerator_DataUtility_Internal_GetMinSize_m2628270685P21CustomAttributesCache
mRa:__ZN9Transform30EnsureTransformHierarchyExistsEv
g1f:_Type_FilterName_impl_m2651733559
Lqd:_Array_GetValue_m116098292
k9f:_Dictionary_2_System_Collections_Generic_ICollectionU3CSystem_Collections_Generic_KeyValuePairU3CTKeyU2CTValueU3EU3E_Add_m1448015620_gshared
Eec:__Z46Register_UnityEngine_Application_get_isPlayingv
cbh:_Collection_1_ClearItems_m2182923889_gshared
e_b:__ZNSt3__26vectorINS_4pairIN4core12basic_stringIcNS2_20StringStorageDefaultIcEEEEPK17MessageIdentifierEENS_9allocatorISA_EEE12__move_rangeEPSA_SE_SE_
nOb:__ZN14qsort_internal17MedianOfThreeSwapIP17RODataReplacement19ROSorterReplacementEEvT_S4_S4_T0_
uuf:_String_Split_m3646115398
_xg:_RectOffset_ToString_m2007443979
rZi:__ZNK15dense_hashtableINSt3__24pairIK10KeyWrapperIPK22Il2CppGenericParameterEP11Il2CppClassEES6_N6il2cpp5utils11PointerHashIS4_EEN14dense_hash_mapIS6_S9_SE_NS6_14EqualsComparerINS0_8equal_toIS5_EEEENS0_9allocatorISA_EEE9SelectKeyESJ_SL_E3endEv
Hcc:__ZN17TransformInternal36OnScaleChangedCalculateTransformTypeE15TransformAccess
rNa:__ZN17ArchiveFileSystem10ToAbsoluteEPKc
CXc:__ZN19UnityConnectService15GetPlayerUserIdEv
iRf:_Array_InternalArray__IndexOf_TisSByte_t1669577662_m4156538463_gshared
or:__ZN7mecanim6CRCKeyENS_7eStringE
oac:__ZL12SetPrefValueRKN4core12basic_stringIcNS_20StringStorageDefaultIcEEEERK9PrefValue
Zai:__ZL81GUIStyle_t3956901511_CustomAttributesCacheGenerator_GUIStyle_get_name_m2109418832P21CustomAttributesCache
mia:__ZL30ReconstructParamNamesFromTableIN9ShaderLab20SerializedSubProgram15MatrixParameterEEvRK14dense_hash_mapIiN4core17string_with_labelILi1EEE18SInt32HashFunctionNSt3__28equal_toIiEE13stl_allocatorINS8_4pairIKiS6_EEL18MemLabelIdentifier1ELi16EEERNS8_6vectorIT_NS8_9allocatorISL_EEEE
h9a:__ZN19ShaderPropertySheet20ReservePropertyCountEj
Tyj:__ZN6il2cpp5utils11StringUtils6PrintfEPKcz
Lkj:__ZNSt3__26vectorIN6il2cpp8metadata18GenericArrayMethodENS_9allocatorIS3_EEE7reserveEj
Jma:__ZN15NameToObjectMapI6ShaderNSt3__23mapI4PPtrIS0_EN4core12basic_stringIcNS5_20StringStorageDefaultIcEEEENS1_4lessIS4_EENS1_9allocatorINS1_4pairIKS4_S9_EEEEEENS1_8multimapIS9_S4_NSA_IS9_EENSC_INSD_IKS9_S4_EEEEEEE4FindERSK_
m2a:__ZN24GenerateTypeTreeTransfer21TransferResourceImageE19ActiveResourceImagePKcR13StreamingInfoPvjiPKN5Unity4TypeE
hqi:_Array_Sort_TisVector3_t3722313464_m1030213405_gshared
luj:__ZN6il2cpp2vm6Object5CloneEP12Il2CppObject
g9h:__ZL94TextGenerator_t3211863866_CustomAttributesCacheGenerator_TextGenerator_Dispose_cpp_m1826354328P21CustomAttributesCache
EGj:__ZN6il2cpp6icalls8mscorlib6System9Threading5Mutex20CreateMutex_internalEbP12Il2CppStringPb
sVj:_emscripten_glLinkProgram__wrapper
aog:_Coroutine_Finalize_m1957108547
hIi:_KeyBuilder_Key_m2503211157
PXa:__ZNSt3__212__deque_baseI18ReflectionProbeJobNS_9allocatorIS1_EEED2Ev
Kz:__ZN11UnityEngine9Animation27DestroyAnimationSetBindingsEPNS0_20AnimationSetBindingsERN7mecanim6memory9AllocatorE
sia:__ZN15dense_hashtableINSt3__24pairIKiN4core17string_with_labelILi1EEEEEi18SInt32HashFunctionN14dense_hash_mapIiS5_S7_NS0_8equal_toIiEE13stl_allocatorIS6_L18MemLabelIdentifier1ELi16EEE9SelectKeyESA_SD_E13set_empty_keyERKS6_
Qng:_Component_GetComponentInChildren_m388868270
Rgg:_GenericEqualityComparer_1_Equals_m1705889345_gshared
sE:__ZN8Animator12CleanupClassEv
lvc:__Z13TransferFieldI8JSONReadLb0E27Converter_SimpleNativeClassI10RectOffsetEEvRK23StaticTransferFieldInfoR31RuntimeSerializationCommandInfoRT1_
jed:__ZN21InterfaceFuncInvoker0IiE6InvokeEjP11Il2CppClassP12Il2CppObject
Zdf:_FtpWebRequest__cctor_m699542155
Nrj:__GLOBAL__sub_I_GenericMetadata_cpp
MJh:__ZL70RuntimeArray_CustomAttributesCacheGenerator_Array_SetValue_m3412648248P21CustomAttributesCache
vRi:__ZL25UnresolvedVirtualCall_202P12Il2CppObject22ColorBlock_t2139031574PK10MethodInfo
Ycf:_NameObjectCollectionBase_GetEnumerator_m3677320185
CVb:__Z24CalculateSpotLightBoundsffRK10Matrix4x4fR15SpotLightBounds
dTi:_ListPool_1_Get_m3176656818_gshared
Z7f:_Dictionary_2_TryGetValue_m3495031886_gshared
GZa:__ZNK13RenderTexture21GetShadowSamplingModeEv
CR:__ZN23CloudWebServicesManager23VirtualRedirectTransferER14SafeBinaryRead
_bf:_PKCS12_AddCertificate_m3857004455
y_e:_GetRayIntersectionAllCallback__ctor_m391992746
QEb:__Z19ShouldTransferFieldR32SerializationCommandQueueBuilder17ScriptingClassPtriR18TransferField_InfoRK20CoreScriptingClasses
oUh:__ZL67RSACryptoServiceProvider_t2683512874_CustomAttributesCacheGeneratorP21CustomAttributesCache
_2g:__Z56RuntimeInvoker_Int32_t2950945753_SpriteState_t1362986479PFvvEPK10MethodInfoPvPS4_
Mrf:_SecurityElement_IsValidText_m1346599242
k1b:__Z33PPtrToObjectDontLoadNoThreadCheckI8MaterialEPT_4PPtrIS1_E
THa:__ZN26SinglePassStereoSupportExt21SetStereoMatrixCommonE21MonoOrStereoscopicEye24BuiltinShaderMatrixParamRK10Matrix4x4f
Vae:_ARC4Managed_TransformBlock_m1687647868
pyc:__ZL21InitializeCachedStripPv
q8f:_Dictionary_2_System_Collections_Generic_ICollectionU3CSystem_Collections_Generic_KeyValuePairU3CTKeyU2CTValueU3EU3E_Add_m3652125112_gshared
EWh:__ZL80Thread_t2300836069_CustomAttributesCacheGenerator_Thread_GetHashCode_m3479107071P21CustomAttributesCache
Zmj:__ZN6il2cpp6icalls8mscorlib6System9Threading6Thread23GetCachedCurrentCultureEP12Il2CppThread
oY:__ZNK6Camera22GetWorldToCameraMatrixEv
zNj:runPostSets
Buj:__ZN6il2cpp2vm12GenericClass11IsValueTypeEP18Il2CppGenericClass
LDb:__ZN13MonoBehaviour7SetNameEPKc
Dqe:_MethodDictionary_IsOverridenKey_m946843558
mNd:_FileStream_BeginRead_m2419864669
sSi:_U3CStartU3Ec__Iterator0_MoveNext_m4270440387_gshared
n2i:__ZN10KeyWrapperIN6il2cpp5utils13dynamic_arrayIPK10Il2CppTypeLj4EEEEC2ERKS7_
GIb:__ZN17InstancingBatcher22FindCBUpperBoundKonstsEv
c8:__GLOBAL__sub_I_runtime_shaders_shaderimpl_0_cpp
Kgb:__ZN18AwakeFromLoadQueue5ClearEv
KNd:_FileStream_SetLength_m99749826
dUb:__ZNSt3__27__sort5IR15ReflProbeSorterPP15ReflectionProbeEEjT0_S6_S6_S6_S6_T_
Bea:__ZN8Playable10DisconnectEPS_i
xk:_glGenTransformFeedbacks
hMa:__ZN13LoadOperationD2Ev
Mci:__ZL86Canvas_t3310196443_CustomAttributesCacheGenerator_Canvas_set_sortingLayerID_m861680532P21CustomAttributesCache
Lrh:_List_1_System_Collections_ICollection_get_SyncRoot_m1990178029_gshared
wGd:_Int16_System_IConvertible_ToType_m3672347013
CZe:_Navigation_set_mode_m3709908198_AdjustorThunk
$1f:_Type_GetProperty_m4206634422
wod:_AttrListImpl_GetValue_m3657391095
BHb:__Z21PlayerStartFirstSceneb
iDh:_List_1_CheckIndex_m3933537097_gshared
Y0a:__ZNSt3__27__sort5IRPFbRKNS_4pairIN9ShaderLab16FastPropertyNameEN18UnityPropertySheet11UnityTexEnvEEES8_EPS6_EEjT0_SD_SD_SD_SD_T_
hva:__ZNK7ApiGLES18GetExtensionStringEv
KCh:_List_1_System_Collections_IList_IndexOf_m2444653486_gshared
VPg:__Z50RuntimeInvoker_SecurityCompressionType_t4242483129PFvvEPK10MethodInfoPvPS4_
uTj:_emscripten_glVertexAttrib1f__wrapper
wbg:_DefaultComparer_GetHashCode_m402448534_gshared
Qkb:__ZNK12HandlerChain4SizeERK13FileEntryData
cp:FUNCTION_TABLE_iiiiiiiii
ILe:_Enumerator_Dispose_m1360775770_AdjustorThunk
qGh:_Collection_1_ClearItems_m1096166028_gshared
Dfh:_ReadOnlyCollection_1_System_Collections_Generic_ICollectionU3CTU3E_Remove_m4177779688_gshared
Dvd:_Char_IsLetter_m3996985877
_Dh:_Queue_1_Peek_m2302800625_gshared
hJh:__ZL51Delegate_t1188392813_CustomAttributesCacheGeneratorP21CustomAttributesCache
ikh:_Comparison_1_EndInvoke_m2438956051_gshared
Euh:_List_1_AddCollection_m4263017124_gshared
DBj:_GC_allochblk
_ne:__ZN21InterfaceFuncInvoker1IbP19Context_t3285446944E6InvokeEjP11Il2CppClassP12Il2CppObjectS1_
Ugb:__Z15UnloadGameScenev
QTf:_Array_InternalArray__ICollection_CopyTo_TisKeyframe_t4206410242_m2132255743_gshared
aYj:_glCheckFramebufferStatus__wrapper
$ed:_Image__ctor_m2551076292
J6f:_Dictionary_2_System_Collections_ICollection_CopyTo_m3143696177_gshared
agj:__ZN15dense_hashtableINSt3__24pairIK10KeyWrapperIPK14Il2CppAssemblyEPK22Il2CppMonoAssemblyNameEES6_N6il2cpp5utils11PointerHashIS4_EEN14dense_hash_mapIS6_SA_SF_NS6_14EqualsComparerINS0_8equal_toIS5_EEEENS0_9allocatorISB_EEE9SelectKeyESK_SM_E5clearEv
THg:__Z103RuntimeInvoker_Void_t1185182177_Int32_t2950945753_Int32_t2950945753_Int32_t2950945753_SByte_t1669577662PFvvEPK10MethodInfoPvPS4_
WD:__ZN16MecanimAnimationD0Ev
$kc:__Z36Renderer_Get_Custom_PropSortingOrderP12Il2CppObject
pcj:__ZNK15dense_hashtableINSt3__24pairIK10KeyWrapperIPK10Il2CppTypeEjEES6_N6il2cpp8metadata14Il2CppTypeHashEN14dense_hash_mapIS6_jSB_NS6_14EqualsComparerINSA_26Il2CppTypeEqualityComparerEEENS0_9allocatorIS8_EEE9SelectKeyESF_SH_E13find_positionERS7_
wZa:__ZN7Texture5ResetEv
Qtb:__Z18Transfer_BlittableI24GenerateTypeTreeTransferLb0E8Vector2fEvRK29SerializationCommandArgumentsR31RuntimeSerializationCommandInfo
DUh:__ZL54SHA384Managed_t74158575_CustomAttributesCacheGeneratorP21CustomAttributesCache
Gne:_Context_get_HasDynamicSinks_m3952434387
cXf:_Latin1Encoding_GetByteCount_m1145650505
Ftb:__Z18Transfer_BlittableI24GenerateTypeTreeTransferLb1EhEvRK29SerializationCommandArgumentsR31RuntimeSerializationCommandInfo
Umc:__ZN8GUIState18CycleKeyboardFocusERNSt3__26vectorIP6IDListNS0_9allocatorIS3_EEEEb
zAb:__Z13TransferFieldI18StreamedBinaryReadILb1EELb0E16Converter_StringEvRK23StaticTransferFieldInfoR31RuntimeSerializationCommandInfoRT1_
kcg:_DefaultComparer_GetHashCode_m177499767_gshared
fbb:__ZN10VertexData10DeallocateEv
R9i:__ZNSt3__214__split_bufferIiRNS_9allocatorIiEEEC2EjjS3_
nec:__ZNK16TypeTreeIterator10ByteOffsetEv
JOj:dynCall_iiifii
xda:__ZnwjRKSt9nothrow_t
UC:__ZN8Animator11ClearObjectEv
olh:_Nullable_1_GetHashCode_m4232053575_gshared
qpd:_ApplicationException__ctor_m2557611022
R$a:__ZN14SafeBinaryRead19TransferSTLStyleMapINSt3__23mapI39DeprecatedFastPropertyNameSerializationN18UnityPropertySheet11UnityTexEnvENS1_4lessIS3_EENS1_9allocatorINS1_4pairIKS3_S5_EEEEEEEEvRT_17TransferMetaFlags
pAh:_List_1_CheckMatch_m579516778_gshared
Btd:_Buffer_ByteLengthInternal_m1388208719
Sei:__ZL92PointerEventData_t3807901092_CustomAttributesCacheGenerator_U3CworldNormalU3Ek__BackingFieldP21CustomAttributesCache
qTf:_Array_InternalArray__ICollection_CopyTo_TisInt64_t3736567304_m2845057751_gshared
iec:__Z35UnregisterSerializationCacheBuilderPFv17ScriptingClassPtrR23CachedSerializationDataRbE
xIh:__ZL52ICloneable_t724424198_CustomAttributesCacheGeneratorP21CustomAttributesCache
OJd:_Int64_System_IConvertible_ToUInt32_m109903525_AdjustorThunk
f4:__Z30GetBuiltinVectorParamArraySize24BuiltinShaderVectorParam
WTf:_Array_InternalArray__ICollection_CopyTo_TisUICharInfo_t75501106_m4268526610_gshared
vbj:__ZNSt3__218uninitialized_copyIPNS_4pairIK10KeyWrapperINS1_IPK14Il2CppAssemblyP11Il2CppClassEEEjEESC_EET0_T_SE_SD_
pZa:__ZN13RenderTextureC2E10MemLabelId18ObjectCreationMode
MGd:_Int32_GetFormatException_m519586683
MVh:__ZL46StringBuilder_t_CustomAttributesCacheGeneratorP21CustomAttributesCache
Pig:_Enumerator_MoveNext_m1131351993_gshared
uLd:_BinaryReader_ReadSByte_m3736742795
kti:_Array_InternalArray__get_Item_TisVector2_t2156229523_m2502961026_gshared
F6:__ZN21RendererUpdateManager11AddRendererER8Renderer
O2b:__Z13RegisterClassI15ResourceManagerEvv
uNi:_AudioConfigurationChangeHandler_Invoke_m1233557945
wob:__Z35Transfer_Blittable_FixedBufferFieldI14SafeBinaryReadsEvRK29SerializationCommandArgumentsR31RuntimeSerializationCommandInfo
kab:__ZN14SafeBinaryRead21TransferSTLStyleArrayI13dynamic_arrayIfLj4EEEEvRT_17TransferMetaFlags
pDd:_Convert_ToDateTime_m3802186295
Uyj:__ZN6il2cpp5utils11StringUtils11Utf16ToUtf8EPKDs
tfb:__ZN18StreamedBinaryReadILb0EE21TransferSTLStyleArrayINSt3__26vectorIN15ResourceManager10DependencyE13stl_allocatorIS5_L18MemLabelIdentifier52ELi16EEEEEEvRT_17TransferMetaFlags
d5f:_UInt64_CompareTo_m1614517204_AdjustorThunk
fXc:__ZN11UnityEngine15PlatformWrapper20IsRootedOrJailbrokenEv
kLb:__ZZ23InitPlayerLoopCallbacksvEN52PreLateUpdateScriptRunBehaviourLateUpdateRegistrator7ForwardEv
xVb:__Z33IntersectAABBPlaneBoundsOptimizedRK4AABBPKN4math7_float4Ei
DYb:__ZN19ScriptingInvocation6InvokeI28ScriptingSystemTypeObjectPtrEET_P21ScriptingExceptionPtrb
fqa:__ZN9GfxDevice19EndGeometryJobFrameEv
dGi:_GUILayoutUtility_Layout_m1159951704
eTe:_InputField_get_shouldActivateOnSelect_m3055465770
Vbg:_DefaultComparer_Equals_m2269092119_gshared
ztb:__ZN27Converter_SimpleNativeClassI17AnimationCurveTplIfEE17ScriptingToNativeER18ScriptingObjectPtrPS1_
f1f:_Type__cctor_m2371893800
pHj:__ZN6il2cpp8metadata24Il2CppGenericInstCompare7CompareERK10KeyWrapperIPK17Il2CppGenericInstES8_
Q0i:__ZNK15dense_hashtableINSt3__24pairIK10KeyWrapperIPK19Il2CppGenericMethodEPK26Il2CppGenericMethodIndicesEES6_N6il2cpp8metadata23Il2CppGenericMethodHashEN14dense_hash_mapIS6_SA_SE_NS6_14EqualsComparerINSD_26Il2CppGenericMethodCompareEEENS0_9allocatorISB_EEE9SelectKeyESI_SK_E5beginEv
X2c:_ExecuteEvents_Execute_m3049310229
Dt:__ZN27AnimationLayerMixerPlayable21UpdateLayerParametersEv
X4h:__ZL84Object_t631007953_CustomAttributesCacheGenerator_Object_DestroyImmediate_m2288369078P21CustomAttributesCache
S$d:__ZN21InterfaceFuncInvoker1IiP12MemberInfo_tE6InvokeEjP11Il2CppClassP12Il2CppObjectS1_
mqd:_Array_get_IsSynchronized_m3066873806
hw:__ZN7mecanim9animation16CopyMotionOutputEPKNS0_18AnimationNodeStateEPS1_bbRKNS_6bitsetILj83EEE
X0b:__ZNK17AnimationCurveTplIfE8EvaluateEfPNS0_5CacheE
oKb:__Z31ManagerContextInitializeClassesv
Mfh:_ReadOnlyCollection_1_System_Collections_IList_Contains_m2650112051_gshared
zLf:_Array_get_swapper_TisVector3_t3722313464_m1221246401_gshared
ufh:_ReadOnlyCollection_1_CopyTo_m1950082901_gshared
hGc:_ft_smooth_transform
DGc:_UNITY_FT_List_Finalize
YGj:__ZN6il2cpp6icalls8mscorlib6System7Runtime8Remoting10Activation18ActivationServices34AllocateUninitializedClassInstanceEP20Il2CppReflectionType
qPb:__Z20LightAttenuateApproxRKfS0_
v7:__ZN9Scripting30SetCachedPtrOnScriptingWrapperE18ScriptingObjectPtrP6Object
LAd:_HashKeys_get_IsSynchronized_m174400341
$W:__ZN17LowLevelAllocator6MallocEj
p_g:__Z57RuntimeInvoker_Int32_t2950945753_KeyValuePair_2_t71524366PFvvEPK10MethodInfoPvPS4_
Toh:_UnityEvent_1__ctor_m1789019280_gshared
ylf:_RepeatContext_get_IsMinimum_m3640286252
fFg:__Z64RuntimeInvoker_Boolean_t97287965_RuntimeObject_Int32_t2950945753PFvvEPK10MethodInfoPvPS4_
jAe:_InternalEnumerator_1__ctor_m4055378331_AdjustorThunk
Yue:_ObjectRecord_ChainFixup_m1889316362
SUa:__ZN18BlockRangeInternal16PopLastNodeIndexEP10BlockRangeji
nAj:__ZN6il2cpp2vm13CachedCCWBaseINS0_13ManagedObjectEE6AddRefEv
zdj:__ZN6il2cpp2gc19AppendOnlyGCHashMapINSt3__24pairIPK11Il2CppImageP11Il2CppClassEEP22Il2CppReflectionModule17ReflectionMapHashIS9_ENS2_8equal_toIS9_EEE10CopyValuesEPv
k6c:_TouchInputModule_UpdateModule_m2582897964
G9a:__ZN4MeshD0Ev
r0c:__ZL42RequestRecreateEyeTexturesBeforeNextUpdatev
NEa:__ZNK6Camera20IsCurrentlyRenderingEv
qv:__ZN21AnimationClipPlayable23ProcessRootMotionNoClipEPK35AnimationPlayableEvaluationConstantPK32AnimationPlayableEvaluationInputP33AnimationPlayableEvaluationOutput
hSc:__Z36CanvasRenderer_CUSTOM_SetPopMaterialP12Il2CppObjectS0_i
LRi:__ZL25UnresolvedVirtualCall_218P12Il2CppObject39CustomAttributeNamedArgument_t287865710PK10MethodInfo
Orc:__Z18Transfer_BlittableI9JSONWriteLb0EdEvRK29SerializationCommandArgumentsR31RuntimeSerializationCommandInfo
dDc:_otv_u_O_O_u_O_O
LSa:__ZN6Camera8TransferI19StreamedBinaryWriteILb0EEEEvRT_
tBf:_DBNull_System_IConvertible_ToSByte_m3533624679
FJj:_wctomb
tvd:_Char_CompareTo_m42489266
R$g:__Z67RuntimeInvoker_Void_t1185182177_Int32_t2950945753_Double_t594665363PFvvEPK10MethodInfoPvPS4_
qfc:__Z27Camera_CUSTOM_GetAllCamerasP11Il2CppArray
MDb:__ZNK13MonoBehaviour25GetNeedsPerObjectTypeTreeEv
IAb:__Z35Transfer_Blittable_FixedBufferFieldI18StreamedBinaryReadILb0EEiEvRK29SerializationCommandArgumentsR31RuntimeSerializationCommandInfo
Zc:___cxa_rethrow
S5d:_ParameterInfo_GetCustomAttributes_m2376494592
rtc:__Z18Transfer_BlittableI8JSONReadLb1EhEvRK29SerializationCommandArgumentsR31RuntimeSerializationCommandInfo
ldd:_Graphic_get_canvasRenderer_m315509948
J5g:_Collection_1_System_Collections_IList_Contains_m3397768605_gshared
FZe:_Navigation_set_selectOnUp_m827629728_AdjustorThunk
kTg:__Z90RuntimeInvoker_Void_t1185182177_Int64_t3736567304_Int32_t2950945753_RuntimeObject_IntPtr_tPFvvEPK10MethodInfoPvPS4_
BTj:_glBindRenderbuffer__wrapper
qri:_Dictionary_2_Do_CopyTo_TisInt32_t2950945753_TisInt32_t2950945753_m3384108308_gshared
gcc:__ZN10systeminfo23SupportsLocationServiceEv
lJf:_CultureInfo_construct_internal_locale_from_name_m3254739477
Oie:_RSASslSignatureDeformatter_VerifySignature_m1061897602
zaf:_RSAManaged_remove_KeyGenerated_m2046909903
rld:_RandomNumberGenerator_Create_m4162970280
BUf:_Array_InternalArray__Insert_TisLabelFixup_t858502054_m171542753_gshared
NGe:_InternalEnumerator_1_System_Collections_IEnumerator_get_Current_m3539708496_AdjustorThunk
Elb:__ZN20LocalFileSystemPosix4ReadER13FileEntryDatayyPvPy
OSb:__ZNSt3__211__sift_downIRN23ForwardShaderRenderLoop18RenderObjectSorterILb0EEEP21ForwardRenderPassDataEEvT0_S7_T_NS_15iterator_traitsIS7_E15difference_typeES7_
xqf:_SecurityPermission__ctor_m1462427327
ZPj:dynCall_iiiiiiffiiiiiiiiiffffiiii
$Db:__ZN13MonoBehaviour5DoGUIENS_13GUILayoutTypeEii
ule:_ChannelData_get_ClientProviders_m594662942
JAi:_QuickSearch_GetChar_m1297698557
ZKa:__ZNK12TLSAllocatorI14StackAllocatorE8ContainsEPKv
Tcb:__ZN11TimeManager8TransferI18StreamedBinaryReadILb0EEEEvRT_
jEg:__Z68RuntimeInvoker_Boolean_t97287965_Int16_t2552820387_SByte_t1669577662PFvvEPK10MethodInfoPvPS4_
Szf:_DateTime__ParseEnum_m253019513
uFd:_Convert_ToUInt32_m2194577773
grf:_PermissionSet__ctor_m2328457660
U6:__ZN15dense_hashtableINSt3__24pairIKyP17VertexDeclarationEEy14GfxGenericHashIyEN14GfxDoubleCacheIyS4_S7_NS0_8equal_toIyEEN31GfxDoubleCacheConcurrencyPolicy11LocklessGetE42GfxDoubleCacheDefaultEmptyDeletedGeneratorIyEE9SelectKeyESA_13stl_allocatorIS5_L18MemLabelIdentifier24ELi16EEE12resize_deltaEjj
uAd:_Hashtable_Remove_m4032631466
wuc:__Z18Transfer_BlittableI8JSONReadLb1EyEvRK29SerializationCommandArgumentsR31RuntimeSerializationCommandInfo
j$h:__ZL91RSASslSignatureFormatter_t2709678514_CustomAttributesCacheGenerator_U3CU3Ef__switchU24map16P21CustomAttributesCache
_1a:__ZN7Texture25ReloadFromStorageIfNeededEPvb
EQf:_Array_InternalArray__IndexOf_TisBoolean_t97287965_m1161209222_gshared
gGj:__ZN6il2cpp2os12Cryptography24OpenCryptographyProviderEv
qci:__ZL55RaycastHit2D_t2279581989_CustomAttributesCacheGeneratorP21CustomAttributesCache
$xd:_SynchronizedArrayListWrapper_Clear_m2191301493
FHc:_Update_Max
slh:_Predicate_1__ctor_m2943702050_gshared
lmj:__ZN6il2cpp6icalls8mscorlib6SystemL15ThrowNoWideningEv
g1b:__ZNK23TransformChangeDispatch24GetChangeMaskForInterestENS_12InterestTypeE
I8b:__ZN8Playable5PauseEv
bkc:__Z45Transform_CUSTOM_INTERNAL_CALL_TransformPointP12Il2CppObjectRK8Vector3fRS1_
l$d:_GenericTypeParameterBuilder_InvokeMember_m1647304778
Yed:_HorizontalOrVerticalLayoutGroup_set_childControlWidth_m3261460516
g0a:__ZNSt3__26__treeINS_12__value_typeI39DeprecatedFastPropertyNameSerializationfEENS_19__map_value_compareIS2_S3_NS_4lessIS2_EELb1EEENS_9allocatorIS3_EEE7destroyEPNS_11__tree_nodeIS3_PvEE
zFc:_tt_cmap4_char_index
T6c:_AspectRatioFitter_GetParentSize_m3159144324
Hsf:_SecurityFrame_get_Assembly_m2874566710
vxe:_InternalEnumerator_1__ctor_m2336656763_AdjustorThunk
zDh:_Enumerator_System_Collections_IEnumerator_Reset_m1487823313_gshared
_kb:__ZNK12HandlerChain8IsHiddenERK13FileEntryData
yuh:_List_1_System_Collections_IList_get_IsFixedSize_m1752888098_gshared
Psb:__ZL26Transfer_SimpleNativeClassI17RemapPPtrTransfer10RectOffsetLb0EEvRK29SerializationCommandArgumentsR31RuntimeSerializationCommandInfo
zMc:__Z14ValidateFormatR13dynamic_arrayIN20TextRenderingPrivate16TextFormatChangeELj4EE
v1e:_ScrollRect_CalculateLayoutInputVertical_m3155297482
lJd:_Int32_ToString_m2507389746_AdjustorThunk
CDf:_Decimal_op_Explicit_m438967917
DSh:__ZL55IChannelInfo_t3866172133_CustomAttributesCacheGeneratorP21CustomAttributesCache
mXi:_AnimatorControllerPlayable_SetHandle_m2260644454_AdjustorThunk
PGf:_Environment_get_SocketSecurityEnabled_m190813817
KSg:__Z53RuntimeInvoker_Void_t1185182177_Vector4U26_t200349727PFvvEPK10MethodInfoPvPS4_
z7h:__ZL57UnityEventBase_t3960448221_CustomAttributesCacheGeneratorP21CustomAttributesCache
UOd:_NullStream_Flush_m3382897993
Mja:__ZNSt3__26vectorIN9ShaderLab20SerializedSubProgram13BufferBindingENS_9allocatorIS3_EEEC2ERKS6_
RTe:_InputField_set_selectionColor_m2084640295
ori:_Dictionary_2_Do_CopyTo_TisKeyValuePair_2_t2401056908_TisKeyValuePair_2_t2401056908_m676905794_gshared
b4:__ZNK9ShaderLab20ShaderBlendStateDesc15ToGfxBlendStateEPK19ShaderPropertySheetS3_R13GfxBlendState
GMe:_Enumerator_System_Collections_IEnumerator_get_Current_m1747693366_AdjustorThunk
ime:_ConfigHandler_OnIgnorableWhitespace_m278399491
RXh:__ZL77Convert_t2465617642_CustomAttributesCacheGenerator_Convert_ToInt64_m260173354P21CustomAttributesCache
oz:__ZN11UnityEngine9AnimationL22GenericBindingCallbackEPvS1_i
kHc:_Compute_Point_Displacement
loa:__ZN9ShaderLab9IntShaderC2Ev
Tkh:_Func_3__ctor_m1375075958_gshared
B7i:__ZN6il2cpp6icalls8mscorlib6SystemL9IsPrivateEPK9EventInfo
ZFj:__ZN6il2cpp6icalls8mscorlib6System10Reflection4Emit11TypeBuilder20setup_internal_classEP27Il2CppReflectionTypeBuilderS7_
Zac:__Z18TransformPoints3x4RK10Matrix4x4fPK8Vector3fjPS2_ji
T_h:__ZL72PKCS12_t4101533061_CustomAttributesCacheGenerator_U3CU3Ef__switchU24mapCP21CustomAttributesCache
bRf:_Array_InternalArray__IndexOf_TisILTokenInfo_t2325775114_m2602704009_gshared
S3h:__ZL52Matrix4x4_t1817901843_CustomAttributesCacheGeneratorP21CustomAttributesCache
z8f:_Dictionary_2_System_Collections_IDictionary_GetEnumerator_m972834308_gshared
gyh:_List_1_System_Collections_ICollection_get_IsSynchronized_m967177678_gshared
TXf:_StringBuilder_AppendFormat_m3255666490
CVd:_OverflowException__ctor_m4029085969
a2d:_TypeBuilder_GetGenericArguments_m2872156836
wqe:_MethodCall_get_Uri_m1720935531
bZi:__ZN13Il2CppHashMapIPK22Il2CppGenericParameterP11Il2CppClassN6il2cpp5utils11PointerHashIS1_EENSt3__28equal_toIS2_EENS9_9allocatorINS9_4pairIK10KeyWrapperIS2_ES4_EEEEEC2EjRKS8_RKSB_
O9e:_KeyPairPersistence_Remove_m1876145547
HMa:__Z15CreateDirectoryRKN4core12basic_stringIcNS_20StringStorageDefaultIcEEEE
EYa:__Z21CalculateGlobalMatrix23TransformAccessReadOnly
b2d:_TypeBuilder_GetGenericTypeDefinition_m1632720438
OLf:_Array_InternalArray__ICollection_Contains_TisLink_t544317964_m163190451_gshared
JAf:_DateTimeOffset_System_IComparable_CompareTo_m176229495_AdjustorThunk
isg:_ManagedStreamHelpers_ValidateLoadFromStream_m580138133
tbi:__ZL104GUIUtility_t1868551600_CustomAttributesCacheGenerator_GUIUtility_EndContainerGUIFromException_m530164245P21CustomAttributesCache
Ycb:__ZNK13BuildSettings22GetTypeVirtualInternalEv
Acd:_FontData_get_alignByGeometry_m2805576119
eBe:_InternalEnumerator_1__ctor_m1486034688_gshared
Txb:__Z35Transfer_Blittable_FixedBufferFieldI18StreamedBinaryReadILb1EEhEvRK29SerializationCommandArgumentsR31RuntimeSerializationCommandInfo
YWh:__ZL56AppDomainSetup_t123196401_CustomAttributesCacheGeneratorP21CustomAttributesCache
qBh:_List_1_CheckIndex_m2250397830_gshared
M2b:__Z13RegisterClassI14RenderSettingsEvv
Cvg:_PlayableOutput_GetHandle_m777137769_AdjustorThunk
zTi:_FontTextureRebuildCallback_EndInvoke_m3732346867
z:tempBigIntI
Xlf:_Interval_get_Empty_m3617514670
S1g:__Z31RuntimeInvoker_Mark_t3471605523PFvvEPK10MethodInfoPvPS4_
iWd:_Assembly_GetName_m981771927
l0h:__ZL53RegexOptions_t92845595_CustomAttributesCacheGeneratorP21CustomAttributesCache
Fx:__ZN7mecanim12statemachine24CreateStateMachineOutputEPKNS0_20StateMachineConstantEjRNS_6memory9AllocatorE
zuj:__ZN6il2cpp2vm12GenericClass8GetClassEP18Il2CppGenericClass
Gqa:__ZNK9GfxDevice27GetActiveRenderSurfaceWidthEv
Ufi:__ZL114StandaloneInputModule_t2760469101_CustomAttributesCacheGenerator_StandaloneInputModule_ForceAutoSelect_m2837047882P21CustomAttributesCache
SWc:__ZN11UnityEngine15PlatformWrapper28GetCleanGraphicsFixedVersionEv
qZe:_MaskableGraphic_RecalculateClipping_m1772937317
yRd:_UnmanagedMemoryStream_SetLength_m3752964620
vmb:__ZN16MemoryFileSystem5WriteER13FileEntryDatayyPvPy
Ije:_SslStreamBase_RaiseLocalPrivateKeySelection_m4112368540
xaj:__ZN6il2cpp2vm4Type7GetTypeEPK10Il2CppType
KLc:_open_face_PS_from_sfnt_stream
HBe:_InternalEnumerator_1_get_Current_m165106323_AdjustorThunk
DYf:_UTF32Encoding_GetByteCount_m3610769032
zAa:__ZN6prcoreL17RemapGenericFloatI18TexFormatRGBAFloat17TexFormatRGBAHalfEEvPKNS_9InnerInfoE
OLb:__Z16FindCameraStacksRKNSt3__24listI4PPtrI6CameraENS_9allocatorIS3_EEEERNS_6vectorI11CameraStackNS4_ISA_EEEE
Bzi:_MatchCollection_CopyTo_m3807326147
x4a:__ZN10GISettings8TransferI14SafeBinaryReadEEvRT_
xn:FUNCTION_TABLE_vifff
bki:__ZL54Text_t1901882714_CustomAttributesCacheGenerator_m_TextP21CustomAttributesCache
gld:_MD5CryptoServiceProvider__ctor_m3271163125
jZb:__ZN19CustomRenderTexture12ClearGPUDataEv
PSi:_ListPool_1_Get_m2875520964_gshared
hWh:__ZL95UnicodeEncoding_t1959134050_CustomAttributesCacheGenerator_UnicodeEncoding_GetBytes_m3223155660P21CustomAttributesCache
FZa:__ZN13RenderTexture13ApplySettingsEv
Zte:_ObjectReader_RegisterObject_m1853376334
O0d:_ModuleBuilderTokenGenerator_GetToken_m2588853565
Msd:_Boolean_System_IConvertible_ToDecimal_m3176932461_AdjustorThunk
Xe:_JS_Sound_SetListenerPosition
pn:FUNCTION_TABLE_fiffi
lSg:__Z54RuntimeInvoker_Int32_t2950945753_LayerMask_t3493934918PFvvEPK10MethodInfoPvPS4_
b1e:_ScrollRect_OnInitializePotentialDrag_m3139711961
_Ka:__ZNK12TLSAllocatorI14StackAllocatorE10GetPtrSizeEPKv
Gfh:_ReadOnlyCollection_1_System_Collections_Generic_IListU3CTU3E_set_Item_m711370667_gshared
grj:__ZNK15dense_hashtableINSt3__24pairIK10KeyWrapperINS1_IPKcS4_EEEiEES6_24NamespaceAndNamePairHashN14dense_hash_mapIS6_iS9_NS6_14EqualsComparerI26NamespaceAndNamePairEqualsEENS0_9allocatorIS8_EEE9SelectKeyESD_SF_E10test_emptyERK24dense_hashtable_iteratorIS8_S6_S9_SH_SD_SF_E
iXd:_Default_check_arguments_with_score_m3467814020
bWj:_glGetActiveUniform__wrapper
aQd:_StreamWriter_LowLevelWrite_m1081676583
Yph:_Enumerator__ctor_m3875432026_AdjustorThunk
Xda:__ZZN15DirectorManager15InitializeClassEvEN45FixedUpdateDirectorFixedSampleTimeRegistrator7ForwardEv
Qib:__ZNK8Material16MarkDependenciesER27GarbageCollectorThreadState
A2e:_Slider_set_handleRect_m1101657556
XAf:_DateTimeOffset_ToString_m3985341516_AdjustorThunk
cah:_Collection_1_System_Collections_IList_Contains_m3348135931_gshared
Rrc:__ZL17Transfer_GUIStyleI9JSONWriteLb0EEvRK29SerializationCommandArgumentsR31RuntimeSerializationCommandInfo
ZRi:__ZL25UnresolvedVirtualCall_232P12Il2CppObjecti22UILineInfo_t4195266810PK10MethodInfo
iQb:__Z28GetHaloVertexPositionsStereoP8Vector3fRKS_S2_f
oBa:__ZN6prcoreL27StretchGenericFloatBilinearI15TexFormatRGHalfEEvPKNS_9InnerInfoE
gSi:__ZL25UnresolvedVirtualCall_241P12Il2CppObjectiPK10MethodInfo
_7:__GLOBAL__sub_I_runtime_misc_0_cpp
M6f:_Dictionary_2_System_Collections_IDictionary_GetEnumerator_m751864982_gshared
tKf:_SortKey_GetHashCode_m3547067087
eBb:__Z18Transfer_BlittableI18StreamedBinaryReadILb0EELb1E9BoundsIntEvRK29SerializationCommandArgumentsR31RuntimeSerializationCommandInfo
Zji:__ZL71SpriteState_t1362986479_CustomAttributesCacheGenerator_m_DisabledSpriteP21CustomAttributesCache
Sgf:_PublicKey_DecodeDSA_m3490622362
Fic:__Z49Register_UnityEngine_Resources_GetBuiltinResourcev
X1f:_Type_GetMethod_m1479779718
mFc:_tt_cmap10_char_index
Lui:_TlsException__ctor_m3242533711
Bae:_BitConverterLE_GetUIntBytes_m795219058
K5:__Z18GetITerrainManagerv
sBd:_SortedList__ctor_m3676552745
FZi:__ZN15dense_hashtableINSt3__24pairIK10KeyWrapperIPK22Il2CppGenericParameterEP11Il2CppClassEES6_N6il2cpp5utils11PointerHashIS4_EEN14dense_hash_mapIS6_S9_SE_NS6_14EqualsComparerINS0_8equal_toIS5_EEEENS0_9allocatorISA_EEE9SelectKeyESJ_SL_E3endEv
R$i:__ZNK15dense_hashtableINSt3__24pairIK10KeyWrapperIPK11Il2CppClassEPKcEES6_N6il2cpp5utils11PointerHashIS3_EEN14dense_hash_mapIS6_S9_SE_NS6_14EqualsComparerINS0_8equal_toIS5_EEEENS0_9allocatorISA_EEE9SelectKeyESJ_SL_E8min_sizeEjj
lqb:__Z35Transfer_Blittable_SingleValueFieldI14SafeBinaryReadjEvRT_R17GeneralMonoObjectRK23StaticTransferFieldInfo
WP:__ZN11AudioSource24ClearExtensionPropertiesE12PropertyName
pQe:_Transform_1_EndInvoke_m332304766_gshared
Sla:__ZN9ShaderLab22SerializedBindChannels8TransferI19StreamedBinaryWriteILb0EEEEvRT_
GGg:__Z52RuntimeInvoker_Decimal_t2948259380_Int32_t2950945753PFvvEPK10MethodInfoPvPS4_
$qb:__ZN15SerializeTraitsI5RectTIiEE8TransferI14SafeBinaryReadEEvRS1_RT_
wnc:__ZN5IMGUI20MoveWindowFromLayoutER8GUIStateiRK5RectTIfE
BNg:__Z50RuntimeInvoker_SByte_t1669577662_Int64_t3736567304PFvvEPK10MethodInfoPvPS4_
SBc:_UNITY_FT_Stream_ReadUShort
q7g:_Collection_1_System_Collections_IList_get_Item_m1677338752_gshared
hhc:__Z51Register_UnityEngine_GUILayer_INTERNAL_CALL_HitTestv
Xha:__ZNSt3__26__treeINS_12__value_typeIN4core12basic_stringIcNS2_20StringStorageDefaultIcEEEES6_EENS_19__map_value_compareIS6_S7_NS_4lessIS6_EELb1EEE13stl_allocatorIS7_L18MemLabelIdentifier1ELi16EEE7destroyEPNS_11__tree_nodeIS7_PvEE
kZd:_DerivedType_IsAssignableFrom_m1623073368
Y_f:_Thread_get_ManagedThreadId_m1068113671
owa:__Z13IsDepthFormat14GraphicsFormat
jeb:__ZN12AspectRatios8TransferI24GenerateTypeTreeTransferEEvRT_
rTd:_MonoType_GetFields_m4176012508
Pxc:__Z12FormatBufferPciPKcz
yxf:_CurrentSystemTimeZone_GetTimeZoneData_m2641861607
aKc:__ZN15SerializeTraitsI13dynamic_arrayI4PPtrIN13TextRendering4FontEELj4EEE19ResizeSTLStyleArrayERS5_i
_dg:_EqualityComparer_1_System_Collections_IEqualityComparer_GetHashCode_m3423304513_gshared
TNh:__ZL57FileSystemInfo_t3745885336_CustomAttributesCacheGeneratorP21CustomAttributesCache
SZi:__ZN6il2cpp2vm5Class13GetArrayClassEP11Il2CppClassj
E5c:_StandaloneInputModule_set_inputActionsPerSecond_m4057208843
NHb:__ZN19RuntimeSceneManager18LoadSceneAsyncIntoER10UnitySceneRKN4core12basic_stringIcNS2_20StringStorageDefaultIcEEEENS_11LoadingModeEb
UQd:_TextWriter_Write_m164803641
krc:__Z35Transfer_Blittable_FixedBufferFieldI9JSONWritetEvRK29SerializationCommandArgumentsR31RuntimeSerializationCommandInfo
Dnc:__ZN11IMGUIModule12AddGUIScriptER8ListNodeI13MonoBehaviourE
pb:invoke_difi
aGi:_GUILayoutUtility_BeginWindow_m2240221150
$Tj:_glDeleteSamplers__wrapper
o9e:_KeyGeneratedEventHandler_EndInvoke_m1628355235
lcf:_HybridDictionary_set_Item_m2997363718
vQb:__ZN29MotionVectorRenderLoopScratch15ThreadedCleanupEv
dMa:__ZNSt3__26__treeIiNS_4lessIiEE13stl_allocatorIiL18MemLabelIdentifier1ELi16EEE7destroyEPNS_11__tree_nodeIiPvEE
jHe:_InternalEnumerator_1_get_Current_m1477715453_AdjustorThunk
Cja:__ZN15SerializeTraitsI13dynamic_arrayItLj2EEE19ResizeSTLStyleArrayERS1_i
X4f:_UInt64_System_IConvertible_ToUInt32_m2784653358
Vva:__ZN21GLESGpuProgramApplier11ApplyVectorERKN20GpuProgramParameters14ValueParameterEPK8Vector4ft
TUb:__Z17PrepareSceneNodesP11CullResults
lBa:__ZN6prcoreL27StretchGenericFloatBilinearI18TexFormatRGBAFloatEEvPKNS_9InnerInfoE
Npj:__ZN15dense_hashtableINSt3__24pairIK10KeyWrapperIP14Il2CppIUnknownEjEES5_N6il2cpp5utils11PointerHashIS3_EEN14dense_hash_mapIS5_jSB_NS5_14EqualsComparerINS0_8equal_toIS4_EEEENS0_9allocatorIS7_EEE9SelectKeyESG_SI_E12expand_arrayEjN21dense_hash_map_traits17integral_constantIbLb0EEE
Ahd:_SByte_System_IConvertible_ToDecimal_m2548745278
Syc:_cff_size_done
sVb:__ZN29ExtractProjectionPlanesHelperILb1EE5ApplyERK10Matrix4x4fP5Plane
r7b:__ZN13ProduceHelperI7CubemapLb0EE7ProduceE10MemLabelId18ObjectCreationMode
BZb:__ZN6Camera34UpdatePreviousViewProjectionMatrixEv
Mma:__ZN9ShaderLab11ShaderState25RemoveUnsupportedProgramsEPK6Shader
xNc:__Z28Font_Get_Custom_PropMaterialP12Il2CppObject
Dsg:_Mathf_Abs_m3281243566
BQd:_SynchronizedWriter_WriteLine_m1552352268
w7d:_DefaultDependencyAttribute__ctor_m502524668
DQg:__Z44RuntimeInvoker_X509KeyUsageFlags_t1431795504PFvvEPK10MethodInfoPvPS4_
bcc:__Z26scripting_class_has_parent17ScriptingClassPtrS_
Zba:__ZN13RuntimeStaticI21AssetReferenceStorageLb0EE16StaticInitializeEPv
EYc:__ZNSt3__26__treeINS_12__value_typeIN4core12basic_stringIcNS2_20StringStorageDefaultIcEEEEN11UnityEngine7Connect19RemoteSettingsValueEEENS_19__map_value_compareIS6_SA_NS_4lessIS6_EELb1EEE13stl_allocatorISA_L18MemLabelIdentifier6ELi16EEE16__construct_nodeERKNS_4pairIKS6_S9_EE
rId:_Int32_System_IConvertible_ToByte_m3832391412_AdjustorThunk
GQ:__Z71Register_UnityEngine_AudioSource_INTERNAL_CALL_ClearExtensionPropertiesv
SJh:__ZL81RuntimeArray_CustomAttributesCacheGenerator_Array_GetValue_m116098292____indices0P21CustomAttributesCache
EC:__ZNK8Animator20IsInMatchTargetStateEv
tDe:_InternalEnumerator_1_System_Collections_IEnumerator_get_Current_m4088805473_gshared
ioc:__Z36Register_UnityEngine_GUI_set_changedv
Pne:_Context_GetServerContextSinkChain_m3154465897
z7d:_FixedBufferAttribute_get_Length_m1478886548
B_e:_GetRayIntersectionAllCallback_EndInvoke_m1583561415
UGi:_GUIStyle_get_fixedHeight_m2868324709
xEd:_Convert_ToInt64_m2075293963
zGj:__GLOBAL__sub_I_Il2CppCodeRegistration_cpp
ax:__ZN27AnimationLayerMixerPlayable18SetInputConnectionEP8Playablei
Lw:__ZN7mecanim28TransformValueArrayBlendNodeEiiiRKNS_10ValueArrayERKNS_14ValueArrayMaskERS0_RS3_RNS_16ValueArrayWeightEf
WPf:__ZN21InterfaceFuncInvoker2Ii20UICharInfo_t75501106S0_E6InvokeEjP11Il2CppClassP12Il2CppObjectS0_S0_
erh:_List_1_GetIndex_m3112872964_gshared
noh:_UnityAction_2_BeginInvoke_m1322091188_gshared
nbd:_Dropdown_set_value_m1048320169
IYi:_CustomEventData_Finalize_m1724721833
HVa:__ZN20TierGraphicsSettings8TransferI18StreamedBinaryReadILb0EEEEvRT_
QId:_Int32_System_IConvertible_ToUInt64_m2502338186_AdjustorThunk
Gfa:__Z33CleanupCubemapGPUUtilityMaterialsPv
Y$a:__ZN14SafeBinaryRead8TransferINSt3__24pairIN9ShaderLab16FastPropertyNameE10ColorRGBAfEEEEvRT_PKc17TransferMetaFlags
IXi:__ZL9rshift128PyS_
Gnd:__ZN23InterfaceActionInvoker1IP25SmallXmlParser_t973787839E6InvokeEjP11Il2CppClassP12Il2CppObjectS1_
gkg:_Enumerator_VerifyState_m169680537_AdjustorThunk
shj:__ZN14dense_hash_mapI10KeyWrapperINSt3__24pairIPK12PropertyInfoP11Il2CppClassEEEj17ReflectionMapHashIS8_ENS9_14EqualsComparerINS1_8equal_toIS8_EEEENS1_9allocatorINS2_IKS9_jEEEEE13set_empty_keyERSH_
ik:_glRenderbufferStorage
ksh:_List_1_Sort_m3734202732_gshared
Nhc:__Z45Register_UnityEngine_Input_get_touchSupportedv
WWc:__ZN11UnityEngine15PlatformWrapper28GetTextureFormatSupportFlagsEv
WL:__ZN11AudioSource23VirtualRedirectTransferER19StreamedBinaryWriteILb0EE
t_b:__ZNSt3__26vectorINS_4pairIN4core12basic_stringIcNS2_20StringStorageDefaultIcEEEES6_EE13stl_allocatorIS7_L18MemLabelIdentifier38ELi16EEE26__swap_out_circular_bufferERNS_14__split_bufferIS7_RSA_EEPS7_
cEi:_Uri_EscapeString_m3864445955
Fzc:_cf2_setError
nli:__ZL78LayoutRebuilder_t541313304_CustomAttributesCacheGenerator_U3CU3Ef__mgU24cache0P21CustomAttributesCache
X9a:__ZN14SafeBinaryRead21TransferSTLStyleArrayI13dynamic_arrayI12BoneWeights4Lj16EEEEvRT_17TransferMetaFlags
DKe:_Enumerator_MoveNext_m465222849_AdjustorThunk
LKb:__ZZ23InitPlayerLoopCallbacksvEN35PreUpdateSendMouseEventsRegistrator7ForwardEv
cqf:_X509Certificate__ctor_m1321742168
lRi:__ZL25UnresolvedVirtualCall_192P12Il2CppObject6Guid_tS1_PK10MethodInfo
uWe:_U3CMouseDragOutsideRectU3Ec__Iterator1_System_Collections_Generic_IEnumeratorU3CobjectU3E_get_Current_m3688496850
PEa:__ZNK6Camera25GetNormalizedViewportRectEP13RenderTextureb
obd:_Dropdown_Awake_m3140021404
bh:_glDisable
u$g:__Z52RuntimeInvoker_Void_t1185182177_UriScheme_t722425697PFvvEPK10MethodInfoPvPS4_
eni:__ZL72EventTrigger_t2527451695_CustomAttributesCacheGenerator_m_LifecycleEventP21CustomAttributesCache
a_a:__ZN13RenderTexture8TransferI24GenerateTypeTreeTransferEEvRT_
mQh:__ZL53IsVolatile_t2097058663_CustomAttributesCacheGeneratorP21CustomAttributesCache
nCg:_Vector2_get_sqrMagnitude_m837837635
sKa:__ZN4PPtrI9Texture2DE8TransferI14SafeBinaryReadEEvRT_
nzj:__ZN6il2cpp5utils11StringUtils15StringDuplicateEPKDsj
wE:__ZZN8Animator15InitializeClassEvEN37FunctorImpl_417kDidModifyOverrideClip4CallEPviR11MessageData
SBi:_Regex_Match_m4145799399
Jv:__ZN17AnimationPlayable17ProcessRootMotionEP35AnimationPlayableEvaluationConstantP32AnimationPlayableEvaluationInputP33AnimationPlayableEvaluationOutput
mvf:_String_IsNullOrEmpty_m2969720369
KQe:_Enumerator_MoveNext_m2602845255_gshared
kUi:_TextGenerator_GetPreferredHeight_m3514897836
N6e:_BigInteger_LowestSetBit_m3082714978
ZEg:__Z78RuntimeInvoker_Int16_t2552820387_RuntimeObject_Int32_t2950945753_RuntimeObjectPFvvEPK10MethodInfoPvPS4_
MYj:b118
NYj:b119
b5h:__ZL81Object_t631007953_CustomAttributesCacheGenerator_Object_set_hideFlags_m1648752846P21CustomAttributesCache
JLb:__ZNK8Material12GetPassCountEv
Bnf:_RSAParameters_t1728406613_marshal_pinvoke
emf:_Interval_IsDisjoint_m1532171337_AdjustorThunk
GYj:b112
DNj:_bitshift64Ashr
IYj:b114
JYj:b115
KYj:b116
LYj:b117
L2i:__ZN30dense_hashtable_const_iteratorINSt3__24pairIK10KeyWrapperIN6il2cpp5utils13dynamic_arrayIPK10Il2CppTypeLj4EEEEPFvvEEESA_NS3_8metadata19Il2CppSignatureHashEN14dense_hash_mapISA_SD_SG_NSA_14EqualsComparerINSF_22Il2CppSignatureCompareEEENS0_9allocatorISE_EEE9SelectKeyESK_SM_E30advance_past_empty_and_deletedEv
$Oj:dynCall_diii
qYe:_LayoutUtility_GetFlexibleWidth_m22831835
Jte:_BinaryFormatter__ctor_m971003555
xwe:_ArrayReadOnlyList_1_ReadOnlyError_m865416608_gshared
$Qg:__Z91RuntimeInvoker_Void_t1185182177_Int32_t2950945753_Int32U26_t1369213839_Int32U26_t1369213839PFvvEPK10MethodInfoPvPS4_
opg:_DisplaysUpdatedDelegate_EndInvoke_m3857124817
izd:_CollectionBase_System_Collections_IList_get_Item_m3743372945
SIf:_CultureInfo_get_Name_m3662098416
NYi:_CustomEventData_Add_m3993893123
Oxa:__ZN4crnd12crn_unpacker22decode_alpha_endpointsEv
TDh:_Queue_1__ctor_m2068090025_gshared
ZVb:__Z23CullDynamicObjectsUmbraPK4AABBPKN5Umbra15OcclusionBufferER9IndexList
Fje:_SslStreamBase_RaiseRemoteCertificateValidation2_m2908038766
AFc:_tt_cmap4_char_next
r5f:_UIntPtr__ctor_m4250165422_AdjustorThunk
g_:__ZN4core8hash_mapIi17ThreadedAwakeDataNS_4hashIiEENSt3__28equal_toIiEEE4growEi
WEg:__Z50RuntimeInvoker_Boolean_t97287965_Int16_t2552820387PFvvEPK10MethodInfoPvPS4_
GDd:_Convert_ToDecimal_m1233667008
JFe:_InternalEnumerator_1_MoveNext_m2734554195_gshared
f_:__ZN4core8hash_mapIi17ThreadedAwakeDataNS_4hashIiEENSt3__28equal_toIiEEE4growEv
E7:__GLOBAL__sub_I_runtime_assetbundles_1_cpp
Jbe:_MD5SHA1_HashCore_m4171647335
OI:__ZN4FMOD7Channel11setPositionEjj
Vh:_glBindSampler
ICj:_GC_reclaim_block
Sde:_ClientContext_get_ClientHelloProtocol_m1654639078
Zh:_glGetVertexAttribiv
$Qe:_Enumerator_System_Collections_IEnumerator_get_Current_m1975949486_gshared
iAi:_PatternCompiler_EmitSub_m193323684
ZOg:__Z74RuntimeInvoker_RuntimeObject_RuntimeObject_SByte_t1669577662_RuntimeObjectPFvvEPK10MethodInfoPvPS4_
ROc:__ZN2UI11CanvasGroup23VirtualRedirectTransferER18StreamedBinaryReadILb0EE
pJd:_Int64_System_IConvertible_ToByte_m375085029
Wuc:__ZN8JSONRead8TransferIbEEvRT_PKc17TransferMetaFlagsb
jog:_CullingGroup_t2096318768_marshal_pinvoke
N0f:_TimeSpan_ToString_m1128692466
bzg:_RequireComponent__ctor_m886241599
SIi:_AesManaged_CreateEncryptor_m2294080233
Gvj:__ZN6il2cpp2os6Thread20SetExplicitApartmentENS0_14ApartmentStateE
IFi:_Event_GetHashCode_m3559153592
znc:__Z26RegisterModuleICalls_IMGUIv
zma:__ZN9ShaderLab9SubShaderD2Ev
Xxc:__ZN19ControllerHitReport13onObstacleHitERKN5physx23PxControllerObstacleHitE
pNg:__Z51RuntimeInvoker_Int16_t2552820387_Single_t1397266774PFvvEPK10MethodInfoPvPS4_
lBj:_GC_promote_black_lists
oDd:_Convert_ToChar_m3757390865
Kvc:__Z29Transfer_Blittable_ArrayFieldI8JSONRead8Vector4fEvRT_R9ArrayInfoRK23StaticTransferFieldInfo
Xn:FUNCTION_TABLE_vf
WWd:_Binder_GetDerivedLevel_m3216810447
vo:FUNCTION_TABLE_vd
tlf:_RepeatContext_get_Start_m1076992038
Y8:__ZN13RuntimeStaticI37UnityShaderCompilerExtPluginConfigureLb0EE16StaticInitializeEPv
pYc:__ZN11UnityEngine7Connect17DeviceStatusEvent20SetDeviceAspectRatioEf
UXf:_StringBuilder_AppendFormat_m2403596038
Ujd:_DSASignatureDeformatter_SetHashAlgorithm_m3186995552
ndh:_ReadOnlyCollection_1_System_Collections_Generic_ICollectionU3CTU3E_Clear_m2772202961_gshared
Zsc:__ZN9JSONWrite8TransferI13dynamic_arrayI4AABBLj4EEEEvRT_PKc17TransferMetaFlags
GJi:_EventTrigger_get_lifecycleEvent_m3324346053
XE:__ZNK8Animator17HasBoundPlayablesEv
l7d:_ResourceSet_ReadResources_m3663669011
N6g:_Collection_1_GetEnumerator_m3990758110_gshared
v_f:_SynchronizationContext_SetSynchronizationContext_m1249070039
__h:__ZL74X509Crl_t1148767388_CustomAttributesCacheGenerator_U3CU3Ef__switchU24map13P21CustomAttributesCache
dBh:_List_1_AddEnumerable_m1267044261_gshared
_Ec:_tt_cmap13_char_index
T7i:__ZN6il2cpp2vm7Runtime9SetConfigEPKc
Lpc:__ZN5Unity9rapidjson12PrettyWriterI16TempBufferWriterNS0_4UTF8IcEES4_13JSONAllocatorE10StartArrayEv
ta:invoke_iiifiii
syg:_RectTransform_INTERNAL_get_pivot_m2970933031
aoh:_UnityAction_1_Invoke_m927447181_gshared
joj:__ZN6il2cpp2vm9Exception11FromNameMsgEPK11Il2CppImagePKcS6_S6_
Arj:__ZNSt3__26__treeINS_12__value_typeIP24Il2CppReflectionAssemblyPvEENS_19__map_value_compareIS3_S5_NS_4lessIS3_EELb1EEENS_9allocatorIS5_EEE12__find_equalIS3_EERPNS_16__tree_node_baseIS4_EESH_RKT_
fn:FUNCTION_TABLE_fiiifii
_ea:__Z14GetTimeManagerv
Ing:_Color32_op_Implicit_m213813866
Uxg:_RectOffset_set_top_m713260669
IKh:__ZL61ArrayReadOnlyList_1_t221793636_CustomAttributesCacheGeneratorP21CustomAttributesCache
K_c:__ZN19TransportJavaScript7CleanupEv
OPa:__Z12GUIDToStringRK9UnityGUIDPc
Xba:__ZN15FileSystemEntry4LockE12FileLockModeP12FileAccessor
KXj:_emscripten_glDrawArrays__wrapper
D7i:__ZN6il2cpp6icalls8mscorlib6SystemL16CheckMemberMatchI9EventInfoNS_5utils10functional6FilterINSt3__212basic_stringIcNS8_11char_traitsIcEENS8_9allocatorIcEEEENS5_13VmStringUtils23CaseInsensitiveComparerEEEEEbPKT_PK11Il2CppClassSN_iRKT0_
ZId:_Int32_Equals_m2976157357
VRg:__Z110RuntimeInvoker_Int32_t2950945753_Int32_t2950945753_Int32_t2950945753_Int32U26_t1369213839_Int32U26_t1369213839PFvvEPK10MethodInfoPvPS4_
VBh:_List_1_System_Collections_IList_get_IsReadOnly_m1601400230_gshared
wyd:_BitArray_get_IsSynchronized_m3546284417
lM:__ZN11AudioSource22UnmuteActiveVideoSinksEv
Jui:_TlsException__ctor_m3717683709
kzj:__ZN4utf88internal20is_overlong_sequenceIiEEbjT_
O1i:__ZN6il2cpp2vm13MetadataCache8RegisterEPK22Il2CppCodeRegistrationPK26Il2CppMetadataRegistrationPK20Il2CppCodeGenOptions
G5e:_SortKeyBuffer__ctor_m1384677558
bcd:_U3CDelayedDestroyDropdownListU3Ec__Iterator0_System_Collections_IEnumerator_get_Current_m1619733476
kYh:__ZL79Convert_t2465617642_CustomAttributesCacheGenerator_Convert_ToUInt16_m4064261444P21CustomAttributesCache
sRa:__Z9SetLocalR15TransformAccessRKN4math7_float4Ey
WRb:__Z30SetupBakedOcclusionForGeometrybRK26SharedLightmapSettingsDataRK15LightmapIndicesR17ShaderPassContext
a0d:_MethodBuilder_get_Attributes_m2740229145
Vfc:__Z41Register_UnityEngine_Cursor_get_lockStatev
sRb:__Z14SetupLightmapsRK8Vector4fS1_R17ShaderPassContext
Sfj:__ZN14dense_hash_mapI10KeyWrapperIPK14Il2CppAssemblyEPK22Il2CppMonoAssemblyNameN6il2cpp5utils11PointerHashIS2_EENS4_14EqualsComparerINSt3__28equal_toIS3_EEEENSD_9allocatorINSD_4pairIKS4_S7_EEEEE13set_empty_keyERSJ_
V_a:__ZL20InitializeGUIShadersv
SKf:_Guid_CompareTo_m243656946
q1b:__Z20DestroyObjectDelayedP6Objectf
GW:__ZN20DynamicHeapAllocatorI17LowLevelAllocatorED0Ev
EKd:_IntPtr_ToPointer_m4157623054
Zfe:_Context_get_LastHandshakeMsg_m2730646725
o4b:__ZN11TimeManagerC2E10MemLabelId18ObjectCreationMode
QOb:__ZN9DepthPassD2Ev
GH:__ZN11AudioFilter6GetDSPEv
Xaf:_SymmetricTransform_CFB_m1051508796
qle:_UrlAttribute_GetPropertiesForNewContext_m2281450996
Anf:_RSACryptoServiceProvider_OnKeyGenerated_m863837376
Rxh:_List_1_get_Capacity_m3047075120_gshared
zWg:__Z31RuntimeInvoker_Mode_t1066900953PFvvEPK10MethodInfoPvPS4_
v$e:_Scrollbar_OnDrag_m4289602768
Kaa:__ZN19RuntimeSceneManager14CanUnloadSceneEP10UnityScene
SOb:__Z22ExtractRenderNodeQueueRK11CullResults15ExtractionFlagsR15RenderNodeQueue
ygg:_GenericEqualityComparer_1_GetHashCode_m457148860_gshared
Bwj:__ZN6il2cpp2vm6Method7GetNameEPK10MethodInfo
fsa:__ZN9GfxDevice16CreateTimerQueryEv
LG:__ZN24AudioScriptBufferManagerC2Ev
Swc:__ZN11UnityEngine9Analytics18SceneLoadTimeEvent12ToJsonStringER9JSONWrite
jLc:__ZNSt3__26vectorIh13stl_allocatorIhL18MemLabelIdentifier1ELi16EEE8__appendEj
nFe:_InternalEnumerator_1_System_Collections_IEnumerator_get_Current_m3854084659_AdjustorThunk
hTe:_OnValidateInput_Invoke_m1009124904
Ave:_U3CGetEnumeratorU3Ec__Iterator0_System_Collections_IEnumerator_get_Current_m283764921_gshared
xeg:_EqualityComparer_1_System_Collections_IEqualityComparer_GetHashCode_m3578195399_gshared
lLc:__ZN20TextRenderingPrivate8FontImpl16ResetPackingDataEv
VHf:_CultureInfo_get_IcuName_m2258611679
Jqc:__Z18Transfer_BlittableI9JSONWriteLb0EfEvRK29SerializationCommandArgumentsR31RuntimeSerializationCommandInfo
$wa:__Z21GetAsyncUploadManagerv
Mj:_emscripten_glDetachShader
lYi:_CustomEventData_Add_m2564314129
sQe:_Transform_1_BeginInvoke_m3697921475_gshared
Hyg:_Vector2_op_Subtraction_m73004381
Pwa:__ZN17GenericDynamicVBO20ReleaseChunkInternalERK21DynamicVBOChunkHandlejj
wNc:__ZL27CleanupModule_TextRenderingv
eKj:_fmodl
aCe:_InternalEnumerator_1__ctor_m39232262_gshared
Yaf:_SymmetricTransform_OFB_m3842617151
PV:__Z37RegisterModuleICalls_CloudWebServicesv
WMa:__ZNSt3__26vectorIiNS_9allocatorIiEEE21__push_back_slow_pathIKiEEvRT_
SHb:__ZN19RuntimeSceneManager11CreateSceneEv
lng:_Color__ctor_m286683560
Rzi:_PatternCompiler_Emit_m1540115729
KDc:_ps_get_standard_strings
VRb:__Z27SetupBakedOcclusionForLightbRK15SharedLightDataR17ShaderPassContext
QGj:__ZN6il2cpp2os5Mutex6UnlockEv
SOd:_NullStream_get_Position_m4048431226
FVf:_EncoderFallbackException__ctor_m1051987327
A9g:__ZN21InterfaceFuncInvoker1I19Vector2_t2156229523iE6InvokeEjP11Il2CppClassP12Il2CppObjecti
pge:_Context_set_RandomSC_m2364786761
FTh:__ZL73AsymmetricSignatureDeformatter_t2681190756_CustomAttributesCacheGeneratorP21CustomAttributesCache
ebh:_Collection_1_CopyTo_m2335349786_gshared
V6e:_BigInteger_ToString_m3278248272
$Bf:_Decimal_System_IConvertible_ToBoolean_m1123794670
TZg:__Z98RuntimeInvoker_Int32_t2950945753_RaycastResult_t3360306849_RaycastResult_t3360306849_RuntimeObjectPFvvEPK10MethodInfoPvPS4_
$aa:__Z17CommitBatchDeleteR11BatchDelete
BYe:_Mask__ctor_m1269055150
NWh:__ZL99WaitHandle_t1743403487_CustomAttributesCacheGenerator_WaitHandle_t1743403487____Handle_PropertyInfoP21CustomAttributesCache
Rff:_WebRequest_AddPrefix_m3187775913
Hfi:__ZL98PointerEventData_t3807901092_CustomAttributesCacheGenerator_PointerEventData_get_button_m359423249P21CustomAttributesCache
IHj:__ZNSt3__26__treeINS_12__value_typeIPFvvEPK10MethodInfoEENS_19__map_value_compareIS3_S7_NS_4lessIS3_EELb1EEENS_9allocatorIS7_EEE4findIS3_EENS_15__tree_iteratorIS7_PNS_11__tree_nodeIS7_PvEEiEERKT_
HJf:_NumberFormatInfo_get_CurrencyNegativePattern_m2134016253
w0h:__ZL85UriParser_t3890150400_CustomAttributesCacheGenerator_UriParser_OnRegister_m3283921560P21CustomAttributesCache
Ngi:__ZL59Dropdown_t2274391225_CustomAttributesCacheGenerator_m_ValueP21CustomAttributesCache
mMb:__Z18RenderImageFiltersR10RenderLoopb
dSc:__Z43CanvasRenderer_Get_Custom_PropMaterialCountP12Il2CppObject
eSb:__ZNSt3__227__insertion_sort_incompleteIR23CompareReflectionProbesP31RuntimeReflectionProbeBlendInfoEEbT0_S5_T_
Jxh:_List_1_Remove_m1457733883_gshared
dwc:__ZN8JSONRead21TransferSTLStyleArrayI13dynamic_arrayI11QuaternionfLj4EEEEvRT_17TransferMetaFlags
vp:__ZN6Object23VirtualRedirectTransferER19StreamedBinaryWriteILb1EE
vec:__ZNK9BlobWrite24HasOffsetPtrWithDebugPtrEv
tIh:__ZL80String_t_CustomAttributesCacheGenerator_String_FormatHelper_m3913915042____args3P21CustomAttributesCache
K3d:_MonoEventInfo_GetEventInfo_m873645389
JFd:_Convert_ToUInt64_m1745056470
xbe:_MD4Managed_Encode_m386285215
oca:__ZN10InputEventD2Ev
wwb:__Z18Transfer_BlittableI19StreamedBinaryWriteILb0EELb0E5RectTIfEEvRK29SerializationCommandArgumentsR31RuntimeSerializationCommandInfo
gsf:_SecurityElement_get_Children_m1231540612
OEe:_InternalEnumerator_1_MoveNext_m1590908934_AdjustorThunk
R$c:__ZN22UnityWebRequestManagerD2Ev
wFi:_Event_get_character_m1666742088
S2g:__Z112RuntimeInvoker_Boolean_t97287965_CustomAttributeNamedArgument_t287865710_CustomAttributeNamedArgument_t287865710PFvvEPK10MethodInfoPvPS4_
LJj:_isalpha
V$e:_U3CClickRepeatU3Ec__Iterator0_Dispose_m4248496038
kDd:_Convert_ToChar_m1442101407
Hje:_SslClientStream_OnLocalPrivateKeySelection_m1934775249
NGi:_GUILayoutEntry_CalcWidth_m3962591050
led:__ZN21InterfaceFuncInvoker1IP19Graphic_t1660335611iE6InvokeEjP11Il2CppClassP12Il2CppObjecti
ZAf:_DateTimeOffset_get_Offset_m2040541042_AdjustorThunk
n8h:__ZL80Logger_t274032455_CustomAttributesCacheGenerator_U3ClogHandlerU3Ek__BackingFieldP21CustomAttributesCache
P5i:__ZN6il2cpp2vmL17IsSocketAsyncCallEP14Il2CppDelegate
XAd:_Slot_t3975888750_marshal_pinvoke_back
Kyj:__ZN6il2cpp2vm6String6NewLenEPKcj
g5:__Z25GetBuiltinTexEnvParamNamei
MFb:__ZN17PersistentManager9AddStreamEv
zvj:__ZN6il2cpp2os6Thread12GetApartmentEv
BJa:__ZN9GfxDevice28UpdateComputeConstantBuffersEjP12ObjectHandleI18ConstantBuffer_TagPvEjjPKhPKjS8_PKi
bl:_time
v9c:_ContentSizeFitter_set_verticalFit_m1831566876
Ypf:_TripleDESCryptoServiceProvider_CreateDecryptor_m740960117
Llc:__ZN16memory_pool_implILi28EE15AutoPoolWrapper12UninitializeEPv
YVg:__Z122RuntimeInvoker_Void_t1185182177_Color_t2555686324_Single_t1397266774_SByte_t1669577662_SByte_t1669577662_SByte_t1669577662PFvvEPK10MethodInfoPvPS4_
vsg:_Material_EnableKeyword_m329692301
sAc:_cf2_stack_free
Uof:_SHA512Managed_HashCore_m2377807474
ZJd:_Int64_Parse_m3309897583
AIf:_CompareInfo_IndexOf_m667936183
GBh:_List_1__ctor_m2203182218_gshared
xv:__ZN7mecanim9animation19EvaluateFloatValuesEPKNS0_18ClipMuscleConstantEPKNS_18ValueArrayConstantEPKNS0_12ClipBindingsEPKNS0_10ClipOutputEPNS0_18AnimationNodeStateEfbb
Wwg:_Rect_get_min_m847841034_AdjustorThunk
iD:__ZN8Animator31ClearInternalControllerPlayableEv
_Ha:__ZN26SinglePassStereoSupportExt18AfterSetViewMatrixEv
Zlg:_Bounds__ctor_m1937678907_AdjustorThunk
Lzg:_SetupCoroutine_InvokeMember_m2661944898
rhg:_HashSet_1__ctor_m620629637_gshared
sgf:_X509EnhancedKeyUsageExtension_ToString_m350388564
u0d:_MethodBuilder_get_Module_m2693263127
Ebj:__ZN15dense_hashtableINSt3__24pairIK10KeyWrapperINS1_IPK9FieldInfoP11Il2CppClassEEEjEES9_17ReflectionMapHashIS8_EN14dense_hash_mapIS9_jSD_NS9_14EqualsComparerINS0_8equal_toIS8_EEEENS0_9allocatorISB_EEE9SelectKeyESI_SK_E4findERSA_
Oxd:_SimpleEnumerator_MoveNext_m3113120129
rhd:_RuntimeTypeHandle_GetHashCode_m3999856879_AdjustorThunk
RHb:__ZN13LoadOperationC2E10MemLabelId
jTe:_InputField_SendOnValueChanged_m2560301445
SCi:_CapturingGroup_get_Name_m3747712535
AXb:__ZN13RenderTexture19SetAutoGenerateMipsEb
vya:__Z20GetTextureFormatInfo13TextureFormat
rYi:_CustomEventData_AddByte_m3440715081
Ddf:_TypeConverterAttribute_Equals_m1580461255
Bce:_RSAManaged_ToXmlString_m2369501989
iy:__ZN26AnimatorControllerPlayable8GetFloatEiRf
lWe:_InputField_get_layoutPriority_m2945430764
kyf:_DateTime_System_IConvertible_ToSingle_m2193708681_AdjustorThunk
dmf:_Interval_get_Size_m4163671410_AdjustorThunk
WBi:_Regex_ToString_m1548107455
NRf:_NoAllocHelpers_SafeLength_TisVector2_t2156229523_m3807819939_gshared
hPc:__ZN2UI14CanvasRenderer13AwakeFromLoadE17AwakeFromLoadMode
lIh:__ZL64String_t_CustomAttributesCacheGenerator_String_Split_m3580120853P21CustomAttributesCache
Lqf:_String_memcpy4_m979367827
gFj:__ZN6il2cpp5utils10MemoryPool6MallocEj
dG:__ZN11SoundHandle8InstanceD2Ev
X6d:_ResourceEnumerator_Reset_m3754276504
Cfa:__ZN31CanvasBatchIntermediateRenderer13StaticDestroyEPv
r$:__ZNSt3__23mapIiP15MonoScriptCacheNS_4lessIiEE13stl_allocatorINS_4pairIKiS2_EEL18MemLabelIdentifier78ELi16EEEixERS7_
j4i:__ZNK15dense_hashtableINSt3__24pairIK10KeyWrapperIPK11Il2CppClassEPKcEES6_N6il2cpp5utils11PointerHashIS3_EEN14dense_hash_mapIS6_S9_SE_NS6_14EqualsComparerINS0_8equal_toIS5_EEEENS0_9allocatorISA_EEE9SelectKeyESJ_SL_E10test_emptyERK24dense_hashtable_iteratorISA_S6_SE_SN_SJ_SL_E
ddi:__ZL102CanvasRenderer_t2598313366_CustomAttributesCacheGenerator_CanvasRenderer_set_materialCount_m4286588063P21CustomAttributesCache
qHg:__Z78RuntimeInvoker_Int32_t2950945753_RuntimeObject_RuntimeObject_Int32_t2950945753PFvvEPK10MethodInfoPvPS4_
hTa:__Z26scripting_method_get_class18ScriptingMethodPtr
yUj:_emscripten_glBindProgramARB__wrapper
Sfc:__Z41Register_UnityEngine_CullingGroup_Disposev
mAi:_PatternCompiler_EmitRepeat_m697083858
N2a:__ZN7Cubemap23VirtualRedirectTransferER19StreamedBinaryWriteILb0EE
Lke:_ConstructionLevelActivator__ctor_m3779412964
zOa:__ZN25MultiBlocksMemoryFileData5WriteEyyPKv
I9g:_Collection_1_GetEnumerator_m344341702_gshared
Eej:__ZNSt3__218uninitialized_fillIPNS_4pairIK10KeyWrapperINS1_IPK12PropertyInfoP11Il2CppClassEEEjEESB_EEvT_SD_RKT0_
A6d:_ResourceReader_Read7BitEncodedInt_m3568166465
Kad:_DefaultControls_CreateInputField_m1003102365
I6h:__ZL95Mesh_t3648964284_CustomAttributesCacheGenerator_Mesh_GetIndices_m1466450660____applyBaseVertex1P21CustomAttributesCache
QVi:_CanvasGroup_set_alpha_m4032573
fqd:_Array_get_LongLength_m978104875
dCa:__ZL17ProgramUniform2fvPK7ApiGLESjiihPKv
hWj:b83
KEg:__Z68RuntimeInvoker_Boolean_t97287965_RuntimeObject_UInt64U26_t1265593412PFvvEPK10MethodInfoPvPS4_
fLc:__ZN20TextRenderingPrivate8FontImpl21HasCharacterInTextureEjijfPj
lkb:__ZNSt3__227__insertion_sort_incompleteIRPFbRK23TransformAccessReadOnlyS3_EPS1_EEbT0_S8_T_
Sad:_OptionData__ctor_m2529924901
FBg:_Transform_SetAsFirstSibling_m253439912
Uki:__ZL93HorizontalOrVerticalLayoutGroup_t729725570_CustomAttributesCacheGenerator_m_ChildControlWidthP21CustomAttributesCache
Nyf:_DateTime_System_IConvertible_ToUInt16_m4182197229_AdjustorThunk
Ylf:_Interval_get_IsDiscontiguous_m3016063288
Xje:_SslStreamBase_get_CheckCertRevocationStatus_m2739906607
gLj:_htonl
dua:__Z20GetBufferManagerGLESv
gWj:b82
cpf:_SHA512Managed_Sigma1_m922902398
aCb:__ZN18StreamedBinaryReadILb0EE21TransferSTLStyleArrayI31ArrayOfManagedObjectsTransfererEEvRT_17TransferMetaFlags
Hua:__ZNSt3__26__treeI22DeviceStencilStateGLES14MemoryCompLessI18DeviceStencilStateENS_9allocatorIS1_EEE12__find_equalIS1_EERPNS_16__tree_node_baseIPvEESD_RKT_
fLj:_htons
Utc:__Z18Transfer_BlittableI8JSONReadLb0EtEvRK29SerializationCommandArgumentsR31RuntimeSerializationCommandInfo
dfj:__ZN15dense_hashtableINSt3__24pairIK10KeyWrapperINS1_IPK9EventInfoP11Il2CppClassEEEjEES9_17ReflectionMapHashIS8_EN14dense_hash_mapIS9_jSD_NS9_14EqualsComparerINS0_8equal_toIS8_EEEENS0_9allocatorISB_EEE9SelectKeyESI_SK_E12expand_arrayEjN21dense_hash_map_traits17integral_constantIbLb0EEE
Ayb:__Z18Transfer_BlittableI18StreamedBinaryReadILb1EELb0E5RectTIiEEvRK29SerializationCommandArgumentsR31RuntimeSerializationCommandInfo
LZ:__Z16GenerateTypeTreeRK6ObjectR8TypeTree24TransferInstructionFlags
qJf:_CultureInfo_CreateCulture_m1493441763
Qpf:_TripleDES_IsWeakKey_m2147489852
$2a:__ZNK7Cubemap20GetTextureLayerCountEv
Wy:__ZN34AnimationStateMachineMixerPlayable13EndTransitionEv
LYh:__ZL79Convert_t2465617642_CustomAttributesCacheGenerator_Convert_ToUInt64_m2343585091P21CustomAttributesCache
_Ug:__Z65RuntimeInvoker_Void_t1185182177_RuntimeObject_RectU26_t1284589061PFvvEPK10MethodInfoPvPS4_
oI:__ZN12AudioManager21FixMasterGroupRoutingEv
v9a:__ZNK19ShaderPropertySheet11HasPropertyERKN9ShaderLab16FastPropertyNameE
PPj:dynCall_viffffii
gC:__ZN15AllocatorTraitsIN8Animator11AnimatorJobELb0EE13CopyConstructEPS1_RKS1_10MemLabelId
QYg:__Z81RuntimeInvoker_Boolean_t97287965_NavigationU26_t1807167253_Navigation_t3049316579PFvvEPK10MethodInfoPvPS4_
BXj:_emscripten_glUniform1fv__wrapper
Fed:_GridLayoutGroup_SetLayoutHorizontal_m2838109254
YPg:__Z65RuntimeInvoker_SecurityProtocolType_t1513093309_Int16_t2552820387PFvvEPK10MethodInfoPvPS4_
Nad:_Dropdown_RefreshShownValue_m2806045241
rob:__Z18Transfer_BlittableI14SafeBinaryReadLb1E4AABBEvRK29SerializationCommandArgumentsR31RuntimeSerializationCommandInfo
Yuj:__ZN6il2cpp6icalls8mscorlib6System4Enum12get_hashcodeEP12Il2CppObject
jEj:_GC_set_no_dls
Q8c:_ColorBlock_set_normalColor_m254595671_AdjustorThunk
GIj:__ZN6il2cpp8metadata26Il2CppGenericMethodCompare6EqualsEPK19Il2CppGenericMethodS4_
L9g:_Collection_1_InsertItem_m1996433897_gshared
qEe:_InternalEnumerator_1_get_Current_m1007906068_gshared
o6a:__ZNK13ScreenManager16GetScreenTimeoutEv
J$i:__ZN15dense_hashtableINSt3__24pairIK10KeyWrapperIPK11Il2CppClassEPKcEES6_N6il2cpp5utils11PointerHashIS3_EEN14dense_hash_mapIS6_S9_SE_NS6_14EqualsComparerINS0_8equal_toIS5_EEEENS0_9allocatorISA_EEE9SelectKeyESJ_SL_E15set_deleted_keyERKSA_
Qxd:_SimpleEnumerator_Reset_m1520014659
_Uh:__ZL53IPrincipal_t2343618843_CustomAttributesCacheGeneratorP21CustomAttributesCache
p_f:_SendOrPostCallback__ctor_m1566534627
TG:__ZN9AudioClip7WWWOpenEPKciPjPPvS4_
iob:__Z18Transfer_BlittableI14SafeBinaryReadLb0E8Vector2fEvRK29SerializationCommandArgumentsR31RuntimeSerializationCommandInfo
Tfe:_Context_set_ProtocolNegotiated_m2904861662
QNh:__ZL54FileOptions_t1024913468_CustomAttributesCacheGeneratorP21CustomAttributesCache
Cqj:__ZN15dense_hashtableINSt3__24pairIK10KeyWrapperINS1_IPKcS4_EEEiEES6_24NamespaceAndNamePairHashN14dense_hash_mapIS6_iS9_NS6_14EqualsComparerI26NamespaceAndNamePairEqualsEENS0_9allocatorIS8_EEE9SelectKeyESD_SF_E12resize_deltaEjj
tse:_RemotingServices_GetRemoteObject_m2117098022
fWi:_CanvasRenderer_SetTexture_m1600559835
SZc:__ZN13dynamic_arrayIiLj4EE6insertEPiPKiS3_
H8g:_Collection_1_System_Collections_IList_IndexOf_m4256072926_gshared
gIg:__Z132RuntimeInvoker_Boolean_t97287965_RuntimeObject_Int32_t2950945753_Int32_t2950945753_RuntimeObject_Int32_t2950945753_Int32_t2950945753PFvvEPK10MethodInfoPvPS4_
Hhc:__Z53Register_UnityEngine_Input_INTERNAL_get_mousePositionv
Yta:__ZN7ApiGLES12DrawElementsE16GfxPrimitiveTypePKvjjjj
naf:_EncryptedPrivateKeyInfo_get_Salt_m3453455261
Uzf:_DateTime__ParseNumber_m1240316250
mtf:_Single_System_IConvertible_ToSingle_m1939829239_AdjustorThunk
GAe:_InternalEnumerator_1_get_Current_m3839250771_gshared
ukc:__Z66Register_UnityEngine_Transform_INTERNAL_CALL_InverseTransformPointv
UIf:_CultureInfo_get_TextInfo_m2342840448
lRf:_Array_InternalArray__IndexOf_TisMark_t3471605523_m2905388260_gshared
d2c:_EventSystem_set_pixelDragThreshold_m890385646
DJa:__ZN9GfxDevice22DispatchComputeProgramE12ObjectHandleI18ComputeProgram_TagPvEjjj
id:_SDL_GetTicks
Adj:__ZN15dense_hashtableINSt3__24pairIK10KeyWrapperINS1_IPK11Il2CppImageP11Il2CppClassEEEjEES9_17ReflectionMapHashIS8_EN14dense_hash_mapIS9_jSD_NS9_14EqualsComparerINS0_8equal_toIS8_EEEENS0_9allocatorISB_EEE9SelectKeyESI_SK_E6insertERKSB_
EVb:__Z21CreateShadowCullerJobP30CreateUmbraShadowCullerJobData
Jgh:_ReadOnlyCollection_1_System_Collections_Generic_ICollectionU3CTU3E_Remove_m4072504734_gshared
XBa:__ZL18ProgramUniform2uivPK7ApiGLESjiihPKv
z7c:_U3COnFinishSubmitU3Ec__Iterator0_MoveNext_m2729496168
bXj:_glUniform4iv__wrapper
ESb:__Z33GenerateShadowCasterPartsSortDataRK16ShadowCasterDatajRK15RenderNodeQueueRKNSt3__26vectorI20ShadowCasterPartData13stl_allocatorIS7_L18MemLabelIdentifier2ELi16EEEERK10Matrix4x4fRjP20ShadowCasterSortData
_Kb:__ZZ23InitPlayerLoopCallbacksvEN51PostLateUpdateTriggerEndOfFrameCallbacksRegistrator7ForwardEv
q0f:_TimeSpan_Compare_m753151303
prb:__Z29Transfer_Blittable_ArrayFieldI14SafeBinaryRead9BoundsIntEvRT_R9ArrayInfoRK23StaticTransferFieldInfo
zzc:_cf2_computeDarkening
TWi:_AnimationLayerMixerPlayable__ctor_m860721801_AdjustorThunk
b5d:_MonoPropertyInfo_get_property_info_m1599555644
aBh:_List_1_Add_m2298161512_gshared
rjd:_DESTransform_CipherFunct_m3527261721
HBj:_GC_expand_hp_inner
tsj:__ZNK15dense_hashtableI10KeyWrapperIP18Il2CppGenericClassES3_N6il2cpp8metadata22Il2CppGenericClassHashEN14dense_hash_setIS3_S6_NS3_14EqualsComparerINS5_25Il2CppGenericClassCompareEEENSt3__29allocatorIS3_EEE8IdentityESA_SD_E12test_deletedEj
Ukc:__Z25Screen_Get_Custom_PropDpiv
Cxb:__Z29Transfer_Blittable_ArrayFieldI19StreamedBinaryWriteILb0EEsEvRT_R9ArrayInfoRK23StaticTransferFieldInfo
wqg:_UnityEventBase_RebuildPersistentCallsIfNeeded_m216788690
dgi:__ZL80PhysicsRaycaster_t437419520_CustomAttributesCacheGenerator_m_MaxRayIntersectionsP21CustomAttributesCache
$yj:__ZN4utf812find_invalidIPKcEET_S3_S3_
dVe:_InputField_OnEndDrag_m4127187089
gjh:_ReadOnlyCollection_1_System_Collections_IList_RemoveAt_m2555465054_gshared
yLh:__ZL72RuntimeCompatibilityAttribute_t1169614002_CustomAttributesCacheGeneratorP21CustomAttributesCache
rEf:_StackFrame__ctor_m343464319
AT:__ZN11UnityEngine15CloudWebService20WebRequestRestClient7PrepareEv
k4d:_MonoField_CheckGeneric_m453069507
UKc:__ZN20TextRenderingPrivate19NativeTextGenerator23FixLineHorizontalOffsetEiii
rcg:_DefaultComparer_Equals_m3348496647_gshared
xqe:_MethodCall_Init_m86192062
bCb:__Z19TransferField_ArrayI18StreamedBinaryReadILb0EE27Converter_UnityEngineObjectEvRK23StaticTransferFieldInfoR31RuntimeSerializationCommandInfoRT0_
lue:_ObjectReader_ReadArrayOfString_m3550800559
rSd:_MonoCustomAttrs_GetCustomAttributesInternal_m648304078
gA:__ZN7mecanim9animation19DestroyAnimationSetEPNS0_12AnimationSetERNS_6memory9AllocatorE
cRj:_emscripten_glDepthRange__wrapper
q0:__ZN14SerializedFile7ReleaseEv
smb:__ZN16MemoryFileSystem4OpenER13FileEntryData14FilePermission16FileAutoBehavior
vIf:_CompareInfo_GetSortKey_m1915852346
jIc:_ft_var_load_avar
rfa:__ZN13RuntimeStaticI13RendererSceneLb0EE13StaticDestroyEPv
HHe:_DefaultComparer_Compare_m1297750557_gshared
IW:__ZN20DynamicHeapAllocatorI17LowLevelAllocatorE10ReallocateEPvji
BP:__ZN12AudioManager12CleanupClassEv
wub:__Z18Transfer_BlittableI24GenerateTypeTreeTransferLb1E12PropertyNameEvRK29SerializationCommandArgumentsR31RuntimeSerializationCommandInfo
uLi:_Toggle_OnEnable_m1421694809
edb:__ZN14SafeBinaryRead21TransferSTLStyleArrayI10vector_mapIPKN5Unity4TypeE7Hash128NSt3__24lessIS5_EENS7_9allocatorINS7_4pairIS5_S6_EEEEEEEvRT_17TransferMetaFlags
B5e:_SortKeyBuffer_AppendLevel5_m3963841125
jNc:__ZN20TextRenderingPrivate21TextMeshGeneratorImpl14GarbageCollectEv
K7c:_CanvasScaler_get_scaleFactor_m122574367
zac:__ZNK9Texture2D17CheckHasPixelDataEv
jwb:__Z18Transfer_BlittableI19StreamedBinaryWriteILb0EELb0E9BoundsIntEvRK29SerializationCommandArgumentsR31RuntimeSerializationCommandInfo
zOb:__Z18SetShadowsKeywordsR17ShaderPassContext9LightType10ShadowType16ShadowProjectionbb
Jdd:_Graphic_GetPixelAdjustedRect_m3729397999
rhj:__ZN14dense_hash_mapI10KeyWrapperINSt3__24pairIPK12PropertyInfoP11Il2CppClassEEEj17ReflectionMapHashIS8_ENS9_14EqualsComparerINS1_8equal_toIS8_EEEENS1_9allocatorINS2_IKS9_jEEEEEC2EjRKSB_RKSF_
E6b:__ZN17CollisionMeshDataC2Ev
fme:_ConfigHandler_CheckPath_m3079311646
mki:__ZL73AspectRatioFitter_t3312407083_CustomAttributesCacheGenerator_m_AspectModeP21CustomAttributesCache
ECi:_BalancingGroup_set_Balance_m3289053627
m8d:_Marshal_Copy_m1222846562
o4a:__ZN16LightmapSettings23VirtualRedirectTransferER19StreamedBinaryWriteILb0EE
bLb:__ZZ23InitPlayerLoopCallbacksvEN47PostLateUpdateMemoryFrameMaintenanceRegistrator7ForwardEv
_ta:__ZN7ApiGLES20SetVertexArrayAttribEjj12VertexFormathjPKv
Ao:FUNCTION_TABLE_viiififii
sCj:_GC_push_next_marked
Bdg:_EqualityComparer_1_System_Collections_IEqualityComparer_GetHashCode_m3539775155_gshared
Ohb:__ZN18IDCollectorFunctor18GenerateInstanceIDEi17TransferMetaFlags
uti:_GameObject_GetComponent_TisRuntimeObject_m2049753423_gshared
ITi:_TextGenerationSettings_Equals_m3618607189_AdjustorThunk
nIi:_SymmetricTransform_get_CanReuseTransform_m3495714228
x2d:_FieldInfo_get_UMarshal_m1217454798
adf:_NameObjectCollectionBase_BaseAdd_m3437748750
J1f:_Type_internal_from_handle_m3156085815
kRg:__Z63RuntimeInvoker_RuntimeObject_RuntimeObject_Int32U26_t1369213839PFvvEPK10MethodInfoPvPS4_
fGc:_ft_smooth_init
fUh:__ZL55MACTripleDES_t1631262397_CustomAttributesCacheGeneratorP21CustomAttributesCache
Y3i:__ZN6il2cpp2vm13MetadataCache25GetMethodGenericContainerEPK10MethodInfo
Yeh:_ReadOnlyCollection_1_System_Collections_Generic_ICollectionU3CTU3E_Add_m69722965_gshared
CD:__ZN8Animator8TransferI19StreamedBinaryWriteILb0EEEEvRT_
N1:__ZNSt3__27__sort4IRNS_6__lessI14ObjectLoadDataS2_EEPS2_EEjT0_S6_S6_S6_T_
gNb:__ZNK25CameraStackRenderingState16GetCurrentCameraEv
OOf:_Array_InternalArray__IEnumerable_GetEnumerator_TisIntPtr_t_m2620447453_gshared
q0e:_ScrollRect_get_rectTransform_m2442061719
lMa:__ZN17PersistentManager4LockEv
bSh:__ZL51IMessage_t3593512748_CustomAttributesCacheGeneratorP21CustomAttributesCache
C8b:__Z22PlayableValidityChecksRK9HPlayableb
X3h:__ZL57AnimationCurve_t3046754366_CustomAttributesCacheGeneratorP21CustomAttributesCache
Keb:__ZN15ResourceManagerD2Ev
UDe:_InternalEnumerator_1__ctor_m3383770493_gshared
Hfc:__Z41Register_UnityEngine_Camera_GetAllCamerasv
Mpg:_InvokableCall__ctor_m2158562079
E5i:__ZN6il2cpp2gc9AllocatorIP17Il2CppAsyncResultE10deallocateEPvj
CBi:_Assertion__ctor_m2128950829
$Yc:__ZN28PerformanceReportingSettings8TransferI14SafeBinaryReadEEvRT_
q4g:_Collection_1_System_Collections_ICollection_get_SyncRoot_m2514790028_gshared
fjb:__ZN15CacheWriterBase18GetAddressOfMemoryEv
pmd:_Buffer_BlockCopy_m2884209081
tUh:__ZL56RSAParameters_t1728406613_CustomAttributesCacheGeneratorP21CustomAttributesCache
auc:__Z18Transfer_BlittableI8JSONReadLb1E5RectTIiEEvRK29SerializationCommandArgumentsR31RuntimeSerializationCommandInfo
L9h:__ZL84AudioSettings_t3587374600_CustomAttributesCacheGenerator_OnAudioConfigurationChangedP21CustomAttributesCache
Nmj:__ZN6il2cpp2vm22EmbeddedResourceRecordC2ERKS1_
Ona:__ZNSt3__26vectorIN9ShaderLab20SerializedSubProgram15VectorParameterENS_9allocatorIS3_EEE21__push_back_slow_pathIKS3_EEvRT_
wIb:__ZL20DrawVBOChunkWithPassP6ShaderPN9ShaderLab4PassER17ShaderPassContextR10DynamicVBORK21DynamicVBOChunkHandle
S4g:_Collection_1__ctor_m825528237_gshared
I2a:__ZN9Texture2D13AwakeFromLoadE17AwakeFromLoadMode
eOf:_SetPropertyUtility_SetStruct_TisColorBlock_t2139031574_m1748367426_gshared
lug:_PlayerConnection_get_instance_m1750121257
quj:__ZN6il2cpp2vm3RCW14QueryInterfaceILb0EEEP14Il2CppIUnknownP15Il2CppComObjectRK10Il2CppGuid
bTh:__ZL61FormatterConverter_t2760117746_CustomAttributesCacheGeneratorP21CustomAttributesCache
jri:_Dictionary_2_Do_CopyTo_TisRuntimeObject_TisRuntimeObject_m2341992100_gshared
Zxi:_X509Store_get_Certificates_m56224934
tre:_ReturnMessage_set_Uri_m3134200303
bAa:__ZN6prcoreL17RemapGenericFloatI15TexFormatRFloat18TexFormatARGBFloatEEvPKNS_9InnerInfoE
KLg:__Z85RuntimeInvoker_Void_t1185182177_Int64_t3736567304_Int32_t2950945753_Int64_t3736567304PFvvEPK10MethodInfoPvPS4_
lde:_CipherSuite__ctor_m2440635082
Fnf:_RSAPKCS1KeyExchangeFormatter_SetRSAKey_m1477802943
M6h:__ZL104SendMouseEvents_t3273302915_CustomAttributesCacheGenerator_SendMouseEvents_DoSendMouseEvents_m2140870850P21CustomAttributesCache
bof:_SHA1CryptoServiceProvider_HashCore_m3575298072
yrf:_EvidenceEnumerator_get_Current_m1264365535
$Zc:__ZN11UnityEngine15PlatformWrapper20GetPlayerPrefsUInt64ERKN4core12basic_stringIcNS1_20StringStorageDefaultIcEEEEy
l8d:_Marshal_copy_from_unmanaged_m2834266824
EPj:dynCall_iiiifii
iSb:__ZN20ReflectionProbeCacheC2ER13BatchRendererR15RenderLoopStats
Vmf:_RIPEMD160Managed_G_m3625715749
D_a:__ZN7Texture23VirtualRedirectTransferER18StreamedBinaryReadILb0EE
oxg:_Rect_set_xMax_m1720695099_AdjustorThunk
wOg:__Z59RuntimeInvoker_Int32_t2950945753_DateTimeOffset_t3229287507PFvvEPK10MethodInfoPvPS4_
qlb:__ZNK12HandlerChain6ExistsERK13FileEntryData
AHf:_Calendar__ctor_m106290643
USb:__Z30FindDirectAttenuationFromProbeP18ForwardLightsBlockbiRK10RenderNodeRK23FindForwardLightsParamsf
Sac:__ZNSt3__26vectorIj13stl_allocatorIjL18MemLabelIdentifier1ELi16EEE6assignIPKjEENS_9enable_ifIXaasr21__is_forward_iteratorIT_EE5valuesr16is_constructibleIjNS_15iterator_traitsIS9_E9referenceEEE5valueEvE4typeES9_S9_
rcb:__ZN12InputManager23VirtualRedirectTransferER24GenerateTypeTreeTransfer
vkb:__ZN9Transform23VirtualRedirectTransferER24GenerateTypeTreeTransfer
V5a:__Z18GetLODGroupManagerv
qmc:__ZN12GUIClipState10BeginOnGUIER10InputEvent
Ina:__ZNSt3__26vectorIN9ShaderLab20SerializedSubProgram12UAVParameterENS_9allocatorIS3_EEE21__push_back_slow_pathIKS3_EEvRT_
Yci:__ZL100CanvasGroup_t4083511760_CustomAttributesCacheGenerator_CanvasGroup_get_ignoreParentGroups_m865591534P21CustomAttributesCache
